
usb_kb.elf:     file format elf32-littlenios2
usb_kb.elf
architecture: nios2:r1, flags 0x00000112:
EXEC_P, HAS_SYMS, D_PAGED
start address 0x100001bc

Program Header:
    LOAD off    0x00001000 vaddr 0x10000000 paddr 0x10000000 align 2**12
         filesz 0x00000020 memsz 0x00000020 flags r-x
    LOAD off    0x00001020 vaddr 0x10000020 paddr 0x10000020 align 2**12
         filesz 0x00011e00 memsz 0x00011e00 flags r-x
    LOAD off    0x00012e20 vaddr 0x10011e20 paddr 0x1001390c align 2**12
         filesz 0x00001aec memsz 0x00001aec flags rw-
    LOAD off    0x000153f8 vaddr 0x100153f8 paddr 0x100153f8 align 2**12
         filesz 0x00000000 memsz 0x00000160 flags rw-

Sections:
Idx Name          Size      VMA       LMA       File off  Algn
  0 .entry        00000020  10000000  10000000  00001000  2**5
                  CONTENTS, ALLOC, LOAD, READONLY, CODE
  1 .exceptions   0000019c  10000020  10000020  00001020  2**2
                  CONTENTS, ALLOC, LOAD, READONLY, CODE
  2 .text         000111e4  100001bc  100001bc  000011bc  2**2
                  CONTENTS, ALLOC, LOAD, READONLY, CODE
  3 .rodata       00000a80  100113a0  100113a0  000123a0  2**2
                  CONTENTS, ALLOC, LOAD, READONLY, DATA
  4 .rwdata       00001aec  10011e20  1001390c  00012e20  2**2
                  CONTENTS, ALLOC, LOAD, DATA, SMALL_DATA
  5 .bss          00000160  100153f8  100153f8  000153f8  2**2
                  ALLOC, SMALL_DATA
  6 .onchip_memory2_0 00000000  00000000  00000000  0001490c  2**0
                  CONTENTS
  7 .sdram        00000000  10015558  10015558  0001490c  2**0
                  CONTENTS
  8 .comment      00000023  00000000  00000000  0001490c  2**0
                  CONTENTS, READONLY
  9 .debug_aranges 00000d28  00000000  00000000  00014930  2**3
                  CONTENTS, READONLY, DEBUGGING
 10 .debug_info   00023696  00000000  00000000  00015658  2**0
                  CONTENTS, READONLY, DEBUGGING
 11 .debug_abbrev 00008f58  00000000  00000000  00038cee  2**0
                  CONTENTS, READONLY, DEBUGGING
 12 .debug_line   0000b165  00000000  00000000  00041c46  2**0
                  CONTENTS, READONLY, DEBUGGING
 13 .debug_frame  000022cc  00000000  00000000  0004cdac  2**2
                  CONTENTS, READONLY, DEBUGGING
 14 .debug_str    00003336  00000000  00000000  0004f078  2**0
                  CONTENTS, READONLY, DEBUGGING
 15 .debug_loc    00016d4c  00000000  00000000  000523ae  2**0
                  CONTENTS, READONLY, DEBUGGING
 16 .debug_alt_sim_info 00000040  00000000  00000000  000690fc  2**2
                  CONTENTS, READONLY, DEBUGGING
 17 .debug_ranges 00001370  00000000  00000000  00069140  2**3
                  CONTENTS, READONLY, DEBUGGING
 18 .thread_model 00000003  00000000  00000000  0006d846  2**0
                  CONTENTS, READONLY
 19 .cpu          0000000c  00000000  00000000  0006d849  2**0
                  CONTENTS, READONLY
 20 .qsys         00000001  00000000  00000000  0006d855  2**0
                  CONTENTS, READONLY
 21 .simulation_enabled 00000001  00000000  00000000  0006d856  2**0
                  CONTENTS, READONLY
 22 .sysid_hash   00000004  00000000  00000000  0006d857  2**0
                  CONTENTS, READONLY
 23 .sysid_base   00000004  00000000  00000000  0006d85b  2**0
                  CONTENTS, READONLY
 24 .sysid_time   00000004  00000000  00000000  0006d85f  2**0
                  CONTENTS, READONLY
 25 .stderr_dev   0000000b  00000000  00000000  0006d863  2**0
                  CONTENTS, READONLY
 26 .stdin_dev    0000000b  00000000  00000000  0006d86e  2**0
                  CONTENTS, READONLY
 27 .stdout_dev   0000000b  00000000  00000000  0006d879  2**0
                  CONTENTS, READONLY
 28 .sopc_system_name 0000000b  00000000  00000000  0006d884  2**0
                  CONTENTS, READONLY
 29 .quartus_project_dir 00000030  00000000  00000000  0006d88f  2**0
                  CONTENTS, READONLY
 30 .jdi          000042ea  00000000  00000000  0006d8bf  2**0
                  CONTENTS, READONLY
 31 .sopcinfo     0006841e  00000000  00000000  00071ba9  2**0
                  CONTENTS, READONLY
SYMBOL TABLE:
10000000 l    d  .entry	00000000 .entry
10000020 l    d  .exceptions	00000000 .exceptions
100001bc l    d  .text	00000000 .text
100113a0 l    d  .rodata	00000000 .rodata
10011e20 l    d  .rwdata	00000000 .rwdata
100153f8 l    d  .bss	00000000 .bss
00000000 l    d  .onchip_memory2_0	00000000 .onchip_memory2_0
10015558 l    d  .sdram	00000000 .sdram
00000000 l    d  .comment	00000000 .comment
00000000 l    d  .debug_aranges	00000000 .debug_aranges
00000000 l    d  .debug_info	00000000 .debug_info
00000000 l    d  .debug_abbrev	00000000 .debug_abbrev
00000000 l    d  .debug_line	00000000 .debug_line
00000000 l    d  .debug_frame	00000000 .debug_frame
00000000 l    d  .debug_str	00000000 .debug_str
00000000 l    d  .debug_loc	00000000 .debug_loc
00000000 l    d  .debug_alt_sim_info	00000000 .debug_alt_sim_info
00000000 l    d  .debug_ranges	00000000 .debug_ranges
00000000 l    df *ABS*	00000000 ../usb_kb_bsp//obj/HAL/src/crt0.o
100001f4 l       .text	00000000 alt_after_alt_main
00000000 l    df *ABS*	00000000 alt_exception_entry.o
10000094 l       .exceptions	00000000 alt_exception_unknown
00000000 l    df *ABS*	00000000 alt_irq_handler.c
00000000 l    df *ABS*	00000000 io_handler.c
00000000 l    df *ABS*	00000000 main.c
100153f8 l     O .bss	00000002 ctl_reg.3319
100153fa l     O .bss	00000002 no_device.3320
00000000 l    df *ABS*	00000000 usb.c
00000000 l    df *ABS*	00000000 printf.c
00000000 l    df *ABS*	00000000 puts.c
00000000 l    df *ABS*	00000000 strlen.c
00000000 l    df *ABS*	00000000 vfprintf.c
10011b66 l     O .rodata	00000010 zeroes.4181
10011b76 l     O .rodata	00000010 blanks.4180
00000000 l    df *ABS*	00000000 wsetup.c
00000000 l    df *ABS*	00000000 dtoa.c
10004614 l     F .text	00000228 quorem
00000000 l    df *ABS*	00000000 fflush.c
00000000 l    df *ABS*	00000000 findfp.c
100061bc l     F .text	00000008 __fp_lock
100061c4 l     F .text	00000008 __fp_unlock
100061d8 l     F .text	000001a0 __sinit.part.1
00000000 l    df *ABS*	00000000 mallocr.c
00000000 l    df *ABS*	00000000 fvwrite.c
00000000 l    df *ABS*	00000000 fwalk.c
00000000 l    df *ABS*	00000000 impure.c
10011e20 l     O .rwdata	00000424 impure_data
00000000 l    df *ABS*	00000000 locale.c
10012264 l     O .rwdata	00000020 lc_ctype_charset
10012244 l     O .rwdata	00000020 lc_message_charset
10012284 l     O .rwdata	00000038 lconv
00000000 l    df *ABS*	00000000 makebuf.c
00000000 l    df *ABS*	00000000 mallocr.c
00000000 l    df *ABS*	00000000 memchr.c
00000000 l    df *ABS*	00000000 memcpy.c
00000000 l    df *ABS*	00000000 memmove.c
00000000 l    df *ABS*	00000000 memset.c
00000000 l    df *ABS*	00000000 mprec.c
10011ba8 l     O .rodata	0000000c p05.2678
00000000 l    df *ABS*	00000000 mallocr.c
00000000 l    df *ABS*	00000000 s_fpclassify.c
00000000 l    df *ABS*	00000000 sbrkr.c
00000000 l    df *ABS*	00000000 stdio.c
00000000 l    df *ABS*	00000000 strcmp.c
00000000 l    df *ABS*	00000000 vfprintf.c
10009708 l     F .text	000000fc __sprint_r.part.0
10011cdc l     O .rodata	00000010 blanks.4125
10011ccc l     O .rodata	00000010 zeroes.4126
00000000 l    df *ABS*	00000000 writer.c
00000000 l    df *ABS*	00000000 closer.c
00000000 l    df *ABS*	00000000 mallocr.c
00000000 l    df *ABS*	00000000 fclose.c
00000000 l    df *ABS*	00000000 fputwc.c
00000000 l    df *ABS*	00000000 fstatr.c
00000000 l    df *ABS*	00000000 int_errno.c
00000000 l    df *ABS*	00000000 isattyr.c
00000000 l    df *ABS*	00000000 lseekr.c
00000000 l    df *ABS*	00000000 readr.c
00000000 l    df *ABS*	00000000 wbuf.c
00000000 l    df *ABS*	00000000 wcrtomb.c
00000000 l    df *ABS*	00000000 wctomb_r.c
00000000 l    df *ABS*	00000000 libgcc2.c
00000000 l    df *ABS*	00000000 libgcc2.c
00000000 l    df *ABS*	00000000 lib2-divmod.c
1000c20c l     F .text	0000006c udivmodsi4
00000000 l    df *ABS*	00000000 lib2-mul.c
00000000 l    df *ABS*	00000000 adddf3.c
00000000 l    df *ABS*	00000000 divdf3.c
00000000 l    df *ABS*	00000000 eqdf2.c
00000000 l    df *ABS*	00000000 gedf2.c
00000000 l    df *ABS*	00000000 ledf2.c
00000000 l    df *ABS*	00000000 muldf3.c
00000000 l    df *ABS*	00000000 subdf3.c
00000000 l    df *ABS*	00000000 fixdfsi.c
00000000 l    df *ABS*	00000000 floatsidf.c
00000000 l    df *ABS*	00000000 floatunsidf.c
00000000 l    df *ABS*	00000000 libgcc2.c
00000000 l    df *ABS*	00000000 libgcc2.c
00000000 l    df *ABS*	00000000 alt_close.c
1000eb5c l     F .text	00000050 alt_get_errno
00000000 l    df *ABS*	00000000 alt_dev.c
1000ec84 l     F .text	0000002c alt_dev_null_write
00000000 l    df *ABS*	00000000 alt_errno.c
00000000 l    df *ABS*	00000000 alt_fstat.c
1000ecb0 l     F .text	00000050 alt_get_errno
00000000 l    df *ABS*	00000000 alt_isatty.c
1000edb8 l     F .text	00000050 alt_get_errno
00000000 l    df *ABS*	00000000 alt_load.c
1000eeb4 l     F .text	00000064 alt_load_section
00000000 l    df *ABS*	00000000 alt_lseek.c
1000ef98 l     F .text	00000050 alt_get_errno
00000000 l    df *ABS*	00000000 alt_main.c
00000000 l    df *ABS*	00000000 alt_malloc_lock.c
00000000 l    df *ABS*	00000000 alt_read.c
1000f17c l     F .text	00000050 alt_get_errno
00000000 l    df *ABS*	00000000 alt_release_fd.c
00000000 l    df *ABS*	00000000 alt_sbrk.c
100138fc l     O .rwdata	00000004 heap_end
00000000 l    df *ABS*	00000000 alt_usleep.c
00000000 l    df *ABS*	00000000 alt_write.c
1000f430 l     F .text	00000050 alt_get_errno
00000000 l    df *ABS*	00000000 alt_sys_init.c
1000f580 l     F .text	00000038 alt_dev_reg
1001286c l     O .rwdata	00001060 jtag_uart_0
00000000 l    df *ABS*	00000000 altera_avalon_jtag_uart_fd.c
00000000 l    df *ABS*	00000000 altera_avalon_jtag_uart_init.c
1000f85c l     F .text	00000204 altera_avalon_jtag_uart_irq
1000fa60 l     F .text	000000a8 altera_avalon_jtag_uart_timeout
00000000 l    df *ABS*	00000000 altera_avalon_jtag_uart_ioctl.c
00000000 l    df *ABS*	00000000 altera_avalon_jtag_uart_read.c
00000000 l    df *ABS*	00000000 altera_avalon_jtag_uart_write.c
00000000 l    df *ABS*	00000000 alt_alarm_start.c
00000000 l    df *ABS*	00000000 alt_busy_sleep.c
00000000 l    df *ABS*	00000000 alt_dcache_flush_all.c
00000000 l    df *ABS*	00000000 alt_dev_llist_insert.c
10010334 l     F .text	00000050 alt_get_errno
00000000 l    df *ABS*	00000000 alt_do_ctors.c
00000000 l    df *ABS*	00000000 alt_do_dtors.c
00000000 l    df *ABS*	00000000 alt_icache_flush_all.c
00000000 l    df *ABS*	00000000 alt_iic.c
00000000 l    df *ABS*	00000000 alt_iic_isr_register.c
00000000 l    df *ABS*	00000000 alt_io_redirect.c
100107cc l     F .text	000000e0 alt_open_fd
00000000 l    df *ABS*	00000000 alt_irq_vars.c
00000000 l    df *ABS*	00000000 alt_open.c
10010924 l     F .text	00000050 alt_get_errno
10010974 l     F .text	000000f4 alt_file_locked
00000000 l    df *ABS*	00000000 alt_tick.c
00000000 l    df *ABS*	00000000 altera_nios2_qsys_irq.c
00000000 l    df *ABS*	00000000 alt_find_dev.c
00000000 l    df *ABS*	00000000 alt_find_file.c
00000000 l    df *ABS*	00000000 alt_get_fd.c
00000000 l    df *ABS*	00000000 atexit.c
00000000 l    df *ABS*	00000000 exit.c
00000000 l    df *ABS*	00000000 memcmp.c
00000000 l    df *ABS*	00000000 __atexit.c
00000000 l    df *ABS*	00000000 __call_atexit.c
00000000 l    df *ABS*	00000000 alt_exit.c
10008d48 g     F .text	00000074 _mprec_log10
10008e34 g     F .text	0000008c __any_on
1000b134 g     F .text	00000054 _isatty_r
10011bb4 g     O .rodata	00000028 __mprec_tinytens
1000f0c4 g     F .text	00000078 alt_main
10002260 g     F .text	000000b8 _puts_r
10015458 g     O .bss	00000100 alt_irq
1000b188 g     F .text	0000005c _lseek_r
1001390c g       *ABS*	00000000 __flash_rwdata_start
1000d57c g     F .text	00000084 .hidden __eqdf2
10015558 g       *ABS*	00000000 __alt_heap_start
10002224 g     F .text	0000003c printf
1000b3b0 g     F .text	0000009c _wcrtomb_r
10009600 g     F .text	0000005c __sseek
10006520 g     F .text	00000010 __sinit
1000b240 g     F .text	00000154 __swbuf_r
10006f98 g     F .text	0000007c _setlocale_r
10006378 g     F .text	00000078 __sfmoreglue
1000f15c g     F .text	00000020 __malloc_unlock
100020fc g     F .text	00000080 UsbGetRetryCnt
10007bf8 g     F .text	0000015c memmove
100001f8 g     F .text	00000050 IO_init
10006508 g     F .text	00000018 _cleanup
10007e78 g     F .text	000000a8 _Balloc
1000d600 g     F .text	000000e0 .hidden __gtdf2
00000000  w      *UND*	00000000 __errno
10000000 g     F .entry	0000000c __reset
10000020 g       *ABS*	00000000 __flash_exceptions_start
1000b0dc g     F .text	00000058 _fstat_r
10015414 g     O .bss	00000004 errno
1000957c g     F .text	00000008 __seofread
1001541c g     O .bss	00000004 alt_argv
1001b8cc g       *ABS*	00000000 _gp
1000f400 g     F .text	00000030 usleep
100126ec g     O .rwdata	00000180 alt_fd_list
10010d84 g     F .text	00000090 alt_find_dev
10007ac0 g     F .text	00000138 memcpy
100061cc g     F .text	0000000c _cleanup_r
1000e984 g     F .text	000000d0 .hidden __floatsidf
100108ac g     F .text	00000078 alt_io_redirect
1000d6e0 g     F .text	000000e0 .hidden __ltdf2
100113a0 g       *ABS*	00000000 __DTOR_END__
10002318 g     F .text	00000014 puts
10009460 g     F .text	00000074 __fpclassifyd
10008ca4 g     F .text	000000a4 __ratio
1000ac40 g     F .text	00000024 __vfiprintf_internal
1000fc5c g     F .text	0000020c altera_avalon_jtag_uart_read
00000000  w      *UND*	00000000 malloc
100021f8 g     F .text	0000002c _printf_r
00000000 g       *ABS*	00000000 __alt_mem_onchip_memory2_0
1000c328 g     F .text	00000008 .hidden __udivsi3
1000ee08 g     F .text	000000ac isatty
10011c04 g     O .rodata	000000c8 __mprec_tens
10007014 g     F .text	0000000c __locale_charset
10015410 g     O .bss	00000004 __malloc_top_pad
1000179c g     F .text	00000264 UsbGetConfigDesc2
100138d4 g     O .rwdata	00000004 __mb_cur_max
10007044 g     F .text	0000000c _localeconv_r
100082a0 g     F .text	0000003c __i2b
10006984 g     F .text	000004a4 __sfvwrite_r
100094d4 g     F .text	00000054 _sbrk_r
1000b1e4 g     F .text	0000005c _read_r
100138f4 g     O .rwdata	00000004 alt_max_fd
1000adec g     F .text	00000100 _fclose_r
1000618c g     F .text	00000030 fflush
1001540c g     O .bss	00000004 __malloc_max_sbrked_mem
1000c360 g     F .text	0000089c .hidden __adddf3
10008a4c g     F .text	0000011c __b2d
1000bbf0 g     F .text	0000061c .hidden __umoddi3
1000efe8 g     F .text	000000dc lseek
100138cc g     O .rwdata	00000004 _global_impure_ptr
10008ec0 g     F .text	000005a0 _realloc_r
10015558 g       *ABS*	00000000 __bss_end
100106dc g     F .text	000000f0 alt_iic_isr_register
10010c60 g     F .text	00000104 alt_tick
1000b5b0 g     F .text	00000640 .hidden __udivdi3
1000af00 g     F .text	00000184 _fputwc_r
10011bdc g     O .rodata	00000028 __mprec_bigtens
10008084 g     F .text	00000104 __s2b
1000ea54 g     F .text	000000a4 .hidden __floatunsidf
100087f4 g     F .text	00000060 __mcmp
100011fc g     F .text	000000fc UsbSetAddress
10006540 g     F .text	00000018 __fp_lock_all
10010690 g     F .text	0000004c alt_ic_irq_enabled
10010bc8 g     F .text	00000098 alt_alarm_stop
10015424 g     O .bss	00000004 alt_irq_active
100000ec g     F .exceptions	000000d0 alt_irq_handler
100126c4 g     O .rwdata	00000028 alt_dev_null
10010318 g     F .text	0000001c alt_dcache_flush_all
10008188 g     F .text	00000068 __hi0bits
100002b4 g     F .text	00000068 IO_read
1000e8fc g     F .text	00000088 .hidden __fixdfsi
1001390c g       *ABS*	00000000 __ram_rwdata_end
100138ec g     O .rwdata	00000008 alt_dev_list
1000f480 g     F .text	00000100 write
10011e20 g       *ABS*	00000000 __ram_rodata_end
1000ed00 g     F .text	000000b8 fstat
1000d6e0 g     F .text	000000e0 .hidden __ledf2
1000217c g     F .text	0000007c UsbPrintMem
1000856c g     F .text	00000140 __pow5mult
1000981c g     F .text	00001424 ___vfiprintf_internal_r
10015404 g     O .bss	00000004 __nlocale_changed
1000c330 g     F .text	00000008 .hidden __umodsi3
10015558 g       *ABS*	00000000 end
1000f798 g     F .text	000000c4 altera_avalon_jtag_uart_init
100113a0 g       *ABS*	00000000 __CTOR_LIST__
18000000 g       *ABS*	00000000 __alt_stack_pointer
1000eaf8 g     F .text	00000064 .hidden __clzsi2
1000fe68 g     F .text	00000218 altera_avalon_jtag_uart_write
10006530 g     F .text	00000004 __sfp_lock_acquire
100079d8 g     F .text	000000e8 memchr
100023c4 g     F .text	000020fc ___vfprintf_internal_r
10001afc g     F .text	000000fc UsbClassRequest
10006694 g     F .text	000002f0 _free_r
10007020 g     F .text	00000010 __locale_mb_cur_max
100111d8 g     F .text	00000194 __call_exitprocs
10015400 g     O .bss	00000004 __mlocale_changed
100138d8 g     O .rwdata	00000004 __malloc_sbrk_base
100001bc g     F .text	0000003c _start
10015428 g     O .bss	00000004 _alt_tick_rate
100086ac g     F .text	00000148 __lshift
1001542c g     O .bss	00000004 _alt_nticks
1000f1cc g     F .text	00000104 read
1000f5ec g     F .text	00000048 alt_sys_init
100110c4 g     F .text	00000114 __register_exitproc
100082dc g     F .text	00000290 __multiply
1000fb08 g     F .text	00000068 altera_avalon_jtag_uart_close
1000c338 g     F .text	00000028 .hidden __mulsi3
10011e20 g       *ABS*	00000000 __ram_rwdata_start
100113a0 g       *ABS*	00000000 __ram_rodata_start
10015430 g     O .bss	00000028 __malloc_current_mallinfo
10008b68 g     F .text	0000013c __d2b
100012f8 g     F .text	00000144 UsbGetDeviceDesc1
1000f634 g     F .text	00000060 altera_avalon_jtag_uart_read_fd
10010f28 g     F .text	000000d4 alt_get_fd
100101c0 g     F .text	00000158 alt_busy_sleep
1000acc0 g     F .text	00000054 _close_r
10011048 g     F .text	0000007c memcmp
1000f6f4 g     F .text	00000050 altera_avalon_jtag_uart_close_fd
10015558 g       *ABS*	00000000 __alt_stack_base
1000f744 g     F .text	00000054 altera_avalon_jtag_uart_ioctl_fd
100044e4 g     F .text	00000130 __swsetup_r
1000cbfc g     F .text	00000980 .hidden __divdf3
100063f0 g     F .text	00000118 __sfp
10008dbc g     F .text	00000078 __copybits
100122bc g     O .rwdata	00000408 __malloc_av_
1000653c g     F .text	00000004 __sinit_lock_release
1000d7c0 g     F .text	0000086c .hidden __muldf3
10009528 g     F .text	00000054 __sread
10002078 g     F .text	00000084 UsbWaitTDListDone
10010e14 g     F .text	00000114 alt_find_file
10010384 g     F .text	000000a4 alt_dev_llist_insert
1000f13c g     F .text	00000020 __malloc_lock
1000f350 g     F .text	000000b0 sbrk
10005f64 g     F .text	00000228 _fflush_r
1000ad14 g     F .text	000000d8 _calloc_r
100153f8 g       *ABS*	00000000 __bss_start
10007d54 g     F .text	00000124 memset
1000031c g     F .text	00000d90 main
10015420 g     O .bss	00000004 alt_envp
10015408 g     O .bss	00000004 __malloc_max_total_mem
1000f694 g     F .text	00000060 altera_avalon_jtag_uart_write_fd
10001a00 g     F .text	000000fc UsbSetConfig
1000b394 g     F .text	0000001c __swbuf
1000965c g     F .text	00000008 __sclose
18000000 g       *ABS*	00000000 __alt_heap_limit
1000aeec g     F .text	00000014 fclose
1000483c g     F .text	00001728 _dtoa_r
10007230 g     F .text	000007a8 _malloc_r
1000b524 g     F .text	00000030 __ascii_wctomb
100138f8 g     O .rwdata	00000004 alt_errno
10006e28 g     F .text	000000b8 _fwalk
1000c278 g     F .text	00000054 .hidden __divsi3
10006570 g     F .text	00000124 _malloc_trim_r
10001bf8 g     F .text	00000144 UsbGetHidDesc
100113a0 g       *ABS*	00000000 __CTOR_END__
10009664 g     F .text	000000a4 strcmp
100113a0 g       *ABS*	00000000 __flash_rodata_start
100113a0 g       *ABS*	00000000 __DTOR_LIST__
1000d57c g     F .text	00000084 .hidden __nedf2
10001100 g     F .text	0000004c UsbRead
1000f5b8 g     F .text	00000034 alt_irq_init
1000f2d0 g     F .text	00000080 alt_release_fd
10011cec g     O .rodata	00000100 .hidden __clz_tab
100153fc g     O .bss	00000004 _PathLocale
10010ffc g     F .text	00000014 atexit
1000ac64 g     F .text	0000005c _write_r
10007050 g     F .text	0000001c setlocale
100138d0 g     O .rwdata	00000004 _impure_ptr
10015418 g     O .bss	00000004 alt_argc
10010484 g     F .text	0000005c _do_dtors
1000703c g     F .text	00000008 __locale_cjk_lang
10000020 g       .exceptions	00000000 alt_irq_entry
100089ec g     F .text	00000060 __ulp
10006558 g     F .text	00000018 __fp_unlock_all
100138e4 g     O .rwdata	00000008 alt_fs_list
10001d3c g     F .text	0000033c UsbGetReportDesc
10000020 g       *ABS*	00000000 __ram_exceptions_start
1000706c g     F .text	0000000c localeconv
100104fc g     F .text	00000050 alt_ic_isr_register
1001390c g       *ABS*	00000000 _edata
10015558 g       *ABS*	00000000 _end
100010ac g     F .text	00000054 UsbWrite
100001bc g       *ABS*	00000000 __ram_exceptions_end
1000fb70 g     F .text	000000ec altera_avalon_jtag_uart_ioctl
100105ec g     F .text	000000a4 alt_ic_irq_disable
10009584 g     F .text	0000007c __swrite
100138dc g     O .rwdata	00000004 __malloc_trim_threshold
10010d64 g     F .text	00000020 altera_nios2_qsys_irq_init
10007030 g     F .text	0000000c __locale_msgcharset
10011010 g     F .text	00000038 exit
10006ee0 g     F .text	000000b8 _fwalk_reent
10008854 g     F .text	00000198 __mdiff
1000c2cc g     F .text	0000005c .hidden __modsi3
18000000 g       *ABS*	00000000 __alt_data_end
10000020 g     F .exceptions	00000000 alt_exception
10006534 g     F .text	00000004 __sfp_lock_release
10000000 g       *ABS*	00000000 __alt_mem_sdram
10000248 g     F .text	0000006c IO_write
1001136c g     F .text	00000034 _exit
10010080 g     F .text	00000140 alt_alarm_start
10007078 g     F .text	000001b8 __smakebuf_r
1000232c g     F .text	00000098 strlen
10010a68 g     F .text	00000160 open
1000d600 g     F .text	000000e0 .hidden __gedf2
100138e0 g     O .rwdata	00000004 __wctomb
10009804 g     F .text	00000018 __sprint_r
100104e0 g     F .text	0000001c alt_icache_flush_all
10013900 g     O .rwdata	00000004 alt_priority_mask
1001054c g     F .text	000000a0 alt_ic_irq_enable
100044c0 g     F .text	00000024 __vfprintf_internal
1000b554 g     F .text	0000005c _wctomb_r
1000e02c g     F .text	000008d0 .hidden __subdf3
100081f0 g     F .text	000000b0 __lo0bits
10001610 g     F .text	0000018c UsbGetConfigDesc1
10013904 g     O .rwdata	00000008 alt_alarm_list
10010428 g     F .text	0000005c _do_ctors
1000114c g     F .text	000000b0 UsbSoftReset
1000b44c g     F .text	000000d8 wcrtomb
1000ebac g     F .text	000000d8 close
1000143c g     F .text	000001d4 UsbGetDeviceDesc2
1000ef18 g     F .text	00000080 alt_load
1000b084 g     F .text	00000058 fputwc
00000000  w      *UND*	00000000 free
10006538 g     F .text	00000004 __sinit_lock_acquire
10007f48 g     F .text	0000013c __multadd
10007f20 g     F .text	00000028 _Bfree



Disassembly of section .entry:

10000000 <__reset>:
 * Jump to the _start entry point in the .text section if reset code
 * is allowed or if optimizing for RTL simulation.
 */
#if defined(ALT_ALLOW_CODE_AT_RESET) || defined(ALT_SIM_OPTIMIZE)
    /* Jump to the _start entry point in the .text section. */
    movhi r1, %hi(_start)
10000000:	00440034 	movhi	at,4096
    ori r1, r1, %lo(_start)
10000004:	08406f14 	ori	at,at,444
    jmp r1
10000008:	0800683a 	jmp	at
	...

Disassembly of section .exceptions:

10000020 <alt_exception>:

#else /* ALT_EXCEPTION_STACK disabled */
        /* 
         * Reserve space on normal stack for registers about to be pushed.
         */
        addi  sp, sp, -76
10000020:	deffed04 	addi	sp,sp,-76
         * documentation for details).
         *
         * Leave a gap in the stack frame at 4(sp) for the muldiv handler to
         * store zero into.
         */
        stw   ra,  0(sp)
10000024:	dfc00015 	stw	ra,0(sp)
        stw   r1,   8(sp)
10000028:	d8400215 	stw	at,8(sp)
        stw   r2,  12(sp)
1000002c:	d8800315 	stw	r2,12(sp)
        stw   r3,  16(sp)
10000030:	d8c00415 	stw	r3,16(sp)
        stw   r4,  20(sp)
10000034:	d9000515 	stw	r4,20(sp)
        stw   r5,  24(sp)
10000038:	d9400615 	stw	r5,24(sp)
        stw   r6,  28(sp)
1000003c:	d9800715 	stw	r6,28(sp)
        stw   r7,  32(sp)
10000040:	d9c00815 	stw	r7,32(sp)
        rdctl r5, estatus   /* Read early to avoid usage stall */
10000044:	000b307a 	rdctl	r5,estatus
        stw   r8,  36(sp)
10000048:	da000915 	stw	r8,36(sp)
        stw   r9,  40(sp)
1000004c:	da400a15 	stw	r9,40(sp)
        stw   r10, 44(sp)
10000050:	da800b15 	stw	r10,44(sp)
        stw   r11, 48(sp)
10000054:	dac00c15 	stw	r11,48(sp)
        stw   r12, 52(sp)
10000058:	db000d15 	stw	r12,52(sp)
        stw   r13, 56(sp)
1000005c:	db400e15 	stw	r13,56(sp)
        stw   r14, 60(sp)
10000060:	db800f15 	stw	r14,60(sp)
        stw   r15, 64(sp)
10000064:	dbc01015 	stw	r15,64(sp)
        /*
         * ea-4 contains the address of the instruction being executed
         * when the exception occured. For interrupt exceptions, we will
         * will be re-issue the isntruction. Store it in 72(sp)
         */
        stw   r5,  68(sp)  /* estatus */
10000068:	d9401115 	stw	r5,68(sp)
        addi  r15, ea, -4  /* instruction that caused exception */
1000006c:	ebffff04 	addi	r15,ea,-4
        stw   r15,  72(sp)
10000070:	dbc01215 	stw	r15,72(sp)
#else
        /*
         * Test to see if the exception was a software exception or caused 
         * by an external interrupt, and vector accordingly.
         */
        rdctl r4, ipending
10000074:	0009313a 	rdctl	r4,ipending
        andi  r2, r5, 1
10000078:	2880004c 	andi	r2,r5,1
        beq   r2, zero, .Lnot_irq
1000007c:	10000326 	beq	r2,zero,1000008c <alt_exception+0x6c>
        beq   r4, zero, .Lnot_irq
10000080:	20000226 	beq	r4,zero,1000008c <alt_exception+0x6c>
        /*
         * Now that all necessary registers have been preserved, call 
         * alt_irq_handler() to process the interrupts.
         */

        call alt_irq_handler
10000084:	00000ec0 	call	100000ec <alt_irq_handler>

        .section .exceptions.irqreturn, "xa"

        br    .Lexception_exit
10000088:	00000306 	br	10000098 <alt_exception_unknown+0x4>
         * upon completion, so we write ea (address of instruction *after*
         * the one where the exception occured) into 72(sp). The actual
         * instruction that caused the exception is written in r2, which these
         * handlers will utilize.
         */
        stw   ea,  72(sp)  /* Don't re-issue */
1000008c:	df401215 	stw	ea,72(sp)
        ldw   r2, -4(ea)   /* Instruction that caused exception */
10000090:	e8bfff17 	ldw	r2,-4(ea)

10000094 <alt_exception_unknown>:
#ifdef NIOS2_HAS_DEBUG_STUB
       /*
        *  Either tell the user now (if there is a debugger attached) or go into
        *  the debug monitor which will loop until a debugger is attached.
        */
        break
10000094:	003da03a 	break	0
        /* 
         * Restore the saved registers, so that all general purpose registers 
         * have been restored to their state at the time the interrupt occured.
         */

        ldw   r5,  68(sp)
10000098:	d9401117 	ldw	r5,68(sp)
        ldw   ea,  72(sp)  /* This becomes the PC once eret is executed */
1000009c:	df401217 	ldw	ea,72(sp)
        ldw   ra,   0(sp)
100000a0:	dfc00017 	ldw	ra,0(sp)

        wrctl estatus, r5
100000a4:	2801707a 	wrctl	estatus,r5

        ldw   r1,   8(sp)
100000a8:	d8400217 	ldw	at,8(sp)
        ldw   r2,  12(sp)
100000ac:	d8800317 	ldw	r2,12(sp)
        ldw   r3,  16(sp)
100000b0:	d8c00417 	ldw	r3,16(sp)
        ldw   r4,  20(sp)
100000b4:	d9000517 	ldw	r4,20(sp)
        ldw   r5,  24(sp)
100000b8:	d9400617 	ldw	r5,24(sp)
        ldw   r6,  28(sp)
100000bc:	d9800717 	ldw	r6,28(sp)
        ldw   r7,  32(sp)
100000c0:	d9c00817 	ldw	r7,32(sp)

#if defined(ALT_EXCEPTION_STACK) && defined(ALT_STACK_CHECK)
        ldw   et, %gprel(alt_exception_old_stack_limit)(gp)
#endif

        ldw   r8,  36(sp)
100000c4:	da000917 	ldw	r8,36(sp)
        ldw   r9,  40(sp)
100000c8:	da400a17 	ldw	r9,40(sp)
        ldw   r10, 44(sp)
100000cc:	da800b17 	ldw	r10,44(sp)
        ldw   r11, 48(sp)
100000d0:	dac00c17 	ldw	r11,48(sp)
        ldw   r12, 52(sp)
100000d4:	db000d17 	ldw	r12,52(sp)
        ldw   r13, 56(sp)
100000d8:	db400e17 	ldw	r13,56(sp)
        ldw   r14, 60(sp)
100000dc:	db800f17 	ldw	r14,60(sp)
        ldw   r15, 64(sp)
100000e0:	dbc01017 	ldw	r15,64(sp)
        stw   et, %gprel(alt_stack_limit_value)(gp)
        stw   zero, %gprel(alt_exception_old_stack_limit)(gp)
#endif /* ALT_STACK_CHECK */
        ldw   sp,  76(sp)
#else /* ALT_EXCEPTION_STACK disabled */
        addi  sp, sp, 76
100000e4:	dec01304 	addi	sp,sp,76

        /*
         * Return to the interrupted instruction.
         */

        eret
100000e8:	ef80083a 	eret

100000ec <alt_irq_handler>:
 * instruction is present if the macro ALT_CI_INTERRUPT_VECTOR defined.
 */

void alt_irq_handler (void) __attribute__ ((section (".exceptions")));
void alt_irq_handler (void)
{
100000ec:	defff904 	addi	sp,sp,-28
100000f0:	dfc00615 	stw	ra,24(sp)
100000f4:	df000515 	stw	fp,20(sp)
100000f8:	df000504 	addi	fp,sp,20
  
  /*
   * Notify the operating system that we are at interrupt level.
   */ 
  
  ALT_OS_INT_ENTER();
100000fc:	0001883a 	nop
#ifndef NIOS2_EIC_PRESENT
static ALT_INLINE alt_u32 ALT_ALWAYS_INLINE alt_irq_pending (void)
{
  alt_u32 active;

  NIOS2_READ_IPENDING (active);
10000100:	0005313a 	rdctl	r2,ipending
10000104:	e0bffe15 	stw	r2,-8(fp)

  return active;
10000108:	e0bffe17 	ldw	r2,-8(fp)
   * Consider the case where the high priority interupt is asserted during
   * the interrupt entry sequence for a lower priority interrupt to see why
   * this is the case.
   */

  active = alt_irq_pending ();
1000010c:	e0bffb15 	stw	r2,-20(fp)

  do
  {
    i = 0;
10000110:	e03ffd15 	stw	zero,-12(fp)
    mask = 1;
10000114:	00800044 	movi	r2,1
10000118:	e0bffc15 	stw	r2,-16(fp)
     * called to clear the interrupt condition.
     */

    do
    {
      if (active & mask)
1000011c:	e0fffb17 	ldw	r3,-20(fp)
10000120:	e0bffc17 	ldw	r2,-16(fp)
10000124:	1884703a 	and	r2,r3,r2
10000128:	10001426 	beq	r2,zero,1000017c <alt_irq_handler+0x90>
      { 
#ifdef ALT_ENHANCED_INTERRUPT_API_PRESENT
        alt_irq[i].handler(alt_irq[i].context); 
1000012c:	00840074 	movhi	r2,4097
10000130:	10951604 	addi	r2,r2,21592
10000134:	e0fffd17 	ldw	r3,-12(fp)
10000138:	180690fa 	slli	r3,r3,3
1000013c:	10c5883a 	add	r2,r2,r3
10000140:	10c00017 	ldw	r3,0(r2)
10000144:	00840074 	movhi	r2,4097
10000148:	10951604 	addi	r2,r2,21592
1000014c:	e13ffd17 	ldw	r4,-12(fp)
10000150:	200890fa 	slli	r4,r4,3
10000154:	1105883a 	add	r2,r2,r4
10000158:	10800104 	addi	r2,r2,4
1000015c:	10800017 	ldw	r2,0(r2)
10000160:	1009883a 	mov	r4,r2
10000164:	183ee83a 	callr	r3
#else
        alt_irq[i].handler(alt_irq[i].context, i); 
#endif
        break;
10000168:	0001883a 	nop
#ifndef NIOS2_EIC_PRESENT
static ALT_INLINE alt_u32 ALT_ALWAYS_INLINE alt_irq_pending (void)
{
  alt_u32 active;

  NIOS2_READ_IPENDING (active);
1000016c:	0005313a 	rdctl	r2,ipending
10000170:	e0bfff15 	stw	r2,-4(fp)

  return active;
10000174:	e0bfff17 	ldw	r2,-4(fp)
10000178:	00000706 	br	10000198 <alt_irq_handler+0xac>
      }
      mask <<= 1;
1000017c:	e0bffc17 	ldw	r2,-16(fp)
10000180:	1085883a 	add	r2,r2,r2
10000184:	e0bffc15 	stw	r2,-16(fp)
      i++;
10000188:	e0bffd17 	ldw	r2,-12(fp)
1000018c:	10800044 	addi	r2,r2,1
10000190:	e0bffd15 	stw	r2,-12(fp)

    } while (1);
10000194:	003fe106 	br	1000011c <__alt_data_end+0xf800011c>

    active = alt_irq_pending ();
10000198:	e0bffb15 	stw	r2,-20(fp)
    
  } while (active);
1000019c:	e0bffb17 	ldw	r2,-20(fp)
100001a0:	103fdb1e 	bne	r2,zero,10000110 <__alt_data_end+0xf8000110>

  /*
   * Notify the operating system that interrupt processing is complete.
   */ 

  ALT_OS_INT_EXIT();
100001a4:	0001883a 	nop
}
100001a8:	e037883a 	mov	sp,fp
100001ac:	dfc00117 	ldw	ra,4(sp)
100001b0:	df000017 	ldw	fp,0(sp)
100001b4:	dec00204 	addi	sp,sp,8
100001b8:	f800283a 	ret

Disassembly of section .text:

100001bc <_start>:

    /*
     * Now that the caches are initialized, set up the stack pointer and global pointer.
     * The values provided by the linker are assumed to be correctly aligned.
     */
    movhi sp, %hi(__alt_stack_pointer)
100001bc:	06c60034 	movhi	sp,6144
    ori sp, sp, %lo(__alt_stack_pointer)
100001c0:	dec00014 	ori	sp,sp,0
    movhi gp, %hi(_gp)
100001c4:	06840074 	movhi	gp,4097
    ori gp, gp, %lo(_gp)
100001c8:	d6ae3314 	ori	gp,gp,47308
 */
#ifndef ALT_SIM_OPTIMIZE
    /* Log that the BSS is about to be cleared. */
    ALT_LOG_PUTS(alt_log_msg_bss)

    movhi r2, %hi(__bss_start)
100001cc:	00840074 	movhi	r2,4097
    ori r2, r2, %lo(__bss_start)
100001d0:	1094fe14 	ori	r2,r2,21496

    movhi r3, %hi(__bss_end)
100001d4:	00c40074 	movhi	r3,4097
    ori r3, r3, %lo(__bss_end)
100001d8:	18d55614 	ori	r3,r3,21848

    beq r2, r3, 1f
100001dc:	10c00326 	beq	r2,r3,100001ec <_start+0x30>

0:
    stw zero, (r2)
100001e0:	10000015 	stw	zero,0(r2)
    addi r2, r2, 4
100001e4:	10800104 	addi	r2,r2,4
    bltu r2, r3, 0b
100001e8:	10fffd36 	bltu	r2,r3,100001e0 <__alt_data_end+0xf80001e0>
     * section aren't defined until alt_load() has been called).
     */
    mov   et, zero
#endif

    call alt_load
100001ec:	000ef180 	call	1000ef18 <alt_load>

    /* Log that alt_main is about to be called. */
    ALT_LOG_PUTS(alt_log_msg_alt_main)

    /* Call the C entry point. It should never return. */
    call alt_main
100001f0:	000f0c40 	call	1000f0c4 <alt_main>

100001f4 <alt_after_alt_main>:

    /* Wait in infinite loop in case alt_main does return. */
alt_after_alt_main:
    br alt_after_alt_main
100001f4:	003fff06 	br	100001f4 <__alt_data_end+0xf80001f4>

100001f8 <IO_init>:
#define otg_hpi_cs			(volatile char*)	0x60 //FOR SOME REASON CS BASE BEHAVES WEIRDLY MIGHT HAVE TO SET MANUALLY
#define otg_hpi_w			(volatile char*)	0x20


void IO_init(void)
{
100001f8:	deffff04 	addi	sp,sp,-4
100001fc:	df000015 	stw	fp,0(sp)
10000200:	d839883a 	mov	fp,sp
	*otg_hpi_cs = 1;
10000204:	00801804 	movi	r2,96
10000208:	00c00044 	movi	r3,1
1000020c:	10c00005 	stb	r3,0(r2)
	*otg_hpi_r = 1;
10000210:	00800c04 	movi	r2,48
10000214:	00c00044 	movi	r3,1
10000218:	10c00005 	stb	r3,0(r2)
	*otg_hpi_w = 1;
1000021c:	00800804 	movi	r2,32
10000220:	00c00044 	movi	r3,1
10000224:	10c00005 	stb	r3,0(r2)
	*otg_hpi_address = 0;
10000228:	00801404 	movi	r2,80
1000022c:	10000015 	stw	zero,0(r2)
	*otg_hpi_data = 0;
10000230:	00801004 	movi	r2,64
10000234:	10000015 	stw	zero,0(r2)
}
10000238:	e037883a 	mov	sp,fp
1000023c:	df000017 	ldw	fp,0(sp)
10000240:	dec00104 	addi	sp,sp,4
10000244:	f800283a 	ret

10000248 <IO_write>:

void IO_write(alt_u8 Address, alt_u16 Data)
{
10000248:	defffd04 	addi	sp,sp,-12
1000024c:	df000215 	stw	fp,8(sp)
10000250:	df000204 	addi	fp,sp,8
10000254:	2007883a 	mov	r3,r4
10000258:	2805883a 	mov	r2,r5
1000025c:	e0fffe05 	stb	r3,-8(fp)
10000260:	e0bfff0d 	sth	r2,-4(fp)
//*************************************************************************//
//									TASK								   //
//*************************************************************************//
//							Write this function							   //
//*************************************************************************//
	*otg_hpi_address = Address;
10000264:	00801404 	movi	r2,80
10000268:	e0fffe03 	ldbu	r3,-8(fp)
1000026c:	10c00015 	stw	r3,0(r2)
	*otg_hpi_cs = 0;
10000270:	00801804 	movi	r2,96
10000274:	10000005 	stb	zero,0(r2)
	*otg_hpi_w = 0;
10000278:	00800804 	movi	r2,32
1000027c:	10000005 	stb	zero,0(r2)
	*otg_hpi_data = Data;
10000280:	00801004 	movi	r2,64
10000284:	e0ffff0b 	ldhu	r3,-4(fp)
10000288:	10c00015 	stw	r3,0(r2)
	*otg_hpi_w = 1;
1000028c:	00800804 	movi	r2,32
10000290:	00c00044 	movi	r3,1
10000294:	10c00005 	stb	r3,0(r2)
	*otg_hpi_cs = 1;
10000298:	00801804 	movi	r2,96
1000029c:	00c00044 	movi	r3,1
100002a0:	10c00005 	stb	r3,0(r2)


	//printf("writing to %x\n", (int) otg_hpi_address+Address);
}
100002a4:	e037883a 	mov	sp,fp
100002a8:	df000017 	ldw	fp,0(sp)
100002ac:	dec00104 	addi	sp,sp,4
100002b0:	f800283a 	ret

100002b4 <IO_read>:

alt_u16 IO_read(alt_u8 Address)
{
100002b4:	defffd04 	addi	sp,sp,-12
100002b8:	df000215 	stw	fp,8(sp)
100002bc:	df000204 	addi	fp,sp,8
100002c0:	2005883a 	mov	r2,r4
100002c4:	e0bfff05 	stb	r2,-4(fp)
//*************************************************************************//
//							Write this function							   //
//*************************************************************************//
	//printf("%x\n",temp);
	//printf("reading from %x\n", (int) otg_hpi_address+Address);
	*otg_hpi_address = Address;
100002c8:	00801404 	movi	r2,80
100002cc:	e0ffff03 	ldbu	r3,-4(fp)
100002d0:	10c00015 	stw	r3,0(r2)
	*otg_hpi_cs = 0;
100002d4:	00801804 	movi	r2,96
100002d8:	10000005 	stb	zero,0(r2)
	*otg_hpi_r = 0;
100002dc:	00800c04 	movi	r2,48
100002e0:	10000005 	stb	zero,0(r2)
	alt_u16 temp = *otg_hpi_data;
100002e4:	00801004 	movi	r2,64
100002e8:	10800017 	ldw	r2,0(r2)
100002ec:	e0bffe0d 	sth	r2,-8(fp)
	*otg_hpi_r = 1;
100002f0:	00800c04 	movi	r2,48
100002f4:	00c00044 	movi	r3,1
100002f8:	10c00005 	stb	r3,0(r2)
	*otg_hpi_cs = 1;
100002fc:	00801804 	movi	r2,96
10000300:	00c00044 	movi	r3,1
10000304:	10c00005 	stb	r3,0(r2)

	return temp;
10000308:	e0bffe0b 	ldhu	r2,-8(fp)
}
1000030c:	e037883a 	mov	sp,fp
10000310:	df000017 	ldw	fp,0(sp)
10000314:	dec00104 	addi	sp,sp,4
10000318:	f800283a 	ret

1000031c <main>:
//
//                                Main function
//
//----------------------------------------------------------------------------------------//
int main(void)
{
1000031c:	defff604 	addi	sp,sp,-40
10000320:	dfc00915 	stw	ra,36(sp)
10000324:	df000815 	stw	fp,32(sp)
10000328:	df000804 	addi	fp,sp,32
	IO_init();
1000032c:	00001f80 	call	100001f8 <IO_init>
	volatile unsigned int *KEYS11 = (unsigned int *) 0x10;
10000330:	00800404 	movi	r2,16
10000334:	e0bff915 	stw	r2,-28(fp)
	*KEYS11 = 0x22;
10000338:	e0bff917 	ldw	r2,-28(fp)
1000033c:	00c00884 	movi	r3,34
10000340:	10c00015 	stw	r3,0(r2)

	alt_u16 intStat;
	alt_u16 usb_ctl_val;
	static alt_u16 ctl_reg = 0;
	static alt_u16 no_device = 0;
	alt_u16 fs_device = 0;
10000344:	e03ffa0d 	sth	zero,-24(fp)
	int keycode = 0;
10000348:	e03ffb15 	stw	zero,-20(fp)
	alt_u8 toggle = 0;
1000034c:	e03ff885 	stb	zero,-30(fp)
	alt_u8 data_size;
	alt_u8 hot_plug_count;
	alt_u16 code;

	printf("USB keyboard setup...\n\n");
10000350:	01040074 	movhi	r4,4097
10000354:	2104e804 	addi	r4,r4,5024
10000358:	00023180 	call	10002318 <puts>

	//----------------------------------------SIE1 initial---------------------------------------------------//
	USB_HOT_PLUG:
	UsbSoftReset();
1000035c:	000114c0 	call	1000114c <UsbSoftReset>
	//printf("trying some shit\n");
	//int result = UsbRead(0xC0C8);
	//printf("result was %x\n", result);

	// STEP 1a:
	UsbWrite (HPI_SIE1_MSG_ADR, 0);
10000360:	01005104 	movi	r4,324
10000364:	000b883a 	mov	r5,zero
10000368:	00010ac0 	call	100010ac <UsbWrite>
	UsbWrite (HOST1_STAT_REG, 0xFFFF);
1000036c:	01302414 	movui	r4,49296
10000370:	017fffd4 	movui	r5,65535
10000374:	00010ac0 	call	100010ac <UsbWrite>

	/* Set HUSB_pEOT time */
	UsbWrite(HUSB_pEOT, 600); // adjust the according to your USB device speed
10000378:	01006d04 	movi	r4,436
1000037c:	01409604 	movi	r5,600
10000380:	00010ac0 	call	100010ac <UsbWrite>

	usb_ctl_val = SOFEOP1_TO_CPU_EN | RESUME1_TO_HPI_EN;// | SOFEOP1_TO_HPI_EN;
10000384:	00811004 	movi	r2,1088
10000388:	e0bff80d 	sth	r2,-32(fp)
	UsbWrite(HPI_IRQ_ROUTING_REG, usb_ctl_val);
1000038c:	e0bff80b 	ldhu	r2,-32(fp)
10000390:	01005084 	movi	r4,322
10000394:	100b883a 	mov	r5,r2
10000398:	00010ac0 	call	100010ac <UsbWrite>

	intStat = A_CHG_IRQ_EN | SOF_EOP_IRQ_EN ;
1000039c:	00808404 	movi	r2,528
100003a0:	e0bffc0d 	sth	r2,-16(fp)
	UsbWrite(HOST1_IRQ_EN_REG, intStat);
100003a4:	e0bffc0b 	ldhu	r2,-16(fp)
100003a8:	01302314 	movui	r4,49292
100003ac:	100b883a 	mov	r5,r2
100003b0:	00010ac0 	call	100010ac <UsbWrite>
	// STEP 1a end

	// STEP 1b begin
	UsbWrite(COMM_R0,0x0000);//reset time
100003b4:	01007104 	movi	r4,452
100003b8:	000b883a 	mov	r5,zero
100003bc:	00010ac0 	call	100010ac <UsbWrite>
	UsbWrite(COMM_R1,0x0000);  //port number
100003c0:	01007184 	movi	r4,454
100003c4:	000b883a 	mov	r5,zero
100003c8:	00010ac0 	call	100010ac <UsbWrite>
	UsbWrite(COMM_R2,0x0000);  //r1
100003cc:	01007204 	movi	r4,456
100003d0:	000b883a 	mov	r5,zero
100003d4:	00010ac0 	call	100010ac <UsbWrite>
	UsbWrite(COMM_R3,0x0000);  //r1
100003d8:	01007284 	movi	r4,458
100003dc:	000b883a 	mov	r5,zero
100003e0:	00010ac0 	call	100010ac <UsbWrite>
	UsbWrite(COMM_R4,0x0000);  //r1
100003e4:	01007304 	movi	r4,460
100003e8:	000b883a 	mov	r5,zero
100003ec:	00010ac0 	call	100010ac <UsbWrite>
	UsbWrite(COMM_R5,0x0000);  //r1
100003f0:	01007384 	movi	r4,462
100003f4:	000b883a 	mov	r5,zero
100003f8:	00010ac0 	call	100010ac <UsbWrite>
	UsbWrite(COMM_R6,0x0000);  //r1
100003fc:	01007404 	movi	r4,464
10000400:	000b883a 	mov	r5,zero
10000404:	00010ac0 	call	100010ac <UsbWrite>
	UsbWrite(COMM_R7,0x0000);  //r1
10000408:	01007484 	movi	r4,466
1000040c:	000b883a 	mov	r5,zero
10000410:	00010ac0 	call	100010ac <UsbWrite>
	UsbWrite(COMM_R8,0x0000);  //r1
10000414:	01007504 	movi	r4,468
10000418:	000b883a 	mov	r5,zero
1000041c:	00010ac0 	call	100010ac <UsbWrite>
	UsbWrite(COMM_R9,0x0000);  //r1
10000420:	01007584 	movi	r4,470
10000424:	000b883a 	mov	r5,zero
10000428:	00010ac0 	call	100010ac <UsbWrite>
	UsbWrite(COMM_R10,0x0000);  //r1
1000042c:	01007604 	movi	r4,472
10000430:	000b883a 	mov	r5,zero
10000434:	00010ac0 	call	100010ac <UsbWrite>
	UsbWrite(COMM_R11,0x0000);  //r1
10000438:	01007684 	movi	r4,474
1000043c:	000b883a 	mov	r5,zero
10000440:	00010ac0 	call	100010ac <UsbWrite>
	UsbWrite(COMM_R12,0x0000);  //r1
10000444:	01007704 	movi	r4,476
10000448:	000b883a 	mov	r5,zero
1000044c:	00010ac0 	call	100010ac <UsbWrite>
	UsbWrite(COMM_R13,0x0000);  //r1
10000450:	01007784 	movi	r4,478
10000454:	000b883a 	mov	r5,zero
10000458:	00010ac0 	call	100010ac <UsbWrite>
	UsbWrite(COMM_INT_NUM,HUSB_SIE1_INIT_INT); //HUSB_SIE1_INIT_INT
1000045c:	01007084 	movi	r4,450
10000460:	01401c84 	movi	r5,114
10000464:	00010ac0 	call	100010ac <UsbWrite>
	IO_write(HPI_MAILBOX,COMM_EXEC_INT);
10000468:	01000044 	movi	r4,1
1000046c:	01738054 	movui	r5,52737
10000470:	00002480 	call	10000248 <IO_write>

	while (!(IO_read(HPI_STATUS) & 0xFFFF) )  //read sie1 msg register
10000474:	0001883a 	nop
10000478:	010000c4 	movi	r4,3
1000047c:	00002b40 	call	100002b4 <IO_read>
10000480:	10bfffcc 	andi	r2,r2,65535
10000484:	103ffc26 	beq	r2,zero,10000478 <__alt_data_end+0xf8000478>
	{
		//printf("reading...\n");
	}
	while (IO_read(HPI_MAILBOX) != COMM_ACK)
10000488:	0001883a 	nop
1000048c:	01000044 	movi	r4,1
10000490:	00002b40 	call	100002b4 <IO_read>
10000494:	10bfffcc 	andi	r2,r2,65535
10000498:	1083fb58 	cmpnei	r2,r2,4077
1000049c:	10000826 	beq	r2,zero,100004c0 <main+0x1a4>
	{
		printf("[ERROR]:routine mailbox data is %x\n",IO_read(HPI_MAILBOX));
100004a0:	01000044 	movi	r4,1
100004a4:	00002b40 	call	100002b4 <IO_read>
100004a8:	10bfffcc 	andi	r2,r2,65535
100004ac:	01040074 	movhi	r4,4097
100004b0:	2104ee04 	addi	r4,r4,5048
100004b4:	100b883a 	mov	r5,r2
100004b8:	00022240 	call	10002224 <printf>
		goto USB_HOT_PLUG;
100004bc:	003fa706 	br	1000035c <__alt_data_end+0xf800035c>
	}
	// STEP 1b end

	printf("STEP 1 Complete");
100004c0:	01040074 	movhi	r4,4097
100004c4:	2104f704 	addi	r4,r4,5084
100004c8:	00022240 	call	10002224 <printf>
	// STEP 2 begin
	UsbWrite(COMM_INT_NUM,HUSB_RESET_INT); //husb reset
100004cc:	01007084 	movi	r4,450
100004d0:	01401d04 	movi	r5,116
100004d4:	00010ac0 	call	100010ac <UsbWrite>
	UsbWrite(COMM_R0,0x003c);//reset time
100004d8:	01007104 	movi	r4,452
100004dc:	01400f04 	movi	r5,60
100004e0:	00010ac0 	call	100010ac <UsbWrite>
	UsbWrite(COMM_R1,0x0000);  //port number
100004e4:	01007184 	movi	r4,454
100004e8:	000b883a 	mov	r5,zero
100004ec:	00010ac0 	call	100010ac <UsbWrite>
	UsbWrite(COMM_R2,0x0000);  //r1
100004f0:	01007204 	movi	r4,456
100004f4:	000b883a 	mov	r5,zero
100004f8:	00010ac0 	call	100010ac <UsbWrite>
	UsbWrite(COMM_R3,0x0000);  //r1
100004fc:	01007284 	movi	r4,458
10000500:	000b883a 	mov	r5,zero
10000504:	00010ac0 	call	100010ac <UsbWrite>
	UsbWrite(COMM_R4,0x0000);  //r1
10000508:	01007304 	movi	r4,460
1000050c:	000b883a 	mov	r5,zero
10000510:	00010ac0 	call	100010ac <UsbWrite>
	UsbWrite(COMM_R5,0x0000);  //r1
10000514:	01007384 	movi	r4,462
10000518:	000b883a 	mov	r5,zero
1000051c:	00010ac0 	call	100010ac <UsbWrite>
	UsbWrite(COMM_R6,0x0000);  //r1
10000520:	01007404 	movi	r4,464
10000524:	000b883a 	mov	r5,zero
10000528:	00010ac0 	call	100010ac <UsbWrite>
	UsbWrite(COMM_R7,0x0000);  //r1
1000052c:	01007484 	movi	r4,466
10000530:	000b883a 	mov	r5,zero
10000534:	00010ac0 	call	100010ac <UsbWrite>
	UsbWrite(COMM_R8,0x0000);  //r1
10000538:	01007504 	movi	r4,468
1000053c:	000b883a 	mov	r5,zero
10000540:	00010ac0 	call	100010ac <UsbWrite>
	UsbWrite(COMM_R9,0x0000);  //r1
10000544:	01007584 	movi	r4,470
10000548:	000b883a 	mov	r5,zero
1000054c:	00010ac0 	call	100010ac <UsbWrite>
	UsbWrite(COMM_R10,0x0000);  //r1
10000550:	01007604 	movi	r4,472
10000554:	000b883a 	mov	r5,zero
10000558:	00010ac0 	call	100010ac <UsbWrite>
	UsbWrite(COMM_R11,0x0000);  //r1
1000055c:	01007684 	movi	r4,474
10000560:	000b883a 	mov	r5,zero
10000564:	00010ac0 	call	100010ac <UsbWrite>
	UsbWrite(COMM_R12,0x0000);  //r1
10000568:	01007704 	movi	r4,476
1000056c:	000b883a 	mov	r5,zero
10000570:	00010ac0 	call	100010ac <UsbWrite>
	UsbWrite(COMM_R13,0x0000);  //r1
10000574:	01007784 	movi	r4,478
10000578:	000b883a 	mov	r5,zero
1000057c:	00010ac0 	call	100010ac <UsbWrite>

	IO_write(HPI_MAILBOX,COMM_EXEC_INT);
10000580:	01000044 	movi	r4,1
10000584:	01738054 	movui	r5,52737
10000588:	00002480 	call	10000248 <IO_write>

	while (IO_read(HPI_MAILBOX) != COMM_ACK)
1000058c:	0001883a 	nop
10000590:	01000044 	movi	r4,1
10000594:	00002b40 	call	100002b4 <IO_read>
10000598:	10bfffcc 	andi	r2,r2,65535
1000059c:	1083fb58 	cmpnei	r2,r2,4077
100005a0:	10000826 	beq	r2,zero,100005c4 <main+0x2a8>
	{
		printf("[ERROR]:routine mailbox data is %x\n",IO_read(HPI_MAILBOX));
100005a4:	01000044 	movi	r4,1
100005a8:	00002b40 	call	100002b4 <IO_read>
100005ac:	10bfffcc 	andi	r2,r2,65535
100005b0:	01040074 	movhi	r4,4097
100005b4:	2104ee04 	addi	r4,r4,5048
100005b8:	100b883a 	mov	r5,r2
100005bc:	00022240 	call	10002224 <printf>
		goto USB_HOT_PLUG;
100005c0:	003f6606 	br	1000035c <__alt_data_end+0xf800035c>
	}
	// STEP 2 end

	ctl_reg = USB1_CTL_REG;
100005c4:	00b02284 	movi	r2,-16246
100005c8:	d0a6cb0d 	sth	r2,-25812(gp)
	no_device = (A_DP_STAT | A_DM_STAT);
100005cc:	008c0004 	movi	r2,12288
100005d0:	d0a6cb8d 	sth	r2,-25810(gp)
	fs_device = A_DP_STAT;
100005d4:	00880004 	movi	r2,8192
100005d8:	e0bffa0d 	sth	r2,-24(fp)
	usb_ctl_val = UsbRead(ctl_reg);
100005dc:	d0a6cb0b 	ldhu	r2,-25812(gp)
100005e0:	10bfffcc 	andi	r2,r2,65535
100005e4:	1009883a 	mov	r4,r2
100005e8:	00011000 	call	10001100 <UsbRead>
100005ec:	e0bff80d 	sth	r2,-32(fp)

	if (!(usb_ctl_val & no_device))
100005f0:	d0a6cb8b 	ldhu	r2,-25810(gp)
100005f4:	e0fff80b 	ldhu	r3,-32(fp)
100005f8:	1884703a 	and	r2,r3,r2
100005fc:	10bfffcc 	andi	r2,r2,65535
10000600:	1000341e 	bne	r2,zero,100006d4 <main+0x3b8>
	{
		for(hot_plug_count = 0 ; hot_plug_count < 5 ; hot_plug_count++)
10000604:	e03ff8c5 	stb	zero,-29(fp)
10000608:	00001006 	br	1000064c <main+0x330>
		{
			usleep(5*1000);
1000060c:	0104e204 	movi	r4,5000
10000610:	000f4000 	call	1000f400 <usleep>
			usb_ctl_val = UsbRead(ctl_reg);
10000614:	d0a6cb0b 	ldhu	r2,-25812(gp)
10000618:	10bfffcc 	andi	r2,r2,65535
1000061c:	1009883a 	mov	r4,r2
10000620:	00011000 	call	10001100 <UsbRead>
10000624:	e0bff80d 	sth	r2,-32(fp)
			if(usb_ctl_val & no_device) break;
10000628:	d0a6cb8b 	ldhu	r2,-25810(gp)
1000062c:	e0fff80b 	ldhu	r3,-32(fp)
10000630:	1884703a 	and	r2,r3,r2
10000634:	10bfffcc 	andi	r2,r2,65535
10000638:	10000126 	beq	r2,zero,10000640 <main+0x324>
1000063c:	00000606 	br	10000658 <main+0x33c>
	fs_device = A_DP_STAT;
	usb_ctl_val = UsbRead(ctl_reg);

	if (!(usb_ctl_val & no_device))
	{
		for(hot_plug_count = 0 ; hot_plug_count < 5 ; hot_plug_count++)
10000640:	e0bff8c3 	ldbu	r2,-29(fp)
10000644:	10800044 	addi	r2,r2,1
10000648:	e0bff8c5 	stb	r2,-29(fp)
1000064c:	e0bff8c3 	ldbu	r2,-29(fp)
10000650:	10800170 	cmpltui	r2,r2,5
10000654:	103fed1e 	bne	r2,zero,1000060c <__alt_data_end+0xf800060c>
		{
			usleep(5*1000);
			usb_ctl_val = UsbRead(ctl_reg);
			if(usb_ctl_val & no_device) break;
		}
		if(!(usb_ctl_val & no_device))
10000658:	d0a6cb8b 	ldhu	r2,-25810(gp)
1000065c:	e0fff80b 	ldhu	r3,-32(fp)
10000660:	1884703a 	and	r2,r3,r2
10000664:	10bfffcc 	andi	r2,r2,65535
10000668:	1000261e 	bne	r2,zero,10000704 <main+0x3e8>
		{
			printf("\n[INFO]: no device is present in SIE1!\n");
1000066c:	01040074 	movhi	r4,4097
10000670:	2104fb04 	addi	r4,r4,5100
10000674:	00023180 	call	10002318 <puts>
			printf("[INFO]: please insert a USB keyboard in SIE1!\n");
10000678:	01040074 	movhi	r4,4097
1000067c:	21050504 	addi	r4,r4,5140
10000680:	00023180 	call	10002318 <puts>
			while (!(usb_ctl_val & no_device))
10000684:	00000d06 	br	100006bc <main+0x3a0>
			{
				usb_ctl_val = UsbRead(ctl_reg);
10000688:	d0a6cb0b 	ldhu	r2,-25812(gp)
1000068c:	10bfffcc 	andi	r2,r2,65535
10000690:	1009883a 	mov	r4,r2
10000694:	00011000 	call	10001100 <UsbRead>
10000698:	e0bff80d 	sth	r2,-32(fp)
				if(usb_ctl_val & no_device)
1000069c:	d0a6cb8b 	ldhu	r2,-25810(gp)
100006a0:	e0fff80b 	ldhu	r3,-32(fp)
100006a4:	1884703a 	and	r2,r3,r2
100006a8:	10bfffcc 	andi	r2,r2,65535
100006ac:	10000126 	beq	r2,zero,100006b4 <main+0x398>
					goto USB_HOT_PLUG;
100006b0:	003f2a06 	br	1000035c <__alt_data_end+0xf800035c>

				usleep(2000);
100006b4:	0101f404 	movi	r4,2000
100006b8:	000f4000 	call	1000f400 <usleep>
		}
		if(!(usb_ctl_val & no_device))
		{
			printf("\n[INFO]: no device is present in SIE1!\n");
			printf("[INFO]: please insert a USB keyboard in SIE1!\n");
			while (!(usb_ctl_val & no_device))
100006bc:	d0a6cb8b 	ldhu	r2,-25810(gp)
100006c0:	e0fff80b 	ldhu	r3,-32(fp)
100006c4:	1884703a 	and	r2,r3,r2
100006c8:	10bfffcc 	andi	r2,r2,65535
100006cc:	103fee26 	beq	r2,zero,10000688 <__alt_data_end+0xf8000688>
100006d0:	00000c06 	br	10000704 <main+0x3e8>
		}
	}
	else
	{
		/* check for low speed or full speed by reading D+ and D- lines */
		if (usb_ctl_val & fs_device)
100006d4:	e0fff80b 	ldhu	r3,-32(fp)
100006d8:	e0bffa0b 	ldhu	r2,-24(fp)
100006dc:	1884703a 	and	r2,r3,r2
100006e0:	10bfffcc 	andi	r2,r2,65535
100006e4:	10000426 	beq	r2,zero,100006f8 <main+0x3dc>
		{
			printf("[INFO]: full speed device\n");
100006e8:	01040074 	movhi	r4,4097
100006ec:	21051104 	addi	r4,r4,5188
100006f0:	00023180 	call	10002318 <puts>
100006f4:	00000306 	br	10000704 <main+0x3e8>
		}
		else
		{
			printf("[INFO]: low speed device\n");
100006f8:	01040074 	movhi	r4,4097
100006fc:	21051804 	addi	r4,r4,5216
10000700:	00023180 	call	10002318 <puts>



	// STEP 3 begin
	//------------------------------------------------------set address -----------------------------------------------------------------
	UsbSetAddress();
10000704:	00011fc0 	call	100011fc <UsbSetAddress>

	while (!(IO_read(HPI_STATUS) & HPI_STATUS_SIE1msg_FLAG) )  //read sie1 msg register
10000708:	00000306 	br	10000718 <main+0x3fc>
	{
		UsbSetAddress();
1000070c:	00011fc0 	call	100011fc <UsbSetAddress>
		usleep(10*1000);
10000710:	0109c404 	movi	r4,10000
10000714:	000f4000 	call	1000f400 <usleep>

	// STEP 3 begin
	//------------------------------------------------------set address -----------------------------------------------------------------
	UsbSetAddress();

	while (!(IO_read(HPI_STATUS) & HPI_STATUS_SIE1msg_FLAG) )  //read sie1 msg register
10000718:	010000c4 	movi	r4,3
1000071c:	00002b40 	call	100002b4 <IO_read>
10000720:	10bfffcc 	andi	r2,r2,65535
10000724:	1080040c 	andi	r2,r2,16
10000728:	103ff826 	beq	r2,zero,1000070c <__alt_data_end+0xf800070c>
	{
		UsbSetAddress();
		usleep(10*1000);
	}

	UsbWaitTDListDone();
1000072c:	00020780 	call	10002078 <UsbWaitTDListDone>

	IO_write(HPI_ADDR,0x0506); // i
10000730:	01000084 	movi	r4,2
10000734:	01414184 	movi	r5,1286
10000738:	00002480 	call	10000248 <IO_write>
	printf("[ENUM PROCESS]:step 3 TD Status Byte is %x\n",IO_read(HPI_DATA));
1000073c:	0009883a 	mov	r4,zero
10000740:	00002b40 	call	100002b4 <IO_read>
10000744:	10bfffcc 	andi	r2,r2,65535
10000748:	01040074 	movhi	r4,4097
1000074c:	21051f04 	addi	r4,r4,5244
10000750:	100b883a 	mov	r5,r2
10000754:	00022240 	call	10002224 <printf>

	IO_write(HPI_ADDR,0x0508); // n
10000758:	01000084 	movi	r4,2
1000075c:	01414204 	movi	r5,1288
10000760:	00002480 	call	10000248 <IO_write>
	usb_ctl_val = IO_read(HPI_DATA);
10000764:	0009883a 	mov	r4,zero
10000768:	00002b40 	call	100002b4 <IO_read>
1000076c:	e0bff80d 	sth	r2,-32(fp)
	printf("[ENUM PROCESS]:step 3 TD Control Byte is %x\n",usb_ctl_val);
10000770:	e0bff80b 	ldhu	r2,-32(fp)
10000774:	01040074 	movhi	r4,4097
10000778:	21052a04 	addi	r4,r4,5288
1000077c:	100b883a 	mov	r5,r2
10000780:	00022240 	call	10002224 <printf>
	while (usb_ctl_val != 0x03) // retries occurred
10000784:	e0bff80b 	ldhu	r2,-32(fp)
10000788:	108000e0 	cmpeqi	r2,r2,3
1000078c:	1000031e 	bne	r2,zero,1000079c <main+0x480>
	{
		usb_ctl_val = UsbGetRetryCnt();
10000790:	00020fc0 	call	100020fc <UsbGetRetryCnt>
10000794:	e0bff80d 	sth	r2,-32(fp)

		goto USB_HOT_PLUG;
10000798:	003ef006 	br	1000035c <__alt_data_end+0xf800035c>
	}

	printf("------------[ENUM PROCESS]:set address done!---------------\n");
1000079c:	01040074 	movhi	r4,4097
100007a0:	21053604 	addi	r4,r4,5336
100007a4:	00023180 	call	10002318 <puts>

	// STEP 4 begin
	//-------------------------------get device descriptor-1 -----------------------------------//
	// TASK: Call the appropriate function for this step.
	UsbGetDeviceDesc1(); 	// Get Device Descriptor -1
100007a8:	00012f80 	call	100012f8 <UsbGetDeviceDesc1>

	//usleep(10*1000);
	while (!(IO_read(HPI_STATUS) & HPI_STATUS_SIE1msg_FLAG) )  //read sie1 msg register
100007ac:	00000306 	br	100007bc <main+0x4a0>
	{
		// TASK: Call the appropriate function again if it wasn't processed successfully.
		UsbGetDeviceDesc1();
100007b0:	00012f80 	call	100012f8 <UsbGetDeviceDesc1>
		usleep(10*1000);
100007b4:	0109c404 	movi	r4,10000
100007b8:	000f4000 	call	1000f400 <usleep>
	//-------------------------------get device descriptor-1 -----------------------------------//
	// TASK: Call the appropriate function for this step.
	UsbGetDeviceDesc1(); 	// Get Device Descriptor -1

	//usleep(10*1000);
	while (!(IO_read(HPI_STATUS) & HPI_STATUS_SIE1msg_FLAG) )  //read sie1 msg register
100007bc:	010000c4 	movi	r4,3
100007c0:	00002b40 	call	100002b4 <IO_read>
100007c4:	10bfffcc 	andi	r2,r2,65535
100007c8:	1080040c 	andi	r2,r2,16
100007cc:	103ff826 	beq	r2,zero,100007b0 <__alt_data_end+0xf80007b0>
		// TASK: Call the appropriate function again if it wasn't processed successfully.
		UsbGetDeviceDesc1();
		usleep(10*1000);
	}

	UsbWaitTDListDone();
100007d0:	00020780 	call	10002078 <UsbWaitTDListDone>

	IO_write(HPI_ADDR,0x0506);
100007d4:	01000084 	movi	r4,2
100007d8:	01414184 	movi	r5,1286
100007dc:	00002480 	call	10000248 <IO_write>
	printf("[ENUM PROCESS]:step 4 TD Status Byte is %x\n",IO_read(HPI_DATA));
100007e0:	0009883a 	mov	r4,zero
100007e4:	00002b40 	call	100002b4 <IO_read>
100007e8:	10bfffcc 	andi	r2,r2,65535
100007ec:	01040074 	movhi	r4,4097
100007f0:	21054504 	addi	r4,r4,5396
100007f4:	100b883a 	mov	r5,r2
100007f8:	00022240 	call	10002224 <printf>

	IO_write(HPI_ADDR,0x0508);
100007fc:	01000084 	movi	r4,2
10000800:	01414204 	movi	r5,1288
10000804:	00002480 	call	10000248 <IO_write>
	usb_ctl_val = IO_read(HPI_DATA);
10000808:	0009883a 	mov	r4,zero
1000080c:	00002b40 	call	100002b4 <IO_read>
10000810:	e0bff80d 	sth	r2,-32(fp)
	printf("[ENUM PROCESS]:step 4 TD Control Byte is %x\n",usb_ctl_val);
10000814:	e0bff80b 	ldhu	r2,-32(fp)
10000818:	01040074 	movhi	r4,4097
1000081c:	21055004 	addi	r4,r4,5440
10000820:	100b883a 	mov	r5,r2
10000824:	00022240 	call	10002224 <printf>
	while (usb_ctl_val != 0x03)
10000828:	00000206 	br	10000834 <main+0x518>
	{
		usb_ctl_val = UsbGetRetryCnt();
1000082c:	00020fc0 	call	100020fc <UsbGetRetryCnt>
10000830:	e0bff80d 	sth	r2,-32(fp)
	printf("[ENUM PROCESS]:step 4 TD Status Byte is %x\n",IO_read(HPI_DATA));

	IO_write(HPI_ADDR,0x0508);
	usb_ctl_val = IO_read(HPI_DATA);
	printf("[ENUM PROCESS]:step 4 TD Control Byte is %x\n",usb_ctl_val);
	while (usb_ctl_val != 0x03)
10000834:	e0bff80b 	ldhu	r2,-32(fp)
10000838:	108000d8 	cmpnei	r2,r2,3
1000083c:	103ffb1e 	bne	r2,zero,1000082c <__alt_data_end+0xf800082c>
	{
		usb_ctl_val = UsbGetRetryCnt();
	}

	printf("---------------[ENUM PROCESS]:get device descriptor-1 done!-----------------\n");
10000840:	01040074 	movhi	r4,4097
10000844:	21055c04 	addi	r4,r4,5488
10000848:	00023180 	call	10002318 <puts>


	//--------------------------------get device descriptor-2---------------------------------------------//
	//get device descriptor
	// TASK: Call the appropriate function for this step.
	UsbGetDeviceDesc2(); 	// Get Device Descriptor -2
1000084c:	000143c0 	call	1000143c <UsbGetDeviceDesc2>

	//if no message
	while (!(IO_read(HPI_STATUS) & HPI_STATUS_SIE1msg_FLAG) )  //read sie1 msg register
10000850:	00000306 	br	10000860 <main+0x544>
	{
		//resend the get device descriptor
		//get device descriptor
		// TASK: Call the appropriate function again if it wasn't processed successfully.
		UsbGetDeviceDesc2();
10000854:	000143c0 	call	1000143c <UsbGetDeviceDesc2>
		usleep(10*1000);
10000858:	0109c404 	movi	r4,10000
1000085c:	000f4000 	call	1000f400 <usleep>
	//get device descriptor
	// TASK: Call the appropriate function for this step.
	UsbGetDeviceDesc2(); 	// Get Device Descriptor -2

	//if no message
	while (!(IO_read(HPI_STATUS) & HPI_STATUS_SIE1msg_FLAG) )  //read sie1 msg register
10000860:	010000c4 	movi	r4,3
10000864:	00002b40 	call	100002b4 <IO_read>
10000868:	10bfffcc 	andi	r2,r2,65535
1000086c:	1080040c 	andi	r2,r2,16
10000870:	103ff826 	beq	r2,zero,10000854 <__alt_data_end+0xf8000854>
		// TASK: Call the appropriate function again if it wasn't processed successfully.
		UsbGetDeviceDesc2();
		usleep(10*1000);
	}

	UsbWaitTDListDone();
10000874:	00020780 	call	10002078 <UsbWaitTDListDone>

	IO_write(HPI_ADDR,0x0506);
10000878:	01000084 	movi	r4,2
1000087c:	01414184 	movi	r5,1286
10000880:	00002480 	call	10000248 <IO_write>
	printf("[ENUM PROCESS]:step 4 TD Status Byte is %x\n",IO_read(HPI_DATA));
10000884:	0009883a 	mov	r4,zero
10000888:	00002b40 	call	100002b4 <IO_read>
1000088c:	10bfffcc 	andi	r2,r2,65535
10000890:	01040074 	movhi	r4,4097
10000894:	21054504 	addi	r4,r4,5396
10000898:	100b883a 	mov	r5,r2
1000089c:	00022240 	call	10002224 <printf>

	IO_write(HPI_ADDR,0x0508);
100008a0:	01000084 	movi	r4,2
100008a4:	01414204 	movi	r5,1288
100008a8:	00002480 	call	10000248 <IO_write>
	usb_ctl_val = IO_read(HPI_DATA);
100008ac:	0009883a 	mov	r4,zero
100008b0:	00002b40 	call	100002b4 <IO_read>
100008b4:	e0bff80d 	sth	r2,-32(fp)
	printf("[ENUM PROCESS]:step 4 TD Control Byte is %x\n",usb_ctl_val);
100008b8:	e0bff80b 	ldhu	r2,-32(fp)
100008bc:	01040074 	movhi	r4,4097
100008c0:	21055004 	addi	r4,r4,5440
100008c4:	100b883a 	mov	r5,r2
100008c8:	00022240 	call	10002224 <printf>
	while (usb_ctl_val != 0x03)
100008cc:	00000206 	br	100008d8 <main+0x5bc>
	{
		usb_ctl_val = UsbGetRetryCnt();
100008d0:	00020fc0 	call	100020fc <UsbGetRetryCnt>
100008d4:	e0bff80d 	sth	r2,-32(fp)
	printf("[ENUM PROCESS]:step 4 TD Status Byte is %x\n",IO_read(HPI_DATA));

	IO_write(HPI_ADDR,0x0508);
	usb_ctl_val = IO_read(HPI_DATA);
	printf("[ENUM PROCESS]:step 4 TD Control Byte is %x\n",usb_ctl_val);
	while (usb_ctl_val != 0x03)
100008d8:	e0bff80b 	ldhu	r2,-32(fp)
100008dc:	108000d8 	cmpnei	r2,r2,3
100008e0:	103ffb1e 	bne	r2,zero,100008d0 <__alt_data_end+0xf80008d0>
	{
		usb_ctl_val = UsbGetRetryCnt();
	}

	printf("------------[ENUM PROCESS]:get device descriptor-2 done!--------------\n");
100008e4:	01040074 	movhi	r4,4097
100008e8:	21057004 	addi	r4,r4,5568
100008ec:	00023180 	call	10002318 <puts>


	// STEP 5 begin
	//-----------------------------------get configuration descriptor -1 ----------------------------------//
	// TASK: Call the appropriate function for this step.
	UsbGetConfigDesc1(); 	// Get Configuration Descriptor -1
100008f0:	00016100 	call	10001610 <UsbGetConfigDesc1>

	//if no message
	while (!(IO_read(HPI_STATUS) & HPI_STATUS_SIE1msg_FLAG) )  //read sie1 msg register
100008f4:	00000306 	br	10000904 <main+0x5e8>
	{
		//resend the get device descriptor
		//get device descriptor

		// TASK: Call the appropriate function again if it wasn't processed successfully.
		UsbGetConfigDesc1();
100008f8:	00016100 	call	10001610 <UsbGetConfigDesc1>
		usleep(10*1000);
100008fc:	0109c404 	movi	r4,10000
10000900:	000f4000 	call	1000f400 <usleep>
	//-----------------------------------get configuration descriptor -1 ----------------------------------//
	// TASK: Call the appropriate function for this step.
	UsbGetConfigDesc1(); 	// Get Configuration Descriptor -1

	//if no message
	while (!(IO_read(HPI_STATUS) & HPI_STATUS_SIE1msg_FLAG) )  //read sie1 msg register
10000904:	010000c4 	movi	r4,3
10000908:	00002b40 	call	100002b4 <IO_read>
1000090c:	10bfffcc 	andi	r2,r2,65535
10000910:	1080040c 	andi	r2,r2,16
10000914:	103ff826 	beq	r2,zero,100008f8 <__alt_data_end+0xf80008f8>
		// TASK: Call the appropriate function again if it wasn't processed successfully.
		UsbGetConfigDesc1();
		usleep(10*1000);
	}

	UsbWaitTDListDone();
10000918:	00020780 	call	10002078 <UsbWaitTDListDone>

	IO_write(HPI_ADDR,0x0506);
1000091c:	01000084 	movi	r4,2
10000920:	01414184 	movi	r5,1286
10000924:	00002480 	call	10000248 <IO_write>
	printf("[ENUM PROCESS]:step 5 TD Status Byte is %x\n",IO_read(HPI_DATA));
10000928:	0009883a 	mov	r4,zero
1000092c:	00002b40 	call	100002b4 <IO_read>
10000930:	10bfffcc 	andi	r2,r2,65535
10000934:	01040074 	movhi	r4,4097
10000938:	21058204 	addi	r4,r4,5640
1000093c:	100b883a 	mov	r5,r2
10000940:	00022240 	call	10002224 <printf>

	IO_write(HPI_ADDR,0x0508);
10000944:	01000084 	movi	r4,2
10000948:	01414204 	movi	r5,1288
1000094c:	00002480 	call	10000248 <IO_write>
	usb_ctl_val = IO_read(HPI_DATA);
10000950:	0009883a 	mov	r4,zero
10000954:	00002b40 	call	100002b4 <IO_read>
10000958:	e0bff80d 	sth	r2,-32(fp)
	printf("[ENUM PROCESS]:step 5 TD Control Byte is %x\n",usb_ctl_val);
1000095c:	e0bff80b 	ldhu	r2,-32(fp)
10000960:	01040074 	movhi	r4,4097
10000964:	21058d04 	addi	r4,r4,5684
10000968:	100b883a 	mov	r5,r2
1000096c:	00022240 	call	10002224 <printf>
	while (usb_ctl_val != 0x03)
10000970:	00000206 	br	1000097c <main+0x660>
	{
		usb_ctl_val = UsbGetRetryCnt();
10000974:	00020fc0 	call	100020fc <UsbGetRetryCnt>
10000978:	e0bff80d 	sth	r2,-32(fp)
	printf("[ENUM PROCESS]:step 5 TD Status Byte is %x\n",IO_read(HPI_DATA));

	IO_write(HPI_ADDR,0x0508);
	usb_ctl_val = IO_read(HPI_DATA);
	printf("[ENUM PROCESS]:step 5 TD Control Byte is %x\n",usb_ctl_val);
	while (usb_ctl_val != 0x03)
1000097c:	e0bff80b 	ldhu	r2,-32(fp)
10000980:	108000d8 	cmpnei	r2,r2,3
10000984:	103ffb1e 	bne	r2,zero,10000974 <__alt_data_end+0xf8000974>
	{
		usb_ctl_val = UsbGetRetryCnt();
	}
	printf("------------[ENUM PROCESS]:get configuration descriptor-1 pass------------\n");
10000988:	01040074 	movhi	r4,4097
1000098c:	21059904 	addi	r4,r4,5732
10000990:	00023180 	call	10002318 <puts>

	// STEP 6 begin
	//-----------------------------------get configuration descriptor-2------------------------------------//
	//get device descriptor
	// TASK: Call the appropriate function for this step.
	UsbGetConfigDesc2(); 	// Get Configuration Descriptor -2
10000994:	000179c0 	call	1000179c <UsbGetConfigDesc2>

	usleep(100*1000);
10000998:	010000b4 	movhi	r4,2
1000099c:	2121a804 	addi	r4,r4,-31072
100009a0:	000f4000 	call	1000f400 <usleep>
	//if no message
	while (!(IO_read(HPI_STATUS) & HPI_STATUS_SIE1msg_FLAG) )  //read sie1 msg register
100009a4:	00000306 	br	100009b4 <main+0x698>
	{
		// TASK: Call the appropriate function again if it wasn't processed successfully.
		UsbGetConfigDesc2();
100009a8:	000179c0 	call	1000179c <UsbGetConfigDesc2>
		usleep(10*1000);
100009ac:	0109c404 	movi	r4,10000
100009b0:	000f4000 	call	1000f400 <usleep>
	// TASK: Call the appropriate function for this step.
	UsbGetConfigDesc2(); 	// Get Configuration Descriptor -2

	usleep(100*1000);
	//if no message
	while (!(IO_read(HPI_STATUS) & HPI_STATUS_SIE1msg_FLAG) )  //read sie1 msg register
100009b4:	010000c4 	movi	r4,3
100009b8:	00002b40 	call	100002b4 <IO_read>
100009bc:	10bfffcc 	andi	r2,r2,65535
100009c0:	1080040c 	andi	r2,r2,16
100009c4:	103ff826 	beq	r2,zero,100009a8 <__alt_data_end+0xf80009a8>
		// TASK: Call the appropriate function again if it wasn't processed successfully.
		UsbGetConfigDesc2();
		usleep(10*1000);
	}

	UsbWaitTDListDone();
100009c8:	00020780 	call	10002078 <UsbWaitTDListDone>

	IO_write(HPI_ADDR,0x0506);
100009cc:	01000084 	movi	r4,2
100009d0:	01414184 	movi	r5,1286
100009d4:	00002480 	call	10000248 <IO_write>
	printf("[ENUM PROCESS]:step 6 TD Status Byte is %x\n",IO_read(HPI_DATA));
100009d8:	0009883a 	mov	r4,zero
100009dc:	00002b40 	call	100002b4 <IO_read>
100009e0:	10bfffcc 	andi	r2,r2,65535
100009e4:	01040074 	movhi	r4,4097
100009e8:	2105ac04 	addi	r4,r4,5808
100009ec:	100b883a 	mov	r5,r2
100009f0:	00022240 	call	10002224 <printf>

	IO_write(HPI_ADDR,0x0508);
100009f4:	01000084 	movi	r4,2
100009f8:	01414204 	movi	r5,1288
100009fc:	00002480 	call	10000248 <IO_write>
	usb_ctl_val = IO_read(HPI_DATA);
10000a00:	0009883a 	mov	r4,zero
10000a04:	00002b40 	call	100002b4 <IO_read>
10000a08:	e0bff80d 	sth	r2,-32(fp)
	printf("[ENUM PROCESS]:step 6 TD Control Byte is %x\n",usb_ctl_val);
10000a0c:	e0bff80b 	ldhu	r2,-32(fp)
10000a10:	01040074 	movhi	r4,4097
10000a14:	2105b704 	addi	r4,r4,5852
10000a18:	100b883a 	mov	r5,r2
10000a1c:	00022240 	call	10002224 <printf>
	while (usb_ctl_val != 0x03)
10000a20:	00000206 	br	10000a2c <main+0x710>
	{
		usb_ctl_val = UsbGetRetryCnt();
10000a24:	00020fc0 	call	100020fc <UsbGetRetryCnt>
10000a28:	e0bff80d 	sth	r2,-32(fp)
	printf("[ENUM PROCESS]:step 6 TD Status Byte is %x\n",IO_read(HPI_DATA));

	IO_write(HPI_ADDR,0x0508);
	usb_ctl_val = IO_read(HPI_DATA);
	printf("[ENUM PROCESS]:step 6 TD Control Byte is %x\n",usb_ctl_val);
	while (usb_ctl_val != 0x03)
10000a2c:	e0bff80b 	ldhu	r2,-32(fp)
10000a30:	108000d8 	cmpnei	r2,r2,3
10000a34:	103ffb1e 	bne	r2,zero,10000a24 <__alt_data_end+0xf8000a24>
	{
		usb_ctl_val = UsbGetRetryCnt();
	}


	printf("-----------[ENUM PROCESS]:get configuration descriptor-2 done!------------\n");
10000a38:	01040074 	movhi	r4,4097
10000a3c:	2105c304 	addi	r4,r4,5900
10000a40:	00023180 	call	10002318 <puts>


	// ---------------------------------get device info---------------------------------------------//

	// TASK: Write the address to read from the memory for byte 7 of the interface descriptor to HPI_ADDR.
	IO_write(HPI_ADDR,0x056c);
10000a44:	01000084 	movi	r4,2
10000a48:	01415b04 	movi	r5,1388
10000a4c:	00002480 	call	10000248 <IO_write>
	code = IO_read(HPI_DATA);
10000a50:	0009883a 	mov	r4,zero
10000a54:	00002b40 	call	100002b4 <IO_read>
10000a58:	e0bffc8d 	sth	r2,-14(fp)
	code = code & 0x003;
10000a5c:	e0bffc8b 	ldhu	r2,-14(fp)
10000a60:	108000cc 	andi	r2,r2,3
10000a64:	e0bffc8d 	sth	r2,-14(fp)
	printf("\ncode = %x\n", code);
10000a68:	e0bffc8b 	ldhu	r2,-14(fp)
10000a6c:	01040074 	movhi	r4,4097
10000a70:	2105d604 	addi	r4,r4,5976
10000a74:	100b883a 	mov	r5,r2
10000a78:	00022240 	call	10002224 <printf>

	if (code == 0x01)
10000a7c:	e0bffc8b 	ldhu	r2,-14(fp)
10000a80:	10800058 	cmpnei	r2,r2,1
10000a84:	1000041e 	bne	r2,zero,10000a98 <main+0x77c>
	{
		printf("\n[INFO]:check TD rec data7 \n[INFO]:Keyboard Detected!!!\n\n");
10000a88:	01040074 	movhi	r4,4097
10000a8c:	2105d904 	addi	r4,r4,5988
10000a90:	00023180 	call	10002318 <puts>
10000a94:	00000306 	br	10000aa4 <main+0x788>
	}
	else
	{
		printf("\n[INFO]:Keyboard Not Detected!!! \n\n");
10000a98:	01040074 	movhi	r4,4097
10000a9c:	2105e804 	addi	r4,r4,6048
10000aa0:	00023180 	call	10002318 <puts>
	}

	// TASK: Write the address to read from the memory for the endpoint descriptor to HPI_ADDR.

	IO_write(HPI_ADDR,0x0576);
10000aa4:	01000084 	movi	r4,2
10000aa8:	01415d84 	movi	r5,1398
10000aac:	00002480 	call	10000248 <IO_write>
	IO_write(HPI_DATA,0x073F);
10000ab0:	0009883a 	mov	r4,zero
10000ab4:	0141cfc4 	movi	r5,1855
10000ab8:	00002480 	call	10000248 <IO_write>
	IO_write(HPI_DATA,0x8105);
10000abc:	0009883a 	mov	r4,zero
10000ac0:	01604154 	movui	r5,33029
10000ac4:	00002480 	call	10000248 <IO_write>
	IO_write(HPI_DATA,0x0003);
10000ac8:	0009883a 	mov	r4,zero
10000acc:	014000c4 	movi	r5,3
10000ad0:	00002480 	call	10000248 <IO_write>
	IO_write(HPI_DATA,0x0008);
10000ad4:	0009883a 	mov	r4,zero
10000ad8:	01400204 	movi	r5,8
10000adc:	00002480 	call	10000248 <IO_write>
	IO_write(HPI_DATA,0xAC0A);
10000ae0:	0009883a 	mov	r4,zero
10000ae4:	016b0294 	movui	r5,44042
10000ae8:	00002480 	call	10000248 <IO_write>
	UsbWrite(HUSB_SIE1_pCurrentTDPtr,0x0576); //HUSB_SIE1_pCurrentTDPtr
10000aec:	01006c04 	movi	r4,432
10000af0:	01415d84 	movi	r5,1398
10000af4:	00010ac0 	call	100010ac <UsbWrite>

	//data_size = (IO_read(HPI_DATA)>>8)&0x0ff;
	//data_size = 0x08;//(IO_read(HPI_DATA))&0x0ff;
	//UsbPrintMem();
	IO_write(HPI_ADDR,0x057c);
10000af8:	01000084 	movi	r4,2
10000afc:	01415f04 	movi	r5,1404
10000b00:	00002480 	call	10000248 <IO_write>
	data_size = (IO_read(HPI_DATA))&0x0ff;
10000b04:	0009883a 	mov	r4,zero
10000b08:	00002b40 	call	100002b4 <IO_read>
10000b0c:	e0bffd05 	stb	r2,-12(fp)
	printf("[ENUM PROCESS]:data packet size is %d\n",data_size);
10000b10:	e0bffd03 	ldbu	r2,-12(fp)
10000b14:	01040074 	movhi	r4,4097
10000b18:	2105f104 	addi	r4,r4,6084
10000b1c:	100b883a 	mov	r5,r2
10000b20:	00022240 	call	10002224 <printf>
	// STEP 7 begin
	//------------------------------------set configuration -----------------------------------------//
	// TASK: Call the appropriate function for this step.
	UsbSetConfig();		// Set Configuration
10000b24:	0001a000 	call	10001a00 <UsbSetConfig>

	while (!(IO_read(HPI_STATUS) & HPI_STATUS_SIE1msg_FLAG) )  //read sie1 msg register
10000b28:	00000306 	br	10000b38 <main+0x81c>
	{
		// TASK: Call the appropriate function again if it wasn't processed successfully.
		UsbSetConfig();		// Set Configuration
10000b2c:	0001a000 	call	10001a00 <UsbSetConfig>
		usleep(10*1000);
10000b30:	0109c404 	movi	r4,10000
10000b34:	000f4000 	call	1000f400 <usleep>
	// STEP 7 begin
	//------------------------------------set configuration -----------------------------------------//
	// TASK: Call the appropriate function for this step.
	UsbSetConfig();		// Set Configuration

	while (!(IO_read(HPI_STATUS) & HPI_STATUS_SIE1msg_FLAG) )  //read sie1 msg register
10000b38:	010000c4 	movi	r4,3
10000b3c:	00002b40 	call	100002b4 <IO_read>
10000b40:	10bfffcc 	andi	r2,r2,65535
10000b44:	1080040c 	andi	r2,r2,16
10000b48:	103ff826 	beq	r2,zero,10000b2c <__alt_data_end+0xf8000b2c>
		// TASK: Call the appropriate function again if it wasn't processed successfully.
		UsbSetConfig();		// Set Configuration
		usleep(10*1000);
	}

	UsbWaitTDListDone();
10000b4c:	00020780 	call	10002078 <UsbWaitTDListDone>

	IO_write(HPI_ADDR,0x0506);
10000b50:	01000084 	movi	r4,2
10000b54:	01414184 	movi	r5,1286
10000b58:	00002480 	call	10000248 <IO_write>
	printf("[ENUM PROCESS]:step 7 TD Status Byte is %x\n",IO_read(HPI_DATA));
10000b5c:	0009883a 	mov	r4,zero
10000b60:	00002b40 	call	100002b4 <IO_read>
10000b64:	10bfffcc 	andi	r2,r2,65535
10000b68:	01040074 	movhi	r4,4097
10000b6c:	2105fb04 	addi	r4,r4,6124
10000b70:	100b883a 	mov	r5,r2
10000b74:	00022240 	call	10002224 <printf>

	IO_write(HPI_ADDR,0x0508);
10000b78:	01000084 	movi	r4,2
10000b7c:	01414204 	movi	r5,1288
10000b80:	00002480 	call	10000248 <IO_write>
	usb_ctl_val = IO_read(HPI_DATA);
10000b84:	0009883a 	mov	r4,zero
10000b88:	00002b40 	call	100002b4 <IO_read>
10000b8c:	e0bff80d 	sth	r2,-32(fp)
	printf("[ENUM PROCESS]:step 7 TD Control Byte is %x\n",usb_ctl_val);
10000b90:	e0bff80b 	ldhu	r2,-32(fp)
10000b94:	01040074 	movhi	r4,4097
10000b98:	21060604 	addi	r4,r4,6168
10000b9c:	100b883a 	mov	r5,r2
10000ba0:	00022240 	call	10002224 <printf>
	while (usb_ctl_val != 0x03)
10000ba4:	00000206 	br	10000bb0 <main+0x894>
	{
		usb_ctl_val = UsbGetRetryCnt();
10000ba8:	00020fc0 	call	100020fc <UsbGetRetryCnt>
10000bac:	e0bff80d 	sth	r2,-32(fp)
	printf("[ENUM PROCESS]:step 7 TD Status Byte is %x\n",IO_read(HPI_DATA));

	IO_write(HPI_ADDR,0x0508);
	usb_ctl_val = IO_read(HPI_DATA);
	printf("[ENUM PROCESS]:step 7 TD Control Byte is %x\n",usb_ctl_val);
	while (usb_ctl_val != 0x03)
10000bb0:	e0bff80b 	ldhu	r2,-32(fp)
10000bb4:	108000d8 	cmpnei	r2,r2,3
10000bb8:	103ffb1e 	bne	r2,zero,10000ba8 <__alt_data_end+0xf8000ba8>
	{
		usb_ctl_val = UsbGetRetryCnt();
	}

	printf("------------[ENUM PROCESS]:set configuration done!-------------------\n");
10000bbc:	01040074 	movhi	r4,4097
10000bc0:	21061204 	addi	r4,r4,6216
10000bc4:	00023180 	call	10002318 <puts>

	//----------------------------------------------class request out ------------------------------------------//
	// TASK: Call the appropriate function for this step.
	UsbClassRequest();
10000bc8:	0001afc0 	call	10001afc <UsbClassRequest>

	while (!(IO_read(HPI_STATUS) & HPI_STATUS_SIE1msg_FLAG) )  //read sie1 msg register
10000bcc:	00000306 	br	10000bdc <main+0x8c0>
	{
		// TASK: Call the appropriate function again if it wasn't processed successfully.
		UsbClassRequest();
10000bd0:	0001afc0 	call	10001afc <UsbClassRequest>
		usleep(10*1000);
10000bd4:	0109c404 	movi	r4,10000
10000bd8:	000f4000 	call	1000f400 <usleep>

	//----------------------------------------------class request out ------------------------------------------//
	// TASK: Call the appropriate function for this step.
	UsbClassRequest();

	while (!(IO_read(HPI_STATUS) & HPI_STATUS_SIE1msg_FLAG) )  //read sie1 msg register
10000bdc:	010000c4 	movi	r4,3
10000be0:	00002b40 	call	100002b4 <IO_read>
10000be4:	10bfffcc 	andi	r2,r2,65535
10000be8:	1080040c 	andi	r2,r2,16
10000bec:	103ff826 	beq	r2,zero,10000bd0 <__alt_data_end+0xf8000bd0>
		// TASK: Call the appropriate function again if it wasn't processed successfully.
		UsbClassRequest();
		usleep(10*1000);
	}

	UsbWaitTDListDone();
10000bf0:	00020780 	call	10002078 <UsbWaitTDListDone>

	IO_write(HPI_ADDR,0x0506);
10000bf4:	01000084 	movi	r4,2
10000bf8:	01414184 	movi	r5,1286
10000bfc:	00002480 	call	10000248 <IO_write>
	printf("[ENUM PROCESS]:step 8 TD Status Byte is %x\n",IO_read(HPI_DATA));
10000c00:	0009883a 	mov	r4,zero
10000c04:	00002b40 	call	100002b4 <IO_read>
10000c08:	10bfffcc 	andi	r2,r2,65535
10000c0c:	01040074 	movhi	r4,4097
10000c10:	21062404 	addi	r4,r4,6288
10000c14:	100b883a 	mov	r5,r2
10000c18:	00022240 	call	10002224 <printf>

	IO_write(HPI_ADDR,0x0508);
10000c1c:	01000084 	movi	r4,2
10000c20:	01414204 	movi	r5,1288
10000c24:	00002480 	call	10000248 <IO_write>
	usb_ctl_val = IO_read(HPI_DATA);
10000c28:	0009883a 	mov	r4,zero
10000c2c:	00002b40 	call	100002b4 <IO_read>
10000c30:	e0bff80d 	sth	r2,-32(fp)
	printf("[ENUM PROCESS]:step 8 TD Control Byte is %x\n",usb_ctl_val);
10000c34:	e0bff80b 	ldhu	r2,-32(fp)
10000c38:	01040074 	movhi	r4,4097
10000c3c:	21062f04 	addi	r4,r4,6332
10000c40:	100b883a 	mov	r5,r2
10000c44:	00022240 	call	10002224 <printf>
	while (usb_ctl_val != 0x03)
10000c48:	00000206 	br	10000c54 <main+0x938>
	{
		usb_ctl_val = UsbGetRetryCnt();
10000c4c:	00020fc0 	call	100020fc <UsbGetRetryCnt>
10000c50:	e0bff80d 	sth	r2,-32(fp)
	printf("[ENUM PROCESS]:step 8 TD Status Byte is %x\n",IO_read(HPI_DATA));

	IO_write(HPI_ADDR,0x0508);
	usb_ctl_val = IO_read(HPI_DATA);
	printf("[ENUM PROCESS]:step 8 TD Control Byte is %x\n",usb_ctl_val);
	while (usb_ctl_val != 0x03)
10000c54:	e0bff80b 	ldhu	r2,-32(fp)
10000c58:	108000d8 	cmpnei	r2,r2,3
10000c5c:	103ffb1e 	bne	r2,zero,10000c4c <__alt_data_end+0xf8000c4c>
	{
		usb_ctl_val = UsbGetRetryCnt();
	}


	printf("------------[ENUM PROCESS]:class request out done!-------------------\n");
10000c60:	01040074 	movhi	r4,4097
10000c64:	21063b04 	addi	r4,r4,6380
10000c68:	00023180 	call	10002318 <puts>

	// STEP 8 begin
	//----------------------------------get descriptor(class 0x21 = HID) request out --------------------------------//
	// TASK: Call the appropriate function for this step.
	UsbGetHidDesc();
10000c6c:	0001bf80 	call	10001bf8 <UsbGetHidDesc>

	while (!(IO_read(HPI_STATUS) & HPI_STATUS_SIE1msg_FLAG) )  //read sie1 msg register
10000c70:	00000306 	br	10000c80 <main+0x964>
	{
		// TASK: Call the appropriate function again if it wasn't processed successfully.
		UsbGetHidDesc();
10000c74:	0001bf80 	call	10001bf8 <UsbGetHidDesc>
		usleep(10*1000);
10000c78:	0109c404 	movi	r4,10000
10000c7c:	000f4000 	call	1000f400 <usleep>
	// STEP 8 begin
	//----------------------------------get descriptor(class 0x21 = HID) request out --------------------------------//
	// TASK: Call the appropriate function for this step.
	UsbGetHidDesc();

	while (!(IO_read(HPI_STATUS) & HPI_STATUS_SIE1msg_FLAG) )  //read sie1 msg register
10000c80:	010000c4 	movi	r4,3
10000c84:	00002b40 	call	100002b4 <IO_read>
10000c88:	10bfffcc 	andi	r2,r2,65535
10000c8c:	1080040c 	andi	r2,r2,16
10000c90:	103ff826 	beq	r2,zero,10000c74 <__alt_data_end+0xf8000c74>
		// TASK: Call the appropriate function again if it wasn't processed successfully.
		UsbGetHidDesc();
		usleep(10*1000);
	}

	UsbWaitTDListDone();
10000c94:	00020780 	call	10002078 <UsbWaitTDListDone>

	IO_write(HPI_ADDR,0x0506);
10000c98:	01000084 	movi	r4,2
10000c9c:	01414184 	movi	r5,1286
10000ca0:	00002480 	call	10000248 <IO_write>
	printf("[ENUM PROCESS]:step 8 TD Status Byte is %x\n",IO_read(HPI_DATA));
10000ca4:	0009883a 	mov	r4,zero
10000ca8:	00002b40 	call	100002b4 <IO_read>
10000cac:	10bfffcc 	andi	r2,r2,65535
10000cb0:	01040074 	movhi	r4,4097
10000cb4:	21062404 	addi	r4,r4,6288
10000cb8:	100b883a 	mov	r5,r2
10000cbc:	00022240 	call	10002224 <printf>

	IO_write(HPI_ADDR,0x0508);
10000cc0:	01000084 	movi	r4,2
10000cc4:	01414204 	movi	r5,1288
10000cc8:	00002480 	call	10000248 <IO_write>
	usb_ctl_val = IO_read(HPI_DATA);
10000ccc:	0009883a 	mov	r4,zero
10000cd0:	00002b40 	call	100002b4 <IO_read>
10000cd4:	e0bff80d 	sth	r2,-32(fp)
	printf("[ENUM PROCESS]:step 8 TD Control Byte is %x\n",usb_ctl_val);
10000cd8:	e0bff80b 	ldhu	r2,-32(fp)
10000cdc:	01040074 	movhi	r4,4097
10000ce0:	21062f04 	addi	r4,r4,6332
10000ce4:	100b883a 	mov	r5,r2
10000ce8:	00022240 	call	10002224 <printf>
	while (usb_ctl_val != 0x03)
10000cec:	00000206 	br	10000cf8 <main+0x9dc>
	{
		usb_ctl_val = UsbGetRetryCnt();
10000cf0:	00020fc0 	call	100020fc <UsbGetRetryCnt>
10000cf4:	e0bff80d 	sth	r2,-32(fp)
	printf("[ENUM PROCESS]:step 8 TD Status Byte is %x\n",IO_read(HPI_DATA));

	IO_write(HPI_ADDR,0x0508);
	usb_ctl_val = IO_read(HPI_DATA);
	printf("[ENUM PROCESS]:step 8 TD Control Byte is %x\n",usb_ctl_val);
	while (usb_ctl_val != 0x03)
10000cf8:	e0bff80b 	ldhu	r2,-32(fp)
10000cfc:	108000d8 	cmpnei	r2,r2,3
10000d00:	103ffb1e 	bne	r2,zero,10000cf0 <__alt_data_end+0xf8000cf0>
	{
		usb_ctl_val = UsbGetRetryCnt();
	}

	printf("------------[ENUM PROCESS]:get descriptor (class 0x21) done!-------------------\n");
10000d04:	01040074 	movhi	r4,4097
10000d08:	21064d04 	addi	r4,r4,6452
10000d0c:	00023180 	call	10002318 <puts>

	// STEP 9 begin
	//-------------------------------get descriptor (class 0x22 = report)-------------------------------------------//
	// TASK: Call the appropriate function for this step.
	UsbGetReportDesc();
10000d10:	0001d3c0 	call	10001d3c <UsbGetReportDesc>
	//if no message
	while (!(IO_read(HPI_STATUS) & HPI_STATUS_SIE1msg_FLAG) )  //read sie1 msg register
10000d14:	00000306 	br	10000d24 <main+0xa08>
	{
		// TASK: Call the appropriate function again if it wasn't processed successfully.
		UsbGetReportDesc();
10000d18:	0001d3c0 	call	10001d3c <UsbGetReportDesc>
		usleep(10*1000);
10000d1c:	0109c404 	movi	r4,10000
10000d20:	000f4000 	call	1000f400 <usleep>
	// STEP 9 begin
	//-------------------------------get descriptor (class 0x22 = report)-------------------------------------------//
	// TASK: Call the appropriate function for this step.
	UsbGetReportDesc();
	//if no message
	while (!(IO_read(HPI_STATUS) & HPI_STATUS_SIE1msg_FLAG) )  //read sie1 msg register
10000d24:	010000c4 	movi	r4,3
10000d28:	00002b40 	call	100002b4 <IO_read>
10000d2c:	10bfffcc 	andi	r2,r2,65535
10000d30:	1080040c 	andi	r2,r2,16
10000d34:	103ff826 	beq	r2,zero,10000d18 <__alt_data_end+0xf8000d18>
		// TASK: Call the appropriate function again if it wasn't processed successfully.
		UsbGetReportDesc();
		usleep(10*1000);
	}

	UsbWaitTDListDone();
10000d38:	00020780 	call	10002078 <UsbWaitTDListDone>

	IO_write(HPI_ADDR,0x0506);
10000d3c:	01000084 	movi	r4,2
10000d40:	01414184 	movi	r5,1286
10000d44:	00002480 	call	10000248 <IO_write>
	printf("[ENUM PROCESS]: step 9 TD Status Byte is %x\n",IO_read(HPI_DATA));
10000d48:	0009883a 	mov	r4,zero
10000d4c:	00002b40 	call	100002b4 <IO_read>
10000d50:	10bfffcc 	andi	r2,r2,65535
10000d54:	01040074 	movhi	r4,4097
10000d58:	21066104 	addi	r4,r4,6532
10000d5c:	100b883a 	mov	r5,r2
10000d60:	00022240 	call	10002224 <printf>

	IO_write(HPI_ADDR,0x0508);
10000d64:	01000084 	movi	r4,2
10000d68:	01414204 	movi	r5,1288
10000d6c:	00002480 	call	10000248 <IO_write>
	usb_ctl_val = IO_read(HPI_DATA);
10000d70:	0009883a 	mov	r4,zero
10000d74:	00002b40 	call	100002b4 <IO_read>
10000d78:	e0bff80d 	sth	r2,-32(fp)
	printf("[ENUM PROCESS]: step 9 TD Control Byte is %x\n",usb_ctl_val);
10000d7c:	e0bff80b 	ldhu	r2,-32(fp)
10000d80:	01040074 	movhi	r4,4097
10000d84:	21066d04 	addi	r4,r4,6580
10000d88:	100b883a 	mov	r5,r2
10000d8c:	00022240 	call	10002224 <printf>
	while (usb_ctl_val != 0x03)
10000d90:	00000206 	br	10000d9c <main+0xa80>
	{
		usb_ctl_val = UsbGetRetryCnt();
10000d94:	00020fc0 	call	100020fc <UsbGetRetryCnt>
10000d98:	e0bff80d 	sth	r2,-32(fp)
	printf("[ENUM PROCESS]: step 9 TD Status Byte is %x\n",IO_read(HPI_DATA));

	IO_write(HPI_ADDR,0x0508);
	usb_ctl_val = IO_read(HPI_DATA);
	printf("[ENUM PROCESS]: step 9 TD Control Byte is %x\n",usb_ctl_val);
	while (usb_ctl_val != 0x03)
10000d9c:	e0bff80b 	ldhu	r2,-32(fp)
10000da0:	108000d8 	cmpnei	r2,r2,3
10000da4:	103ffb1e 	bne	r2,zero,10000d94 <__alt_data_end+0xf8000d94>
	{
		usb_ctl_val = UsbGetRetryCnt();
	}

	printf("---------------[ENUM PROCESS]:get descriptor (class 0x22) done!----------------\n");
10000da8:	01040074 	movhi	r4,4097
10000dac:	21067904 	addi	r4,r4,6628
10000db0:	00023180 	call	10002318 <puts>


	//-----------------------------------get keycode value------------------------------------------------//
	usleep(10000);
10000db4:	0109c404 	movi	r4,10000
10000db8:	000f4000 	call	1000f400 <usleep>
	while(1)
	{
		volatile unsigned int *KEYS = (unsigned int *) 0x10;
10000dbc:	00800404 	movi	r2,16
10000dc0:	e0bffe15 	stw	r2,-8(fp)
		//printf(" actual value %x\n", *KEYS);

		toggle++;
10000dc4:	e0bff883 	ldbu	r2,-30(fp)
10000dc8:	10800044 	addi	r2,r2,1
10000dcc:	e0bff885 	stb	r2,-30(fp)
		IO_write(HPI_ADDR,0x0500); //the start address
10000dd0:	01000084 	movi	r4,2
10000dd4:	01414004 	movi	r5,1280
10000dd8:	00002480 	call	10000248 <IO_write>
		//data phase IN-1
		IO_write(HPI_DATA,0x051c); //500
10000ddc:	0009883a 	mov	r4,zero
10000de0:	01414704 	movi	r5,1308
10000de4:	00002480 	call	10000248 <IO_write>

		IO_write(HPI_DATA,0x000f & data_size);//2 data length
10000de8:	e0bffd03 	ldbu	r2,-12(fp)
10000dec:	108003cc 	andi	r2,r2,15
10000df0:	0009883a 	mov	r4,zero
10000df4:	100b883a 	mov	r5,r2
10000df8:	00002480 	call	10000248 <IO_write>

		IO_write(HPI_DATA,0x0291);//4 //endpoint 1
10000dfc:	0009883a 	mov	r4,zero
10000e00:	0140a444 	movi	r5,657
10000e04:	00002480 	call	10000248 <IO_write>
		if(toggle%2)
10000e08:	e0bff883 	ldbu	r2,-30(fp)
10000e0c:	1080004c 	andi	r2,r2,1
10000e10:	10803fcc 	andi	r2,r2,255
10000e14:	10000426 	beq	r2,zero,10000e28 <main+0xb0c>
		{
			IO_write(HPI_DATA,0x0001);//6 //data 1
10000e18:	0009883a 	mov	r4,zero
10000e1c:	01400044 	movi	r5,1
10000e20:	00002480 	call	10000248 <IO_write>
10000e24:	00000306 	br	10000e34 <main+0xb18>
		}
		else
		{
			IO_write(HPI_DATA,0x0041);//6 //data 1
10000e28:	0009883a 	mov	r4,zero
10000e2c:	01401044 	movi	r5,65
10000e30:	00002480 	call	10000248 <IO_write>
		}
		IO_write(HPI_DATA,0x0013);//8
10000e34:	0009883a 	mov	r4,zero
10000e38:	014004c4 	movi	r5,19
10000e3c:	00002480 	call	10000248 <IO_write>
		IO_write(HPI_DATA,0x0000);//a
10000e40:	0009883a 	mov	r4,zero
10000e44:	000b883a 	mov	r5,zero
10000e48:	00002480 	call	10000248 <IO_write>
		UsbWrite(HUSB_SIE1_pCurrentTDPtr,0x0500); //HUSB_SIE1_pCurrentTDPtr
10000e4c:	01006c04 	movi	r4,432
10000e50:	01414004 	movi	r5,1280
10000e54:	00010ac0 	call	100010ac <UsbWrite>
		
		while (!(IO_read(HPI_STATUS) & HPI_STATUS_SIE1msg_FLAG) )  //read sie1 msg register
10000e58:	00002406 	br	10000eec <main+0xbd0>
		{
			IO_write(HPI_ADDR,0x0500); //the start address
10000e5c:	01000084 	movi	r4,2
10000e60:	01414004 	movi	r5,1280
10000e64:	00002480 	call	10000248 <IO_write>
			//data phase IN-1
			IO_write(HPI_DATA,0x051c); //500
10000e68:	0009883a 	mov	r4,zero
10000e6c:	01414704 	movi	r5,1308
10000e70:	00002480 	call	10000248 <IO_write>

			IO_write(HPI_DATA,0x000f & data_size);//2 data length
10000e74:	e0bffd03 	ldbu	r2,-12(fp)
10000e78:	108003cc 	andi	r2,r2,15
10000e7c:	0009883a 	mov	r4,zero
10000e80:	100b883a 	mov	r5,r2
10000e84:	00002480 	call	10000248 <IO_write>

			IO_write(HPI_DATA,0x0291);//4 //endpoint 1
10000e88:	0009883a 	mov	r4,zero
10000e8c:	0140a444 	movi	r5,657
10000e90:	00002480 	call	10000248 <IO_write>
			if(toggle%2)
10000e94:	e0bff883 	ldbu	r2,-30(fp)
10000e98:	1080004c 	andi	r2,r2,1
10000e9c:	10803fcc 	andi	r2,r2,255
10000ea0:	10000426 	beq	r2,zero,10000eb4 <main+0xb98>
			{
				IO_write(HPI_DATA,0x0001);//6 //data 1
10000ea4:	0009883a 	mov	r4,zero
10000ea8:	01400044 	movi	r5,1
10000eac:	00002480 	call	10000248 <IO_write>
10000eb0:	00000306 	br	10000ec0 <main+0xba4>
			}
			else
			{
				IO_write(HPI_DATA,0x0041);//6 //data 1
10000eb4:	0009883a 	mov	r4,zero
10000eb8:	01401044 	movi	r5,65
10000ebc:	00002480 	call	10000248 <IO_write>
			}
			IO_write(HPI_DATA,0x0013);//8
10000ec0:	0009883a 	mov	r4,zero
10000ec4:	014004c4 	movi	r5,19
10000ec8:	00002480 	call	10000248 <IO_write>
			IO_write(HPI_DATA,0x0000);//
10000ecc:	0009883a 	mov	r4,zero
10000ed0:	000b883a 	mov	r5,zero
10000ed4:	00002480 	call	10000248 <IO_write>
			UsbWrite(HUSB_SIE1_pCurrentTDPtr,0x0500); //HUSB_SIE1_pCurrentTDPtr
10000ed8:	01006c04 	movi	r4,432
10000edc:	01414004 	movi	r5,1280
10000ee0:	00010ac0 	call	100010ac <UsbWrite>
			usleep(10*1000);
10000ee4:	0109c404 	movi	r4,10000
10000ee8:	000f4000 	call	1000f400 <usleep>
		}
		IO_write(HPI_DATA,0x0013);//8
		IO_write(HPI_DATA,0x0000);//a
		UsbWrite(HUSB_SIE1_pCurrentTDPtr,0x0500); //HUSB_SIE1_pCurrentTDPtr
		
		while (!(IO_read(HPI_STATUS) & HPI_STATUS_SIE1msg_FLAG) )  //read sie1 msg register
10000eec:	010000c4 	movi	r4,3
10000ef0:	00002b40 	call	100002b4 <IO_read>
10000ef4:	10bfffcc 	andi	r2,r2,65535
10000ef8:	1080040c 	andi	r2,r2,16
10000efc:	103fd726 	beq	r2,zero,10000e5c <__alt_data_end+0xf8000e5c>
			usleep(10*1000);
		}//end while



		usb_ctl_val = UsbWaitTDListDone();
10000f00:	00020780 	call	10002078 <UsbWaitTDListDone>
10000f04:	e0bff80d 	sth	r2,-32(fp)

		// packet starts from 0x051c, reading third byte
		// TASK: Write the address to read from the memory for byte 3 of the report descriptor to HPI_ADDR.
		IO_write(HPI_ADDR,0x051e); //the start address
10000f08:	01000084 	movi	r4,2
10000f0c:	01414784 	movi	r5,1310
10000f10:	00002480 	call	10000248 <IO_write>
		keycode = IO_read(HPI_DATA);
10000f14:	0009883a 	mov	r4,zero
10000f18:	00002b40 	call	100002b4 <IO_read>
10000f1c:	10bfffcc 	andi	r2,r2,65535
10000f20:	e0bffb15 	stw	r2,-20(fp)
		printf("\nfirst two keycode values are %04x\n",keycode);
10000f24:	01040074 	movhi	r4,4097
10000f28:	21068d04 	addi	r4,r4,6708
10000f2c:	e17ffb17 	ldw	r5,-20(fp)
10000f30:	00022240 	call	10002224 <printf>

		if (keycode != 0) {
10000f34:	e0bffb17 	ldw	r2,-20(fp)
10000f38:	10000826 	beq	r2,zero,10000f5c <main+0xc40>
			alt_u8 value = keycode & 0xFF;
10000f3c:	e0bffb17 	ldw	r2,-20(fp)
10000f40:	e0bfff05 	stb	r2,-4(fp)
			*KEYS = value;
10000f44:	e0ffff03 	ldbu	r3,-4(fp)
10000f48:	e0bffe17 	ldw	r2,-8(fp)
10000f4c:	10c00015 	stw	r3,0(r2)
			printf("written\n");
10000f50:	01040074 	movhi	r4,4097
10000f54:	21069604 	addi	r4,r4,6744
10000f58:	00023180 	call	10002318 <puts>
		}

		IOWR(KEYCODE_BASE, 0, keycode & 0xff);
10000f5c:	e0bffb17 	ldw	r2,-20(fp)
10000f60:	10c03fcc 	andi	r3,r2,255
10000f64:	00801c04 	movi	r2,112
10000f68:	10c00035 	stwio	r3,0(r2)


		usleep(200);//usleep(5000);
10000f6c:	01003204 	movi	r4,200
10000f70:	000f4000 	call	1000f400 <usleep>
		usb_ctl_val = UsbRead(ctl_reg);
10000f74:	d0a6cb0b 	ldhu	r2,-25812(gp)
10000f78:	10bfffcc 	andi	r2,r2,65535
10000f7c:	1009883a 	mov	r4,r2
10000f80:	00011000 	call	10001100 <UsbRead>
10000f84:	e0bff80d 	sth	r2,-32(fp)

		if(!(usb_ctl_val & no_device))
10000f88:	d0a6cb8b 	ldhu	r2,-25810(gp)
10000f8c:	e0fff80b 	ldhu	r3,-32(fp)
10000f90:	1884703a 	and	r2,r3,r2
10000f94:	10bfffcc 	andi	r2,r2,65535
10000f98:	1000201e 	bne	r2,zero,1000101c <main+0xd00>
		{
			//USB hot plug routine
			for(hot_plug_count = 0 ; hot_plug_count < 7 ; hot_plug_count++)
10000f9c:	e03ff8c5 	stb	zero,-29(fp)
10000fa0:	00001006 	br	10000fe4 <main+0xcc8>
			{
				usleep(5*1000);
10000fa4:	0104e204 	movi	r4,5000
10000fa8:	000f4000 	call	1000f400 <usleep>
				usb_ctl_val = UsbRead(ctl_reg);
10000fac:	d0a6cb0b 	ldhu	r2,-25812(gp)
10000fb0:	10bfffcc 	andi	r2,r2,65535
10000fb4:	1009883a 	mov	r4,r2
10000fb8:	00011000 	call	10001100 <UsbRead>
10000fbc:	e0bff80d 	sth	r2,-32(fp)
				if(usb_ctl_val & no_device) break;
10000fc0:	d0a6cb8b 	ldhu	r2,-25810(gp)
10000fc4:	e0fff80b 	ldhu	r3,-32(fp)
10000fc8:	1884703a 	and	r2,r3,r2
10000fcc:	10bfffcc 	andi	r2,r2,65535
10000fd0:	10000126 	beq	r2,zero,10000fd8 <main+0xcbc>
10000fd4:	00000606 	br	10000ff0 <main+0xcd4>
		usb_ctl_val = UsbRead(ctl_reg);

		if(!(usb_ctl_val & no_device))
		{
			//USB hot plug routine
			for(hot_plug_count = 0 ; hot_plug_count < 7 ; hot_plug_count++)
10000fd8:	e0bff8c3 	ldbu	r2,-29(fp)
10000fdc:	10800044 	addi	r2,r2,1
10000fe0:	e0bff8c5 	stb	r2,-29(fp)
10000fe4:	e0bff8c3 	ldbu	r2,-29(fp)
10000fe8:	108001f0 	cmpltui	r2,r2,7
10000fec:	103fed1e 	bne	r2,zero,10000fa4 <__alt_data_end+0xf8000fa4>
			{
				usleep(5*1000);
				usb_ctl_val = UsbRead(ctl_reg);
				if(usb_ctl_val & no_device) break;
			}
			if(!(usb_ctl_val & no_device))
10000ff0:	d0a6cb8b 	ldhu	r2,-25810(gp)
10000ff4:	e0fff80b 	ldhu	r3,-32(fp)
10000ff8:	1884703a 	and	r2,r3,r2
10000ffc:	10bfffcc 	andi	r2,r2,65535
10001000:	1000061e 	bne	r2,zero,1000101c <main+0xd00>
			{
				printf("\n[INFO]: the keyboard has been removed!!! \n");
10001004:	01040074 	movhi	r4,4097
10001008:	21069804 	addi	r4,r4,6752
1000100c:	00023180 	call	10002318 <puts>
				printf("[INFO]: please insert again!!! \n");
10001010:	01040074 	movhi	r4,4097
10001014:	2106a304 	addi	r4,r4,6796
10001018:	00023180 	call	10002318 <puts>
			}
		}

		while (!(usb_ctl_val & no_device))
1000101c:	00001d06 	br	10001094 <main+0xd78>
		{

			usb_ctl_val = UsbRead(ctl_reg);
10001020:	d0a6cb0b 	ldhu	r2,-25812(gp)
10001024:	10bfffcc 	andi	r2,r2,65535
10001028:	1009883a 	mov	r4,r2
1000102c:	00011000 	call	10001100 <UsbRead>
10001030:	e0bff80d 	sth	r2,-32(fp)
			usleep(5*1000);
10001034:	0104e204 	movi	r4,5000
10001038:	000f4000 	call	1000f400 <usleep>
			usb_ctl_val = UsbRead(ctl_reg);
1000103c:	d0a6cb0b 	ldhu	r2,-25812(gp)
10001040:	10bfffcc 	andi	r2,r2,65535
10001044:	1009883a 	mov	r4,r2
10001048:	00011000 	call	10001100 <UsbRead>
1000104c:	e0bff80d 	sth	r2,-32(fp)
			usleep(5*1000);
10001050:	0104e204 	movi	r4,5000
10001054:	000f4000 	call	1000f400 <usleep>
			usb_ctl_val = UsbRead(ctl_reg);
10001058:	d0a6cb0b 	ldhu	r2,-25812(gp)
1000105c:	10bfffcc 	andi	r2,r2,65535
10001060:	1009883a 	mov	r4,r2
10001064:	00011000 	call	10001100 <UsbRead>
10001068:	e0bff80d 	sth	r2,-32(fp)
			usleep(5*1000);
1000106c:	0104e204 	movi	r4,5000
10001070:	000f4000 	call	1000f400 <usleep>

			if(usb_ctl_val & no_device)
10001074:	d0a6cb8b 	ldhu	r2,-25810(gp)
10001078:	e0fff80b 	ldhu	r3,-32(fp)
1000107c:	1884703a 	and	r2,r3,r2
10001080:	10bfffcc 	andi	r2,r2,65535
10001084:	10000126 	beq	r2,zero,1000108c <main+0xd70>
				goto USB_HOT_PLUG;
10001088:	003cb406 	br	1000035c <__alt_data_end+0xf800035c>

			usleep(200);
1000108c:	01003204 	movi	r4,200
10001090:	000f4000 	call	1000f400 <usleep>
				printf("\n[INFO]: the keyboard has been removed!!! \n");
				printf("[INFO]: please insert again!!! \n");
			}
		}

		while (!(usb_ctl_val & no_device))
10001094:	d0a6cb8b 	ldhu	r2,-25810(gp)
10001098:	e0fff80b 	ldhu	r3,-32(fp)
1000109c:	1884703a 	and	r2,r3,r2
100010a0:	10bfffcc 	andi	r2,r2,65535
100010a4:	103fde26 	beq	r2,zero,10001020 <__alt_data_end+0xf8001020>
				goto USB_HOT_PLUG;

			usleep(200);
		}

	}//end while
100010a8:	003f4406 	br	10000dbc <__alt_data_end+0xf8000dbc>

100010ac <UsbWrite>:
 * @note     None
 *
 ******************************************************************************/

void UsbWrite(alt_u16 Address, alt_u16 Data)
{
100010ac:	defffc04 	addi	sp,sp,-16
100010b0:	dfc00315 	stw	ra,12(sp)
100010b4:	df000215 	stw	fp,8(sp)
100010b8:	df000204 	addi	fp,sp,8
100010bc:	2007883a 	mov	r3,r4
100010c0:	2805883a 	mov	r2,r5
100010c4:	e0fffe0d 	sth	r3,-8(fp)
100010c8:	e0bfff0d 	sth	r2,-4(fp)
//*************************************************************************//
//									TASK								   //
//*************************************************************************//
//							Write this function							   //
//*************************************************************************//
	IO_write(HPI_ADDR, Address);
100010cc:	e0bffe0b 	ldhu	r2,-8(fp)
100010d0:	01000084 	movi	r4,2
100010d4:	100b883a 	mov	r5,r2
100010d8:	00002480 	call	10000248 <IO_write>
	IO_write(HPI_DATA, Data);
100010dc:	e0bfff0b 	ldhu	r2,-4(fp)
100010e0:	0009883a 	mov	r4,zero
100010e4:	100b883a 	mov	r5,r2
100010e8:	00002480 	call	10000248 <IO_write>
}
100010ec:	e037883a 	mov	sp,fp
100010f0:	dfc00117 	ldw	ra,4(sp)
100010f4:	df000017 	ldw	fp,0(sp)
100010f8:	dec00204 	addi	sp,sp,8
100010fc:	f800283a 	ret

10001100 <UsbRead>:
 *
 * @note     None
 *
 ******************************************************************************/
alt_u16 UsbRead(alt_u16 Address)
{
10001100:	defffc04 	addi	sp,sp,-16
10001104:	dfc00315 	stw	ra,12(sp)
10001108:	df000215 	stw	fp,8(sp)
1000110c:	df000204 	addi	fp,sp,8
10001110:	2005883a 	mov	r2,r4
10001114:	e0bfff0d 	sth	r2,-4(fp)
//*************************************************************************//
//									TASK								   //
//*************************************************************************//
//							Write this function							   //
//*************************************************************************//
	IO_write(HPI_ADDR, Address);
10001118:	e0bfff0b 	ldhu	r2,-4(fp)
1000111c:	01000084 	movi	r4,2
10001120:	100b883a 	mov	r5,r2
10001124:	00002480 	call	10000248 <IO_write>
	alt_u16 temp = IO_read(HPI_DATA);
10001128:	0009883a 	mov	r4,zero
1000112c:	00002b40 	call	100002b4 <IO_read>
10001130:	e0bffe0d 	sth	r2,-8(fp)
	return temp;
10001134:	e0bffe0b 	ldhu	r2,-8(fp)
}
10001138:	e037883a 	mov	sp,fp
1000113c:	dfc00117 	ldw	ra,4(sp)
10001140:	df000017 	ldw	fp,0(sp)
10001144:	dec00204 	addi	sp,sp,8
10001148:	f800283a 	ret

1000114c <UsbSoftReset>:
 *
 * @note     None
 *
 ******************************************************************************/
void UsbSoftReset()
{
1000114c:	defffe04 	addi	sp,sp,-8
10001150:	dfc00115 	stw	ra,4(sp)
10001154:	df000015 	stw	fp,0(sp)
10001158:	d839883a 	mov	fp,sp
	//printf("trying some shit\n");
	//int result = UsbRead(0xC0C8);
	//printf("result was %x\n", result);
	//XIo_Out16(USB_MAILBOX, COMM_RESET);
	IO_write(HPI_MAILBOX,COMM_RESET); //COMM_JUMP2CODE
1000115c:	01000044 	movi	r4,1
10001160:	017e9414 	movui	r5,64080
10001164:	00002480 	call	10000248 <IO_write>
	usleep(100000);
10001168:	010000b4 	movhi	r4,2
1000116c:	2121a804 	addi	r4,r4,-31072
10001170:	000f4000 	call	1000f400 <usleep>
	printf("[USB INIT]:reset finished!\n");
10001174:	01040074 	movhi	r4,4097
10001178:	2106ab04 	addi	r4,r4,6828
1000117c:	00023180 	call	10002318 <puts>

	usleep(500000);
10001180:	01000234 	movhi	r4,8
10001184:	21284804 	addi	r4,r4,-24288
10001188:	000f4000 	call	1000f400 <usleep>
	printf("[USB INIT]:Clear up the interrupt\r\n");
1000118c:	01040074 	movhi	r4,4097
10001190:	2106b204 	addi	r4,r4,6856
10001194:	00023180 	call	10002318 <puts>
	IO_read(HPI_MAILBOX);
10001198:	01000044 	movi	r4,1
1000119c:	00002b40 	call	100002b4 <IO_read>
	IO_read(HPI_STATUS);
100011a0:	010000c4 	movi	r4,3
100011a4:	00002b40 	call	100002b4 <IO_read>

	// Had to add the write due to a bug in BIOS where they overwrite
	// the mailbox after initialization with garbage.  The read clears
	// any pending interrupts.
	UsbRead (HPI_SIE1_MSG_ADR);
100011a8:	01005104 	movi	r4,324
100011ac:	00011000 	call	10001100 <UsbRead>
	UsbWrite (HPI_SIE1_MSG_ADR, 0);
100011b0:	01005104 	movi	r4,324
100011b4:	000b883a 	mov	r5,zero
100011b8:	00010ac0 	call	100010ac <UsbWrite>
	UsbRead (HPI_SIE2_MSG_ADR);
100011bc:	01005204 	movi	r4,328
100011c0:	00011000 	call	10001100 <UsbRead>
	UsbWrite (HPI_SIE2_MSG_ADR, 0);
100011c4:	01005204 	movi	r4,328
100011c8:	000b883a 	mov	r5,zero
100011cc:	00010ac0 	call	100010ac <UsbWrite>


	UsbWrite (HOST1_STAT_REG, 0xFFFF);
100011d0:	01302414 	movui	r4,49296
100011d4:	017fffd4 	movui	r5,65535
100011d8:	00010ac0 	call	100010ac <UsbWrite>
	UsbWrite (HOST2_STAT_REG, 0xFFFF);
100011dc:	01302c14 	movui	r4,49328
100011e0:	017fffd4 	movui	r5,65535
100011e4:	00010ac0 	call	100010ac <UsbWrite>
}
100011e8:	e037883a 	mov	sp,fp
100011ec:	dfc00117 	ldw	ra,4(sp)
100011f0:	df000017 	ldw	fp,0(sp)
100011f4:	dec00204 	addi	sp,sp,8
100011f8:	f800283a 	ret

100011fc <UsbSetAddress>:


void UsbSetAddress()
{
100011fc:	defffe04 	addi	sp,sp,-8
10001200:	dfc00115 	stw	ra,4(sp)
10001204:	df000015 	stw	fp,0(sp)
10001208:	d839883a 	mov	fp,sp
	//the starting address
	IO_write(HPI_ADDR,0x0500); //the start address
1000120c:	01000084 	movi	r4,2
10001210:	01414004 	movi	r5,1280
10001214:	00002480 	call	10000248 <IO_write>
	// TD #1: 6 writes
	IO_write(HPI_DATA,0x050C);
10001218:	0009883a 	mov	r4,zero
1000121c:	01414304 	movi	r5,1292
10001220:	00002480 	call	10000248 <IO_write>
	IO_write(HPI_DATA,0x0008); //4 port number
10001224:	0009883a 	mov	r4,zero
10001228:	01400204 	movi	r5,8
1000122c:	00002480 	call	10000248 <IO_write>
	// TASK: Complete with 4 more IOWR functions
	IO_write(HPI_DATA,0x00D0);
10001230:	0009883a 	mov	r4,zero
10001234:	01403404 	movi	r5,208
10001238:	00002480 	call	10000248 <IO_write>
	IO_write(HPI_DATA,0x0001);
1000123c:	0009883a 	mov	r4,zero
10001240:	01400044 	movi	r5,1
10001244:	00002480 	call	10000248 <IO_write>
	IO_write(HPI_DATA,0x0013);
10001248:	0009883a 	mov	r4,zero
1000124c:	014004c4 	movi	r5,19
10001250:	00002480 	call	10000248 <IO_write>
	IO_write(HPI_DATA,0x0514);
10001254:	0009883a 	mov	r4,zero
10001258:	01414504 	movi	r5,1300
1000125c:	00002480 	call	10000248 <IO_write>
	// TD #2: 4 writes
	// TASK: Complete with 4 IOWR functions
	IO_write(HPI_DATA,0x0500);
10001260:	0009883a 	mov	r4,zero
10001264:	01414004 	movi	r5,1280
10001268:	00002480 	call	10000248 <IO_write>
	IO_write(HPI_DATA,0x0002);
1000126c:	0009883a 	mov	r4,zero
10001270:	01400084 	movi	r5,2
10001274:	00002480 	call	10000248 <IO_write>
	IO_write(HPI_DATA,0x0000);
10001278:	0009883a 	mov	r4,zero
1000127c:	000b883a 	mov	r5,zero
10001280:	00002480 	call	10000248 <IO_write>
	IO_write(HPI_DATA,0x0000);
10001284:	0009883a 	mov	r4,zero
10001288:	000b883a 	mov	r5,zero
1000128c:	00002480 	call	10000248 <IO_write>
	// TD #3: 6 writes
	// TASK: Complete with 6 IOWR functions
	IO_write(HPI_DATA,0x0000); //
10001290:	0009883a 	mov	r4,zero
10001294:	000b883a 	mov	r5,zero
10001298:	00002480 	call	10000248 <IO_write>
	IO_write(HPI_DATA,0x0000);//
1000129c:	0009883a 	mov	r4,zero
100012a0:	000b883a 	mov	r5,zero
100012a4:	00002480 	call	10000248 <IO_write>
	IO_write(HPI_DATA,0x0090);//
100012a8:	0009883a 	mov	r4,zero
100012ac:	01402404 	movi	r5,144
100012b0:	00002480 	call	10000248 <IO_write>
	IO_write(HPI_DATA,0x0041);
100012b4:	0009883a 	mov	r4,zero
100012b8:	01401044 	movi	r5,65
100012bc:	00002480 	call	10000248 <IO_write>
	IO_write(HPI_DATA,0x0013);
100012c0:	0009883a 	mov	r4,zero
100012c4:	014004c4 	movi	r5,19
100012c8:	00002480 	call	10000248 <IO_write>
	IO_write(HPI_DATA,0x0000);
100012cc:	0009883a 	mov	r4,zero
100012d0:	000b883a 	mov	r5,zero
100012d4:	00002480 	call	10000248 <IO_write>

	UsbWrite(HUSB_SIE1_pCurrentTDPtr,0x0500); //HUSB_SIE1_pCurrentTDPtr
100012d8:	01006c04 	movi	r4,432
100012dc:	01414004 	movi	r5,1280
100012e0:	00010ac0 	call	100010ac <UsbWrite>
}
100012e4:	e037883a 	mov	sp,fp
100012e8:	dfc00117 	ldw	ra,4(sp)
100012ec:	df000017 	ldw	fp,0(sp)
100012f0:	dec00204 	addi	sp,sp,8
100012f4:	f800283a 	ret

100012f8 <UsbGetDeviceDesc1>:


void UsbGetDeviceDesc1()
{
100012f8:	defffe04 	addi	sp,sp,-8
100012fc:	dfc00115 	stw	ra,4(sp)
10001300:	df000015 	stw	fp,0(sp)
10001304:	d839883a 	mov	fp,sp
	//the starting address
	IO_write(HPI_ADDR,0x0500); //the start address
10001308:	01000084 	movi	r4,2
1000130c:	01414004 	movi	r5,1280
10001310:	00002480 	call	10000248 <IO_write>
	IO_write(HPI_DATA,0x050C);
10001314:	0009883a 	mov	r4,zero
10001318:	01414304 	movi	r5,1292
1000131c:	00002480 	call	10000248 <IO_write>
	IO_write(HPI_DATA,0x0008); //4 port number
10001320:	0009883a 	mov	r4,zero
10001324:	01400204 	movi	r5,8
10001328:	00002480 	call	10000248 <IO_write>
	IO_write(HPI_DATA,0x02D0); //device address
1000132c:	0009883a 	mov	r4,zero
10001330:	0140b404 	movi	r5,720
10001334:	00002480 	call	10000248 <IO_write>
	IO_write(HPI_DATA,0x0001);
10001338:	0009883a 	mov	r4,zero
1000133c:	01400044 	movi	r5,1
10001340:	00002480 	call	10000248 <IO_write>
	IO_write(HPI_DATA,0x0013);
10001344:	0009883a 	mov	r4,zero
10001348:	014004c4 	movi	r5,19
1000134c:	00002480 	call	10000248 <IO_write>
	IO_write(HPI_DATA,0x0514);
10001350:	0009883a 	mov	r4,zero
10001354:	01414504 	movi	r5,1300
10001358:	00002480 	call	10000248 <IO_write>

	//td content 4 bytes
	IO_write(HPI_DATA,0x0680);//c
1000135c:	0009883a 	mov	r4,zero
10001360:	0141a004 	movi	r5,1664
10001364:	00002480 	call	10000248 <IO_write>
	IO_write(HPI_DATA,0x0100); //device 0x01
10001368:	0009883a 	mov	r4,zero
1000136c:	01404004 	movi	r5,256
10001370:	00002480 	call	10000248 <IO_write>
	IO_write(HPI_DATA,0x0000);
10001374:	0009883a 	mov	r4,zero
10001378:	000b883a 	mov	r5,zero
1000137c:	00002480 	call	10000248 <IO_write>
	IO_write(HPI_DATA,0x0008);
10001380:	0009883a 	mov	r4,zero
10001384:	01400204 	movi	r5,8
10001388:	00002480 	call	10000248 <IO_write>

	//data phase IN
	IO_write(HPI_DATA,0x052C); //
1000138c:	0009883a 	mov	r4,zero
10001390:	01414b04 	movi	r5,1324
10001394:	00002480 	call	10000248 <IO_write>
	IO_write(HPI_DATA,0x0008);//
10001398:	0009883a 	mov	r4,zero
1000139c:	01400204 	movi	r5,8
100013a0:	00002480 	call	10000248 <IO_write>
	IO_write(HPI_DATA,0x0290);//
100013a4:	0009883a 	mov	r4,zero
100013a8:	0140a404 	movi	r5,656
100013ac:	00002480 	call	10000248 <IO_write>
	IO_write(HPI_DATA,0x0041);
100013b0:	0009883a 	mov	r4,zero
100013b4:	01401044 	movi	r5,65
100013b8:	00002480 	call	10000248 <IO_write>
	IO_write(HPI_DATA,0x0013);
100013bc:	0009883a 	mov	r4,zero
100013c0:	014004c4 	movi	r5,19
100013c4:	00002480 	call	10000248 <IO_write>
	IO_write(HPI_DATA,0x0520);
100013c8:	0009883a 	mov	r4,zero
100013cc:	01414804 	movi	r5,1312
100013d0:	00002480 	call	10000248 <IO_write>

	//    //status phase
	IO_write(HPI_DATA,0x0000); //don't care
100013d4:	0009883a 	mov	r4,zero
100013d8:	000b883a 	mov	r5,zero
100013dc:	00002480 	call	10000248 <IO_write>
	IO_write(HPI_DATA,0x0000);//port number
100013e0:	0009883a 	mov	r4,zero
100013e4:	000b883a 	mov	r5,zero
100013e8:	00002480 	call	10000248 <IO_write>
	IO_write(HPI_DATA,0x0210);//device address
100013ec:	0009883a 	mov	r4,zero
100013f0:	01408404 	movi	r5,528
100013f4:	00002480 	call	10000248 <IO_write>
	IO_write(HPI_DATA,0x0041);
100013f8:	0009883a 	mov	r4,zero
100013fc:	01401044 	movi	r5,65
10001400:	00002480 	call	10000248 <IO_write>
	IO_write(HPI_DATA,0x0013);
10001404:	0009883a 	mov	r4,zero
10001408:	014004c4 	movi	r5,19
1000140c:	00002480 	call	10000248 <IO_write>
	IO_write(HPI_DATA,0x0000);
10001410:	0009883a 	mov	r4,zero
10001414:	000b883a 	mov	r5,zero
10001418:	00002480 	call	10000248 <IO_write>

	UsbWrite(HUSB_SIE1_pCurrentTDPtr,0x0500); //HUSB_SIE1_pCurrentTDPtr
1000141c:	01006c04 	movi	r4,432
10001420:	01414004 	movi	r5,1280
10001424:	00010ac0 	call	100010ac <UsbWrite>
}
10001428:	e037883a 	mov	sp,fp
1000142c:	dfc00117 	ldw	ra,4(sp)
10001430:	df000017 	ldw	fp,0(sp)
10001434:	dec00204 	addi	sp,sp,8
10001438:	f800283a 	ret

1000143c <UsbGetDeviceDesc2>:

void UsbGetDeviceDesc2()
{
1000143c:	defffe04 	addi	sp,sp,-8
10001440:	dfc00115 	stw	ra,4(sp)
10001444:	df000015 	stw	fp,0(sp)
10001448:	d839883a 	mov	fp,sp
	//the starting address
	IO_write(HPI_ADDR,0x0500); //the start address
1000144c:	01000084 	movi	r4,2
10001450:	01414004 	movi	r5,1280
10001454:	00002480 	call	10000248 <IO_write>
	IO_write(HPI_DATA,0x050C);
10001458:	0009883a 	mov	r4,zero
1000145c:	01414304 	movi	r5,1292
10001460:	00002480 	call	10000248 <IO_write>
	IO_write(HPI_DATA,0x0008); //4 port number
10001464:	0009883a 	mov	r4,zero
10001468:	01400204 	movi	r5,8
1000146c:	00002480 	call	10000248 <IO_write>
	IO_write(HPI_DATA,0x02D0); //device address
10001470:	0009883a 	mov	r4,zero
10001474:	0140b404 	movi	r5,720
10001478:	00002480 	call	10000248 <IO_write>
	IO_write(HPI_DATA,0x0001);
1000147c:	0009883a 	mov	r4,zero
10001480:	01400044 	movi	r5,1
10001484:	00002480 	call	10000248 <IO_write>
	IO_write(HPI_DATA,0x0013);
10001488:	0009883a 	mov	r4,zero
1000148c:	014004c4 	movi	r5,19
10001490:	00002480 	call	10000248 <IO_write>
	IO_write(HPI_DATA,0x0514);
10001494:	0009883a 	mov	r4,zero
10001498:	01414504 	movi	r5,1300
1000149c:	00002480 	call	10000248 <IO_write>

	//td content 4 bytes
	IO_write(HPI_DATA,0x0680);//c
100014a0:	0009883a 	mov	r4,zero
100014a4:	0141a004 	movi	r5,1664
100014a8:	00002480 	call	10000248 <IO_write>
	IO_write(HPI_DATA,0x0100);//e //device 0x01
100014ac:	0009883a 	mov	r4,zero
100014b0:	01404004 	movi	r5,256
100014b4:	00002480 	call	10000248 <IO_write>
	IO_write(HPI_DATA,0x0000);//0
100014b8:	0009883a 	mov	r4,zero
100014bc:	000b883a 	mov	r5,zero
100014c0:	00002480 	call	10000248 <IO_write>
	IO_write(HPI_DATA,0x0012);//2
100014c4:	0009883a 	mov	r4,zero
100014c8:	01400484 	movi	r5,18
100014cc:	00002480 	call	10000248 <IO_write>

	//data phase IN-1
	IO_write(HPI_DATA,0x0544); //514
100014d0:	0009883a 	mov	r4,zero
100014d4:	01415104 	movi	r5,1348
100014d8:	00002480 	call	10000248 <IO_write>
	IO_write(HPI_DATA,0x0008);//6
100014dc:	0009883a 	mov	r4,zero
100014e0:	01400204 	movi	r5,8
100014e4:	00002480 	call	10000248 <IO_write>
	IO_write(HPI_DATA,0x0290);//8
100014e8:	0009883a 	mov	r4,zero
100014ec:	0140a404 	movi	r5,656
100014f0:	00002480 	call	10000248 <IO_write>
	IO_write(HPI_DATA,0x0041);//a
100014f4:	0009883a 	mov	r4,zero
100014f8:	01401044 	movi	r5,65
100014fc:	00002480 	call	10000248 <IO_write>
	IO_write(HPI_DATA,0x0013);//c
10001500:	0009883a 	mov	r4,zero
10001504:	014004c4 	movi	r5,19
10001508:	00002480 	call	10000248 <IO_write>
	IO_write(HPI_DATA,0x0520);//e
1000150c:	0009883a 	mov	r4,zero
10001510:	01414804 	movi	r5,1312
10001514:	00002480 	call	10000248 <IO_write>

	//data phase IN-2
	IO_write(HPI_DATA,0x054c); //520
10001518:	0009883a 	mov	r4,zero
1000151c:	01415304 	movi	r5,1356
10001520:	00002480 	call	10000248 <IO_write>
	IO_write(HPI_DATA,0x0008);//2
10001524:	0009883a 	mov	r4,zero
10001528:	01400204 	movi	r5,8
1000152c:	00002480 	call	10000248 <IO_write>
	IO_write(HPI_DATA,0x0290);//4
10001530:	0009883a 	mov	r4,zero
10001534:	0140a404 	movi	r5,656
10001538:	00002480 	call	10000248 <IO_write>
	IO_write(HPI_DATA,0x0001);//6
1000153c:	0009883a 	mov	r4,zero
10001540:	01400044 	movi	r5,1
10001544:	00002480 	call	10000248 <IO_write>
	IO_write(HPI_DATA,0x0013);//8
10001548:	0009883a 	mov	r4,zero
1000154c:	014004c4 	movi	r5,19
10001550:	00002480 	call	10000248 <IO_write>
	IO_write(HPI_DATA,0x052c);//a
10001554:	0009883a 	mov	r4,zero
10001558:	01414b04 	movi	r5,1324
1000155c:	00002480 	call	10000248 <IO_write>

	//data phase IN-3
	IO_write(HPI_DATA,0x0554); //c
10001560:	0009883a 	mov	r4,zero
10001564:	01415504 	movi	r5,1364
10001568:	00002480 	call	10000248 <IO_write>
	IO_write(HPI_DATA,0x0002);//e
1000156c:	0009883a 	mov	r4,zero
10001570:	01400084 	movi	r5,2
10001574:	00002480 	call	10000248 <IO_write>
	IO_write(HPI_DATA,0x0290);//530
10001578:	0009883a 	mov	r4,zero
1000157c:	0140a404 	movi	r5,656
10001580:	00002480 	call	10000248 <IO_write>
	IO_write(HPI_DATA,0x0041);//2
10001584:	0009883a 	mov	r4,zero
10001588:	01401044 	movi	r5,65
1000158c:	00002480 	call	10000248 <IO_write>
	IO_write(HPI_DATA,0x0013);//4
10001590:	0009883a 	mov	r4,zero
10001594:	014004c4 	movi	r5,19
10001598:	00002480 	call	10000248 <IO_write>
	IO_write(HPI_DATA,0x0538);//6
1000159c:	0009883a 	mov	r4,zero
100015a0:	01414e04 	movi	r5,1336
100015a4:	00002480 	call	10000248 <IO_write>

	//status phase
	IO_write(HPI_DATA,0x0000); //538
100015a8:	0009883a 	mov	r4,zero
100015ac:	000b883a 	mov	r5,zero
100015b0:	00002480 	call	10000248 <IO_write>
	IO_write(HPI_DATA,0x0000);//a
100015b4:	0009883a 	mov	r4,zero
100015b8:	000b883a 	mov	r5,zero
100015bc:	00002480 	call	10000248 <IO_write>
	IO_write(HPI_DATA,0x0210);//c
100015c0:	0009883a 	mov	r4,zero
100015c4:	01408404 	movi	r5,528
100015c8:	00002480 	call	10000248 <IO_write>
	IO_write(HPI_DATA,0x0041);//e
100015cc:	0009883a 	mov	r4,zero
100015d0:	01401044 	movi	r5,65
100015d4:	00002480 	call	10000248 <IO_write>
	IO_write(HPI_DATA,0x0013);//540
100015d8:	0009883a 	mov	r4,zero
100015dc:	014004c4 	movi	r5,19
100015e0:	00002480 	call	10000248 <IO_write>
	IO_write(HPI_DATA,0x0000);//2
100015e4:	0009883a 	mov	r4,zero
100015e8:	000b883a 	mov	r5,zero
100015ec:	00002480 	call	10000248 <IO_write>

	UsbWrite(HUSB_SIE1_pCurrentTDPtr,0x0500); //HUSB_SIE1_pCurrentTDPtr
100015f0:	01006c04 	movi	r4,432
100015f4:	01414004 	movi	r5,1280
100015f8:	00010ac0 	call	100010ac <UsbWrite>
}
100015fc:	e037883a 	mov	sp,fp
10001600:	dfc00117 	ldw	ra,4(sp)
10001604:	df000017 	ldw	fp,0(sp)
10001608:	dec00204 	addi	sp,sp,8
1000160c:	f800283a 	ret

10001610 <UsbGetConfigDesc1>:


void UsbGetConfigDesc1()
{
10001610:	defffe04 	addi	sp,sp,-8
10001614:	dfc00115 	stw	ra,4(sp)
10001618:	df000015 	stw	fp,0(sp)
1000161c:	d839883a 	mov	fp,sp
	//the starting address
	IO_write(HPI_ADDR,0x0500); //the start address
10001620:	01000084 	movi	r4,2
10001624:	01414004 	movi	r5,1280
10001628:	00002480 	call	10000248 <IO_write>
	IO_write(HPI_DATA,0x050C);
1000162c:	0009883a 	mov	r4,zero
10001630:	01414304 	movi	r5,1292
10001634:	00002480 	call	10000248 <IO_write>
	IO_write(HPI_DATA,0x0008); //4 port number
10001638:	0009883a 	mov	r4,zero
1000163c:	01400204 	movi	r5,8
10001640:	00002480 	call	10000248 <IO_write>
	IO_write(HPI_DATA,0x02D0); //device address
10001644:	0009883a 	mov	r4,zero
10001648:	0140b404 	movi	r5,720
1000164c:	00002480 	call	10000248 <IO_write>
	IO_write(HPI_DATA,0x0001);
10001650:	0009883a 	mov	r4,zero
10001654:	01400044 	movi	r5,1
10001658:	00002480 	call	10000248 <IO_write>
	IO_write(HPI_DATA,0x0013);
1000165c:	0009883a 	mov	r4,zero
10001660:	014004c4 	movi	r5,19
10001664:	00002480 	call	10000248 <IO_write>
	IO_write(HPI_DATA,0x0514);
10001668:	0009883a 	mov	r4,zero
1000166c:	01414504 	movi	r5,1300
10001670:	00002480 	call	10000248 <IO_write>

	//td content 4 bytes
	IO_write(HPI_DATA,0x0680);//c
10001674:	0009883a 	mov	r4,zero
10001678:	0141a004 	movi	r5,1664
1000167c:	00002480 	call	10000248 <IO_write>
	IO_write(HPI_DATA,0x0200);//e //config 0x02
10001680:	0009883a 	mov	r4,zero
10001684:	01408004 	movi	r5,512
10001688:	00002480 	call	10000248 <IO_write>
	IO_write(HPI_DATA,0x0000);//0
1000168c:	0009883a 	mov	r4,zero
10001690:	000b883a 	mov	r5,zero
10001694:	00002480 	call	10000248 <IO_write>
	IO_write(HPI_DATA,0x0009);//2
10001698:	0009883a 	mov	r4,zero
1000169c:	01400244 	movi	r5,9
100016a0:	00002480 	call	10000248 <IO_write>

	//data phase IN-1
	IO_write(HPI_DATA,0x0544); //514
100016a4:	0009883a 	mov	r4,zero
100016a8:	01415104 	movi	r5,1348
100016ac:	00002480 	call	10000248 <IO_write>
	IO_write(HPI_DATA,0x0008);//6
100016b0:	0009883a 	mov	r4,zero
100016b4:	01400204 	movi	r5,8
100016b8:	00002480 	call	10000248 <IO_write>
	IO_write(HPI_DATA,0x0290);//8
100016bc:	0009883a 	mov	r4,zero
100016c0:	0140a404 	movi	r5,656
100016c4:	00002480 	call	10000248 <IO_write>
	IO_write(HPI_DATA,0x0041);//a
100016c8:	0009883a 	mov	r4,zero
100016cc:	01401044 	movi	r5,65
100016d0:	00002480 	call	10000248 <IO_write>
	IO_write(HPI_DATA,0x0013);//c
100016d4:	0009883a 	mov	r4,zero
100016d8:	014004c4 	movi	r5,19
100016dc:	00002480 	call	10000248 <IO_write>
	IO_write(HPI_DATA,0x0520);//e
100016e0:	0009883a 	mov	r4,zero
100016e4:	01414804 	movi	r5,1312
100016e8:	00002480 	call	10000248 <IO_write>

	//data phase IN-2
	IO_write(HPI_DATA,0x054c); //520
100016ec:	0009883a 	mov	r4,zero
100016f0:	01415304 	movi	r5,1356
100016f4:	00002480 	call	10000248 <IO_write>
	IO_write(HPI_DATA,0x0001);//2
100016f8:	0009883a 	mov	r4,zero
100016fc:	01400044 	movi	r5,1
10001700:	00002480 	call	10000248 <IO_write>
	IO_write(HPI_DATA,0x0290);//4
10001704:	0009883a 	mov	r4,zero
10001708:	0140a404 	movi	r5,656
1000170c:	00002480 	call	10000248 <IO_write>
	IO_write(HPI_DATA,0x0001);//6 //data0
10001710:	0009883a 	mov	r4,zero
10001714:	01400044 	movi	r5,1
10001718:	00002480 	call	10000248 <IO_write>
	IO_write(HPI_DATA,0x0013);//8
1000171c:	0009883a 	mov	r4,zero
10001720:	014004c4 	movi	r5,19
10001724:	00002480 	call	10000248 <IO_write>
	IO_write(HPI_DATA,0x052c);//a
10001728:	0009883a 	mov	r4,zero
1000172c:	01414b04 	movi	r5,1324
10001730:	00002480 	call	10000248 <IO_write>

	//status phase
	IO_write(HPI_DATA,0x0000); //52c
10001734:	0009883a 	mov	r4,zero
10001738:	000b883a 	mov	r5,zero
1000173c:	00002480 	call	10000248 <IO_write>
	IO_write(HPI_DATA,0x0000);//e
10001740:	0009883a 	mov	r4,zero
10001744:	000b883a 	mov	r5,zero
10001748:	00002480 	call	10000248 <IO_write>
	IO_write(HPI_DATA,0x0210);//530
1000174c:	0009883a 	mov	r4,zero
10001750:	01408404 	movi	r5,528
10001754:	00002480 	call	10000248 <IO_write>
	IO_write(HPI_DATA,0x0041);//2
10001758:	0009883a 	mov	r4,zero
1000175c:	01401044 	movi	r5,65
10001760:	00002480 	call	10000248 <IO_write>
	IO_write(HPI_DATA,0x0013);//4
10001764:	0009883a 	mov	r4,zero
10001768:	014004c4 	movi	r5,19
1000176c:	00002480 	call	10000248 <IO_write>
	IO_write(HPI_DATA,0x0000);//6
10001770:	0009883a 	mov	r4,zero
10001774:	000b883a 	mov	r5,zero
10001778:	00002480 	call	10000248 <IO_write>

	UsbWrite(HUSB_SIE1_pCurrentTDPtr,0x0500); //HUSB_SIE1_pCurrentTDPtr
1000177c:	01006c04 	movi	r4,432
10001780:	01414004 	movi	r5,1280
10001784:	00010ac0 	call	100010ac <UsbWrite>
}
10001788:	e037883a 	mov	sp,fp
1000178c:	dfc00117 	ldw	ra,4(sp)
10001790:	df000017 	ldw	fp,0(sp)
10001794:	dec00204 	addi	sp,sp,8
10001798:	f800283a 	ret

1000179c <UsbGetConfigDesc2>:


void UsbGetConfigDesc2()
{
1000179c:	defffe04 	addi	sp,sp,-8
100017a0:	dfc00115 	stw	ra,4(sp)
100017a4:	df000015 	stw	fp,0(sp)
100017a8:	d839883a 	mov	fp,sp
	//the starting address
	IO_write(HPI_ADDR,0x0500); //the start address
100017ac:	01000084 	movi	r4,2
100017b0:	01414004 	movi	r5,1280
100017b4:	00002480 	call	10000248 <IO_write>
	IO_write(HPI_DATA,0x050C);
100017b8:	0009883a 	mov	r4,zero
100017bc:	01414304 	movi	r5,1292
100017c0:	00002480 	call	10000248 <IO_write>
	IO_write(HPI_DATA,0x0008); //4 port number
100017c4:	0009883a 	mov	r4,zero
100017c8:	01400204 	movi	r5,8
100017cc:	00002480 	call	10000248 <IO_write>
	IO_write(HPI_DATA,0x02D0); //device address
100017d0:	0009883a 	mov	r4,zero
100017d4:	0140b404 	movi	r5,720
100017d8:	00002480 	call	10000248 <IO_write>
	IO_write(HPI_DATA,0x0001);
100017dc:	0009883a 	mov	r4,zero
100017e0:	01400044 	movi	r5,1
100017e4:	00002480 	call	10000248 <IO_write>
	IO_write(HPI_DATA,0x0013);
100017e8:	0009883a 	mov	r4,zero
100017ec:	014004c4 	movi	r5,19
100017f0:	00002480 	call	10000248 <IO_write>
	IO_write(HPI_DATA,0x0514);
100017f4:	0009883a 	mov	r4,zero
100017f8:	01414504 	movi	r5,1300
100017fc:	00002480 	call	10000248 <IO_write>

	//td content 4 bytes
	IO_write(HPI_DATA,0x0680);//c
10001800:	0009883a 	mov	r4,zero
10001804:	0141a004 	movi	r5,1664
10001808:	00002480 	call	10000248 <IO_write>
	IO_write(HPI_DATA,0x0200);//e //config 0x02
1000180c:	0009883a 	mov	r4,zero
10001810:	01408004 	movi	r5,512
10001814:	00002480 	call	10000248 <IO_write>
	IO_write(HPI_DATA,0x0000);//0
10001818:	0009883a 	mov	r4,zero
1000181c:	000b883a 	mov	r5,zero
10001820:	00002480 	call	10000248 <IO_write>
	IO_write(HPI_DATA,0x00FF);//2
10001824:	0009883a 	mov	r4,zero
10001828:	01403fc4 	movi	r5,255
1000182c:	00002480 	call	10000248 <IO_write>

	//data phase IN-1
	IO_write(HPI_DATA,0x055c); //514
10001830:	0009883a 	mov	r4,zero
10001834:	01415704 	movi	r5,1372
10001838:	00002480 	call	10000248 <IO_write>
	IO_write(HPI_DATA,0x0008);//6
1000183c:	0009883a 	mov	r4,zero
10001840:	01400204 	movi	r5,8
10001844:	00002480 	call	10000248 <IO_write>
	IO_write(HPI_DATA,0x0290);//8
10001848:	0009883a 	mov	r4,zero
1000184c:	0140a404 	movi	r5,656
10001850:	00002480 	call	10000248 <IO_write>
	IO_write(HPI_DATA,0x0041);//a
10001854:	0009883a 	mov	r4,zero
10001858:	01401044 	movi	r5,65
1000185c:	00002480 	call	10000248 <IO_write>
	IO_write(HPI_DATA,0x0013);//c
10001860:	0009883a 	mov	r4,zero
10001864:	014004c4 	movi	r5,19
10001868:	00002480 	call	10000248 <IO_write>
	IO_write(HPI_DATA,0x0520);//e
1000186c:	0009883a 	mov	r4,zero
10001870:	01414804 	movi	r5,1312
10001874:	00002480 	call	10000248 <IO_write>

	//data phase IN-2
	IO_write(HPI_DATA,0x0564); //520
10001878:	0009883a 	mov	r4,zero
1000187c:	01415904 	movi	r5,1380
10001880:	00002480 	call	10000248 <IO_write>
	IO_write(HPI_DATA,0x0008);//2
10001884:	0009883a 	mov	r4,zero
10001888:	01400204 	movi	r5,8
1000188c:	00002480 	call	10000248 <IO_write>
	IO_write(HPI_DATA,0x0290);//4
10001890:	0009883a 	mov	r4,zero
10001894:	0140a404 	movi	r5,656
10001898:	00002480 	call	10000248 <IO_write>
	IO_write(HPI_DATA,0x0001);//6 //data0
1000189c:	0009883a 	mov	r4,zero
100018a0:	01400044 	movi	r5,1
100018a4:	00002480 	call	10000248 <IO_write>
	IO_write(HPI_DATA,0x0013);//8
100018a8:	0009883a 	mov	r4,zero
100018ac:	014004c4 	movi	r5,19
100018b0:	00002480 	call	10000248 <IO_write>
	IO_write(HPI_DATA,0x052c);//a
100018b4:	0009883a 	mov	r4,zero
100018b8:	01414b04 	movi	r5,1324
100018bc:	00002480 	call	10000248 <IO_write>

	//data phase IN-3
	IO_write(HPI_DATA,0x056c); //52c
100018c0:	0009883a 	mov	r4,zero
100018c4:	01415b04 	movi	r5,1388
100018c8:	00002480 	call	10000248 <IO_write>
	IO_write(HPI_DATA,0x0008);//e
100018cc:	0009883a 	mov	r4,zero
100018d0:	01400204 	movi	r5,8
100018d4:	00002480 	call	10000248 <IO_write>
	IO_write(HPI_DATA,0x0290);//530
100018d8:	0009883a 	mov	r4,zero
100018dc:	0140a404 	movi	r5,656
100018e0:	00002480 	call	10000248 <IO_write>
	IO_write(HPI_DATA,0x0041);//2
100018e4:	0009883a 	mov	r4,zero
100018e8:	01401044 	movi	r5,65
100018ec:	00002480 	call	10000248 <IO_write>
	IO_write(HPI_DATA,0x0013);//4
100018f0:	0009883a 	mov	r4,zero
100018f4:	014004c4 	movi	r5,19
100018f8:	00002480 	call	10000248 <IO_write>
	IO_write(HPI_DATA,0x0538);//6
100018fc:	0009883a 	mov	r4,zero
10001900:	01414e04 	movi	r5,1336
10001904:	00002480 	call	10000248 <IO_write>

	//data phase IN-4
	IO_write(HPI_DATA,0x0574); //538
10001908:	0009883a 	mov	r4,zero
1000190c:	01415d04 	movi	r5,1396
10001910:	00002480 	call	10000248 <IO_write>
	IO_write(HPI_DATA,0x0008);//a
10001914:	0009883a 	mov	r4,zero
10001918:	01400204 	movi	r5,8
1000191c:	00002480 	call	10000248 <IO_write>
	IO_write(HPI_DATA,0x0290);//c
10001920:	0009883a 	mov	r4,zero
10001924:	0140a404 	movi	r5,656
10001928:	00002480 	call	10000248 <IO_write>
	IO_write(HPI_DATA,0x0001);//e //data0
1000192c:	0009883a 	mov	r4,zero
10001930:	01400044 	movi	r5,1
10001934:	00002480 	call	10000248 <IO_write>
	IO_write(HPI_DATA,0x0013);//540
10001938:	0009883a 	mov	r4,zero
1000193c:	014004c4 	movi	r5,19
10001940:	00002480 	call	10000248 <IO_write>
	IO_write(HPI_DATA,0x0544);//2
10001944:	0009883a 	mov	r4,zero
10001948:	01415104 	movi	r5,1348
1000194c:	00002480 	call	10000248 <IO_write>

	//data phase IN-5
	IO_write(HPI_DATA,0x057c); //544
10001950:	0009883a 	mov	r4,zero
10001954:	01415f04 	movi	r5,1404
10001958:	00002480 	call	10000248 <IO_write>
	IO_write(HPI_DATA,0x0002);//6
1000195c:	0009883a 	mov	r4,zero
10001960:	01400084 	movi	r5,2
10001964:	00002480 	call	10000248 <IO_write>
	IO_write(HPI_DATA,0x0290);//8
10001968:	0009883a 	mov	r4,zero
1000196c:	0140a404 	movi	r5,656
10001970:	00002480 	call	10000248 <IO_write>
	IO_write(HPI_DATA,0x0041);//a //data1
10001974:	0009883a 	mov	r4,zero
10001978:	01401044 	movi	r5,65
1000197c:	00002480 	call	10000248 <IO_write>
	IO_write(HPI_DATA,0x0013);//c
10001980:	0009883a 	mov	r4,zero
10001984:	014004c4 	movi	r5,19
10001988:	00002480 	call	10000248 <IO_write>
	IO_write(HPI_DATA,0x0550);//e
1000198c:	0009883a 	mov	r4,zero
10001990:	01415404 	movi	r5,1360
10001994:	00002480 	call	10000248 <IO_write>

	//status phase
	IO_write(HPI_DATA,0x0000); //550
10001998:	0009883a 	mov	r4,zero
1000199c:	000b883a 	mov	r5,zero
100019a0:	00002480 	call	10000248 <IO_write>
	IO_write(HPI_DATA,0x0000);//2
100019a4:	0009883a 	mov	r4,zero
100019a8:	000b883a 	mov	r5,zero
100019ac:	00002480 	call	10000248 <IO_write>
	IO_write(HPI_DATA,0x0210);//4
100019b0:	0009883a 	mov	r4,zero
100019b4:	01408404 	movi	r5,528
100019b8:	00002480 	call	10000248 <IO_write>
	IO_write(HPI_DATA,0x0041);//6
100019bc:	0009883a 	mov	r4,zero
100019c0:	01401044 	movi	r5,65
100019c4:	00002480 	call	10000248 <IO_write>
	IO_write(HPI_DATA,0x0013);//8
100019c8:	0009883a 	mov	r4,zero
100019cc:	014004c4 	movi	r5,19
100019d0:	00002480 	call	10000248 <IO_write>
	IO_write(HPI_DATA,0x0000);//a
100019d4:	0009883a 	mov	r4,zero
100019d8:	000b883a 	mov	r5,zero
100019dc:	00002480 	call	10000248 <IO_write>

	UsbWrite(HUSB_SIE1_pCurrentTDPtr,0x0500); //HUSB_SIE1_pCurrentTDPtr
100019e0:	01006c04 	movi	r4,432
100019e4:	01414004 	movi	r5,1280
100019e8:	00010ac0 	call	100010ac <UsbWrite>
}
100019ec:	e037883a 	mov	sp,fp
100019f0:	dfc00117 	ldw	ra,4(sp)
100019f4:	df000017 	ldw	fp,0(sp)
100019f8:	dec00204 	addi	sp,sp,8
100019fc:	f800283a 	ret

10001a00 <UsbSetConfig>:

void UsbSetConfig()
{
10001a00:	defffe04 	addi	sp,sp,-8
10001a04:	dfc00115 	stw	ra,4(sp)
10001a08:	df000015 	stw	fp,0(sp)
10001a0c:	d839883a 	mov	fp,sp
	//the starting address
	IO_write(HPI_ADDR,0x0500); //the start address
10001a10:	01000084 	movi	r4,2
10001a14:	01414004 	movi	r5,1280
10001a18:	00002480 	call	10000248 <IO_write>
	IO_write(HPI_DATA,0x050C);
10001a1c:	0009883a 	mov	r4,zero
10001a20:	01414304 	movi	r5,1292
10001a24:	00002480 	call	10000248 <IO_write>
	IO_write(HPI_DATA,0x0008); //4 port number
10001a28:	0009883a 	mov	r4,zero
10001a2c:	01400204 	movi	r5,8
10001a30:	00002480 	call	10000248 <IO_write>
	IO_write(HPI_DATA,0x02D0); //port address
10001a34:	0009883a 	mov	r4,zero
10001a38:	0140b404 	movi	r5,720
10001a3c:	00002480 	call	10000248 <IO_write>
	IO_write(HPI_DATA,0x0001);
10001a40:	0009883a 	mov	r4,zero
10001a44:	01400044 	movi	r5,1
10001a48:	00002480 	call	10000248 <IO_write>
	IO_write(HPI_DATA,0x0013);
10001a4c:	0009883a 	mov	r4,zero
10001a50:	014004c4 	movi	r5,19
10001a54:	00002480 	call	10000248 <IO_write>
	IO_write(HPI_DATA,0x0514);
10001a58:	0009883a 	mov	r4,zero
10001a5c:	01414504 	movi	r5,1300
10001a60:	00002480 	call	10000248 <IO_write>

	//td content 4 bytes
	IO_write(HPI_DATA,0x0900);
10001a64:	0009883a 	mov	r4,zero
10001a68:	01424004 	movi	r5,2304
10001a6c:	00002480 	call	10000248 <IO_write>
	IO_write(HPI_DATA,0x0001);//device address
10001a70:	0009883a 	mov	r4,zero
10001a74:	01400044 	movi	r5,1
10001a78:	00002480 	call	10000248 <IO_write>
	IO_write(HPI_DATA,0x0000);
10001a7c:	0009883a 	mov	r4,zero
10001a80:	000b883a 	mov	r5,zero
10001a84:	00002480 	call	10000248 <IO_write>
	IO_write(HPI_DATA,0x0000);
10001a88:	0009883a 	mov	r4,zero
10001a8c:	000b883a 	mov	r5,zero
10001a90:	00002480 	call	10000248 <IO_write>
	//in packet
	IO_write(HPI_DATA,0x0000); //don't care
10001a94:	0009883a 	mov	r4,zero
10001a98:	000b883a 	mov	r5,zero
10001a9c:	00002480 	call	10000248 <IO_write>
	IO_write(HPI_DATA,0x0000);//port number
10001aa0:	0009883a 	mov	r4,zero
10001aa4:	000b883a 	mov	r5,zero
10001aa8:	00002480 	call	10000248 <IO_write>
	IO_write(HPI_DATA,0x0290);//device address
10001aac:	0009883a 	mov	r4,zero
10001ab0:	0140a404 	movi	r5,656
10001ab4:	00002480 	call	10000248 <IO_write>
	IO_write(HPI_DATA,0x0041); //data 1
10001ab8:	0009883a 	mov	r4,zero
10001abc:	01401044 	movi	r5,65
10001ac0:	00002480 	call	10000248 <IO_write>
	IO_write(HPI_DATA,0x0013);
10001ac4:	0009883a 	mov	r4,zero
10001ac8:	014004c4 	movi	r5,19
10001acc:	00002480 	call	10000248 <IO_write>
	IO_write(HPI_DATA,0x0000);
10001ad0:	0009883a 	mov	r4,zero
10001ad4:	000b883a 	mov	r5,zero
10001ad8:	00002480 	call	10000248 <IO_write>

	UsbWrite(HUSB_SIE1_pCurrentTDPtr,0x0500); //HUSB_SIE1_pCurrentTDPtr
10001adc:	01006c04 	movi	r4,432
10001ae0:	01414004 	movi	r5,1280
10001ae4:	00010ac0 	call	100010ac <UsbWrite>

}
10001ae8:	e037883a 	mov	sp,fp
10001aec:	dfc00117 	ldw	ra,4(sp)
10001af0:	df000017 	ldw	fp,0(sp)
10001af4:	dec00204 	addi	sp,sp,8
10001af8:	f800283a 	ret

10001afc <UsbClassRequest>:

void UsbClassRequest()
{
10001afc:	defffe04 	addi	sp,sp,-8
10001b00:	dfc00115 	stw	ra,4(sp)
10001b04:	df000015 	stw	fp,0(sp)
10001b08:	d839883a 	mov	fp,sp
	//the starting address
	IO_write(HPI_ADDR,0x0500); //the start address
10001b0c:	01000084 	movi	r4,2
10001b10:	01414004 	movi	r5,1280
10001b14:	00002480 	call	10000248 <IO_write>
	IO_write(HPI_DATA,0x050C);
10001b18:	0009883a 	mov	r4,zero
10001b1c:	01414304 	movi	r5,1292
10001b20:	00002480 	call	10000248 <IO_write>
	IO_write(HPI_DATA,0x0008); //4 port number
10001b24:	0009883a 	mov	r4,zero
10001b28:	01400204 	movi	r5,8
10001b2c:	00002480 	call	10000248 <IO_write>
	IO_write(HPI_DATA,0x02D0); //port address
10001b30:	0009883a 	mov	r4,zero
10001b34:	0140b404 	movi	r5,720
10001b38:	00002480 	call	10000248 <IO_write>
	IO_write(HPI_DATA,0x0001);
10001b3c:	0009883a 	mov	r4,zero
10001b40:	01400044 	movi	r5,1
10001b44:	00002480 	call	10000248 <IO_write>
	IO_write(HPI_DATA,0x0013);
10001b48:	0009883a 	mov	r4,zero
10001b4c:	014004c4 	movi	r5,19
10001b50:	00002480 	call	10000248 <IO_write>
	IO_write(HPI_DATA,0x0514);
10001b54:	0009883a 	mov	r4,zero
10001b58:	01414504 	movi	r5,1300
10001b5c:	00002480 	call	10000248 <IO_write>

	//td content 4 bytes
	IO_write(HPI_DATA,0x0A21);
10001b60:	0009883a 	mov	r4,zero
10001b64:	01428844 	movi	r5,2593
10001b68:	00002480 	call	10000248 <IO_write>
	IO_write(HPI_DATA,0x0000);//device address
10001b6c:	0009883a 	mov	r4,zero
10001b70:	000b883a 	mov	r5,zero
10001b74:	00002480 	call	10000248 <IO_write>
	IO_write(HPI_DATA,0x0000);
10001b78:	0009883a 	mov	r4,zero
10001b7c:	000b883a 	mov	r5,zero
10001b80:	00002480 	call	10000248 <IO_write>
	IO_write(HPI_DATA,0x0000);
10001b84:	0009883a 	mov	r4,zero
10001b88:	000b883a 	mov	r5,zero
10001b8c:	00002480 	call	10000248 <IO_write>
	//in packet
	IO_write(HPI_DATA,0x0000); //don't care
10001b90:	0009883a 	mov	r4,zero
10001b94:	000b883a 	mov	r5,zero
10001b98:	00002480 	call	10000248 <IO_write>
	IO_write(HPI_DATA,0x0000);//port number /data length
10001b9c:	0009883a 	mov	r4,zero
10001ba0:	000b883a 	mov	r5,zero
10001ba4:	00002480 	call	10000248 <IO_write>
	IO_write(HPI_DATA,0x0290);//device address
10001ba8:	0009883a 	mov	r4,zero
10001bac:	0140a404 	movi	r5,656
10001bb0:	00002480 	call	10000248 <IO_write>
	IO_write(HPI_DATA,0x0041); //data 1
10001bb4:	0009883a 	mov	r4,zero
10001bb8:	01401044 	movi	r5,65
10001bbc:	00002480 	call	10000248 <IO_write>
	IO_write(HPI_DATA,0x0013);
10001bc0:	0009883a 	mov	r4,zero
10001bc4:	014004c4 	movi	r5,19
10001bc8:	00002480 	call	10000248 <IO_write>
	IO_write(HPI_DATA,0x0000);
10001bcc:	0009883a 	mov	r4,zero
10001bd0:	000b883a 	mov	r5,zero
10001bd4:	00002480 	call	10000248 <IO_write>

	UsbWrite(HUSB_SIE1_pCurrentTDPtr,0x0500); //HUSB_SIE1_pCurrentTDPtr
10001bd8:	01006c04 	movi	r4,432
10001bdc:	01414004 	movi	r5,1280
10001be0:	00010ac0 	call	100010ac <UsbWrite>
}
10001be4:	e037883a 	mov	sp,fp
10001be8:	dfc00117 	ldw	ra,4(sp)
10001bec:	df000017 	ldw	fp,0(sp)
10001bf0:	dec00204 	addi	sp,sp,8
10001bf4:	f800283a 	ret

10001bf8 <UsbGetHidDesc>:


void UsbGetHidDesc()
{
10001bf8:	defffe04 	addi	sp,sp,-8
10001bfc:	dfc00115 	stw	ra,4(sp)
10001c00:	df000015 	stw	fp,0(sp)
10001c04:	d839883a 	mov	fp,sp
	//the starting address
	IO_write(HPI_ADDR,0x0500); //the start address
10001c08:	01000084 	movi	r4,2
10001c0c:	01414004 	movi	r5,1280
10001c10:	00002480 	call	10000248 <IO_write>
	IO_write(HPI_DATA,0x050C);
10001c14:	0009883a 	mov	r4,zero
10001c18:	01414304 	movi	r5,1292
10001c1c:	00002480 	call	10000248 <IO_write>
	IO_write(HPI_DATA,0x0008); //4 port number
10001c20:	0009883a 	mov	r4,zero
10001c24:	01400204 	movi	r5,8
10001c28:	00002480 	call	10000248 <IO_write>
	IO_write(HPI_DATA,0x02D0); //port address
10001c2c:	0009883a 	mov	r4,zero
10001c30:	0140b404 	movi	r5,720
10001c34:	00002480 	call	10000248 <IO_write>
	IO_write(HPI_DATA,0x0001);
10001c38:	0009883a 	mov	r4,zero
10001c3c:	01400044 	movi	r5,1
10001c40:	00002480 	call	10000248 <IO_write>
	IO_write(HPI_DATA,0x0013);
10001c44:	0009883a 	mov	r4,zero
10001c48:	014004c4 	movi	r5,19
10001c4c:	00002480 	call	10000248 <IO_write>
	IO_write(HPI_DATA,0x0514);
10001c50:	0009883a 	mov	r4,zero
10001c54:	01414504 	movi	r5,1300
10001c58:	00002480 	call	10000248 <IO_write>

	//td content 4 bytes
	IO_write(HPI_DATA,0x0681);//c
10001c5c:	0009883a 	mov	r4,zero
10001c60:	0141a044 	movi	r5,1665
10001c64:	00002480 	call	10000248 <IO_write>
	IO_write(HPI_DATA,0x2100);//e //HID 0x21
10001c68:	0009883a 	mov	r4,zero
10001c6c:	01484004 	movi	r5,8448
10001c70:	00002480 	call	10000248 <IO_write>
	IO_write(HPI_DATA,0x0000);//0
10001c74:	0009883a 	mov	r4,zero
10001c78:	000b883a 	mov	r5,zero
10001c7c:	00002480 	call	10000248 <IO_write>
	IO_write(HPI_DATA,0x007B);//2
10001c80:	0009883a 	mov	r4,zero
10001c84:	01401ec4 	movi	r5,123
10001c88:	00002480 	call	10000248 <IO_write>

	//data phase IN-1
	IO_write(HPI_DATA,0x0544); //514
10001c8c:	0009883a 	mov	r4,zero
10001c90:	01415104 	movi	r5,1348
10001c94:	00002480 	call	10000248 <IO_write>
	IO_write(HPI_DATA,0x0008);//6
10001c98:	0009883a 	mov	r4,zero
10001c9c:	01400204 	movi	r5,8
10001ca0:	00002480 	call	10000248 <IO_write>
	IO_write(HPI_DATA,0x0290);//8
10001ca4:	0009883a 	mov	r4,zero
10001ca8:	0140a404 	movi	r5,656
10001cac:	00002480 	call	10000248 <IO_write>
	IO_write(HPI_DATA,0x0041);//a
10001cb0:	0009883a 	mov	r4,zero
10001cb4:	01401044 	movi	r5,65
10001cb8:	00002480 	call	10000248 <IO_write>
	IO_write(HPI_DATA,0x0013);//c
10001cbc:	0009883a 	mov	r4,zero
10001cc0:	014004c4 	movi	r5,19
10001cc4:	00002480 	call	10000248 <IO_write>
	IO_write(HPI_DATA,0x0520);//e
10001cc8:	0009883a 	mov	r4,zero
10001ccc:	01414804 	movi	r5,1312
10001cd0:	00002480 	call	10000248 <IO_write>

	//status phase
	IO_write(HPI_DATA,0x0000); //52c
10001cd4:	0009883a 	mov	r4,zero
10001cd8:	000b883a 	mov	r5,zero
10001cdc:	00002480 	call	10000248 <IO_write>
	IO_write(HPI_DATA,0x0000);//e
10001ce0:	0009883a 	mov	r4,zero
10001ce4:	000b883a 	mov	r5,zero
10001ce8:	00002480 	call	10000248 <IO_write>
	IO_write(HPI_DATA,0x0210);//530
10001cec:	0009883a 	mov	r4,zero
10001cf0:	01408404 	movi	r5,528
10001cf4:	00002480 	call	10000248 <IO_write>
	IO_write(HPI_DATA,0x0041);//2
10001cf8:	0009883a 	mov	r4,zero
10001cfc:	01401044 	movi	r5,65
10001d00:	00002480 	call	10000248 <IO_write>
	IO_write(HPI_DATA,0x0013);//4
10001d04:	0009883a 	mov	r4,zero
10001d08:	014004c4 	movi	r5,19
10001d0c:	00002480 	call	10000248 <IO_write>
	IO_write(HPI_DATA,0x0000);//6
10001d10:	0009883a 	mov	r4,zero
10001d14:	000b883a 	mov	r5,zero
10001d18:	00002480 	call	10000248 <IO_write>

	UsbWrite(HUSB_SIE1_pCurrentTDPtr,0x0500); //HUSB_SIE1_pCurrentTDPtr
10001d1c:	01006c04 	movi	r4,432
10001d20:	01414004 	movi	r5,1280
10001d24:	00010ac0 	call	100010ac <UsbWrite>

}
10001d28:	e037883a 	mov	sp,fp
10001d2c:	dfc00117 	ldw	ra,4(sp)
10001d30:	df000017 	ldw	fp,0(sp)
10001d34:	dec00204 	addi	sp,sp,8
10001d38:	f800283a 	ret

10001d3c <UsbGetReportDesc>:


void UsbGetReportDesc()
{
10001d3c:	defffe04 	addi	sp,sp,-8
10001d40:	dfc00115 	stw	ra,4(sp)
10001d44:	df000015 	stw	fp,0(sp)
10001d48:	d839883a 	mov	fp,sp
	//the starting address
	IO_write(HPI_ADDR,0x0500); //the start address
10001d4c:	01000084 	movi	r4,2
10001d50:	01414004 	movi	r5,1280
10001d54:	00002480 	call	10000248 <IO_write>
	IO_write(HPI_DATA,0x050C);
10001d58:	0009883a 	mov	r4,zero
10001d5c:	01414304 	movi	r5,1292
10001d60:	00002480 	call	10000248 <IO_write>
	IO_write(HPI_DATA,0x0008); //4 port number
10001d64:	0009883a 	mov	r4,zero
10001d68:	01400204 	movi	r5,8
10001d6c:	00002480 	call	10000248 <IO_write>
	IO_write(HPI_DATA,0x02D0); //device address
10001d70:	0009883a 	mov	r4,zero
10001d74:	0140b404 	movi	r5,720
10001d78:	00002480 	call	10000248 <IO_write>
	IO_write(HPI_DATA,0x0001);
10001d7c:	0009883a 	mov	r4,zero
10001d80:	01400044 	movi	r5,1
10001d84:	00002480 	call	10000248 <IO_write>
	IO_write(HPI_DATA,0x0013);
10001d88:	0009883a 	mov	r4,zero
10001d8c:	014004c4 	movi	r5,19
10001d90:	00002480 	call	10000248 <IO_write>
	IO_write(HPI_DATA,0x0514);
10001d94:	0009883a 	mov	r4,zero
10001d98:	01414504 	movi	r5,1300
10001d9c:	00002480 	call	10000248 <IO_write>

	//td content 4 bytes
	IO_write(HPI_DATA,0x0681);//c
10001da0:	0009883a 	mov	r4,zero
10001da4:	0141a044 	movi	r5,1665
10001da8:	00002480 	call	10000248 <IO_write>
	IO_write(HPI_DATA,0x2200);//e //report 0x22
10001dac:	0009883a 	mov	r4,zero
10001db0:	01488004 	movi	r5,8704
10001db4:	00002480 	call	10000248 <IO_write>
	IO_write(HPI_DATA,0x0000);//0
10001db8:	0009883a 	mov	r4,zero
10001dbc:	000b883a 	mov	r5,zero
10001dc0:	00002480 	call	10000248 <IO_write>
	IO_write(HPI_DATA,0x007B);//2
10001dc4:	0009883a 	mov	r4,zero
10001dc8:	01401ec4 	movi	r5,123
10001dcc:	00002480 	call	10000248 <IO_write>

	//data phase IN-1
	IO_write(HPI_DATA,0x0580); //514
10001dd0:	0009883a 	mov	r4,zero
10001dd4:	01416004 	movi	r5,1408
10001dd8:	00002480 	call	10000248 <IO_write>
	IO_write(HPI_DATA,0x0008);//6
10001ddc:	0009883a 	mov	r4,zero
10001de0:	01400204 	movi	r5,8
10001de4:	00002480 	call	10000248 <IO_write>
	IO_write(HPI_DATA,0x0290);//8
10001de8:	0009883a 	mov	r4,zero
10001dec:	0140a404 	movi	r5,656
10001df0:	00002480 	call	10000248 <IO_write>
	IO_write(HPI_DATA,0x0041);//a
10001df4:	0009883a 	mov	r4,zero
10001df8:	01401044 	movi	r5,65
10001dfc:	00002480 	call	10000248 <IO_write>
	IO_write(HPI_DATA,0x0013);//c
10001e00:	0009883a 	mov	r4,zero
10001e04:	014004c4 	movi	r5,19
10001e08:	00002480 	call	10000248 <IO_write>
	IO_write(HPI_DATA,0x0520);//e
10001e0c:	0009883a 	mov	r4,zero
10001e10:	01414804 	movi	r5,1312
10001e14:	00002480 	call	10000248 <IO_write>

	//data phase IN-2
	IO_write(HPI_DATA,0x0588); //520
10001e18:	0009883a 	mov	r4,zero
10001e1c:	01416204 	movi	r5,1416
10001e20:	00002480 	call	10000248 <IO_write>
	IO_write(HPI_DATA,0x0008);//2
10001e24:	0009883a 	mov	r4,zero
10001e28:	01400204 	movi	r5,8
10001e2c:	00002480 	call	10000248 <IO_write>
	IO_write(HPI_DATA,0x0290);//4
10001e30:	0009883a 	mov	r4,zero
10001e34:	0140a404 	movi	r5,656
10001e38:	00002480 	call	10000248 <IO_write>
	IO_write(HPI_DATA,0x0001);//6 //data0
10001e3c:	0009883a 	mov	r4,zero
10001e40:	01400044 	movi	r5,1
10001e44:	00002480 	call	10000248 <IO_write>
	IO_write(HPI_DATA,0x0013);//8
10001e48:	0009883a 	mov	r4,zero
10001e4c:	014004c4 	movi	r5,19
10001e50:	00002480 	call	10000248 <IO_write>
	IO_write(HPI_DATA,0x052c);//a
10001e54:	0009883a 	mov	r4,zero
10001e58:	01414b04 	movi	r5,1324
10001e5c:	00002480 	call	10000248 <IO_write>

	//data phase IN-3
	IO_write(HPI_DATA,0x0590); //52c
10001e60:	0009883a 	mov	r4,zero
10001e64:	01416404 	movi	r5,1424
10001e68:	00002480 	call	10000248 <IO_write>
	IO_write(HPI_DATA,0x0008);//e
10001e6c:	0009883a 	mov	r4,zero
10001e70:	01400204 	movi	r5,8
10001e74:	00002480 	call	10000248 <IO_write>
	IO_write(HPI_DATA,0x0290);//530
10001e78:	0009883a 	mov	r4,zero
10001e7c:	0140a404 	movi	r5,656
10001e80:	00002480 	call	10000248 <IO_write>
	IO_write(HPI_DATA,0x0041);//2
10001e84:	0009883a 	mov	r4,zero
10001e88:	01401044 	movi	r5,65
10001e8c:	00002480 	call	10000248 <IO_write>
	IO_write(HPI_DATA,0x0013);//4
10001e90:	0009883a 	mov	r4,zero
10001e94:	014004c4 	movi	r5,19
10001e98:	00002480 	call	10000248 <IO_write>
	IO_write(HPI_DATA,0x0538);//6
10001e9c:	0009883a 	mov	r4,zero
10001ea0:	01414e04 	movi	r5,1336
10001ea4:	00002480 	call	10000248 <IO_write>

	//data phase IN-4
	IO_write(HPI_DATA,0x0598); //538
10001ea8:	0009883a 	mov	r4,zero
10001eac:	01416604 	movi	r5,1432
10001eb0:	00002480 	call	10000248 <IO_write>
	IO_write(HPI_DATA,0x0008);//a
10001eb4:	0009883a 	mov	r4,zero
10001eb8:	01400204 	movi	r5,8
10001ebc:	00002480 	call	10000248 <IO_write>
	IO_write(HPI_DATA,0x0290);//c
10001ec0:	0009883a 	mov	r4,zero
10001ec4:	0140a404 	movi	r5,656
10001ec8:	00002480 	call	10000248 <IO_write>
	IO_write(HPI_DATA,0x0001);//e //data0
10001ecc:	0009883a 	mov	r4,zero
10001ed0:	01400044 	movi	r5,1
10001ed4:	00002480 	call	10000248 <IO_write>
	IO_write(HPI_DATA,0x0013);//540
10001ed8:	0009883a 	mov	r4,zero
10001edc:	014004c4 	movi	r5,19
10001ee0:	00002480 	call	10000248 <IO_write>
	IO_write(HPI_DATA,0x0544);//2
10001ee4:	0009883a 	mov	r4,zero
10001ee8:	01415104 	movi	r5,1348
10001eec:	00002480 	call	10000248 <IO_write>

	//data phase IN-5
	IO_write(HPI_DATA,0x05a0); //544
10001ef0:	0009883a 	mov	r4,zero
10001ef4:	01416804 	movi	r5,1440
10001ef8:	00002480 	call	10000248 <IO_write>
	IO_write(HPI_DATA,0x0008);//6
10001efc:	0009883a 	mov	r4,zero
10001f00:	01400204 	movi	r5,8
10001f04:	00002480 	call	10000248 <IO_write>
	IO_write(HPI_DATA,0x0290);//8
10001f08:	0009883a 	mov	r4,zero
10001f0c:	0140a404 	movi	r5,656
10001f10:	00002480 	call	10000248 <IO_write>
	IO_write(HPI_DATA,0x0041);//a //data1
10001f14:	0009883a 	mov	r4,zero
10001f18:	01401044 	movi	r5,65
10001f1c:	00002480 	call	10000248 <IO_write>
	IO_write(HPI_DATA,0x0013);//c
10001f20:	0009883a 	mov	r4,zero
10001f24:	014004c4 	movi	r5,19
10001f28:	00002480 	call	10000248 <IO_write>
	IO_write(HPI_DATA,0x0550);//e
10001f2c:	0009883a 	mov	r4,zero
10001f30:	01415404 	movi	r5,1360
10001f34:	00002480 	call	10000248 <IO_write>

	//data phase IN-6
	IO_write(HPI_DATA,0x05a8); //550
10001f38:	0009883a 	mov	r4,zero
10001f3c:	01416a04 	movi	r5,1448
10001f40:	00002480 	call	10000248 <IO_write>
	IO_write(HPI_DATA,0x0008);//2
10001f44:	0009883a 	mov	r4,zero
10001f48:	01400204 	movi	r5,8
10001f4c:	00002480 	call	10000248 <IO_write>
	IO_write(HPI_DATA,0x0290);//4
10001f50:	0009883a 	mov	r4,zero
10001f54:	0140a404 	movi	r5,656
10001f58:	00002480 	call	10000248 <IO_write>
	IO_write(HPI_DATA,0x0001);//6 //data0
10001f5c:	0009883a 	mov	r4,zero
10001f60:	01400044 	movi	r5,1
10001f64:	00002480 	call	10000248 <IO_write>
	IO_write(HPI_DATA,0x0013);//8
10001f68:	0009883a 	mov	r4,zero
10001f6c:	014004c4 	movi	r5,19
10001f70:	00002480 	call	10000248 <IO_write>
	IO_write(HPI_DATA,0x055c);//a
10001f74:	0009883a 	mov	r4,zero
10001f78:	01415704 	movi	r5,1372
10001f7c:	00002480 	call	10000248 <IO_write>

	//data phase IN-7
	IO_write(HPI_DATA,0x05b0); //c
10001f80:	0009883a 	mov	r4,zero
10001f84:	01416c04 	movi	r5,1456
10001f88:	00002480 	call	10000248 <IO_write>
	IO_write(HPI_DATA,0x0008);//e
10001f8c:	0009883a 	mov	r4,zero
10001f90:	01400204 	movi	r5,8
10001f94:	00002480 	call	10000248 <IO_write>
	IO_write(HPI_DATA,0x0290);//560
10001f98:	0009883a 	mov	r4,zero
10001f9c:	0140a404 	movi	r5,656
10001fa0:	00002480 	call	10000248 <IO_write>
	IO_write(HPI_DATA,0x0041);//2 //data1
10001fa4:	0009883a 	mov	r4,zero
10001fa8:	01401044 	movi	r5,65
10001fac:	00002480 	call	10000248 <IO_write>
	IO_write(HPI_DATA,0x0013);//4
10001fb0:	0009883a 	mov	r4,zero
10001fb4:	014004c4 	movi	r5,19
10001fb8:	00002480 	call	10000248 <IO_write>
	IO_write(HPI_DATA,0x0568);//6
10001fbc:	0009883a 	mov	r4,zero
10001fc0:	01415a04 	movi	r5,1384
10001fc4:	00002480 	call	10000248 <IO_write>

	//data phase IN-8
	IO_write(HPI_DATA,0x05b8); //8
10001fc8:	0009883a 	mov	r4,zero
10001fcc:	01416e04 	movi	r5,1464
10001fd0:	00002480 	call	10000248 <IO_write>
	IO_write(HPI_DATA,0x0003);//a
10001fd4:	0009883a 	mov	r4,zero
10001fd8:	014000c4 	movi	r5,3
10001fdc:	00002480 	call	10000248 <IO_write>
	IO_write(HPI_DATA,0x0290);//c
10001fe0:	0009883a 	mov	r4,zero
10001fe4:	0140a404 	movi	r5,656
10001fe8:	00002480 	call	10000248 <IO_write>
	IO_write(HPI_DATA,0x0001);//e //data0
10001fec:	0009883a 	mov	r4,zero
10001ff0:	01400044 	movi	r5,1
10001ff4:	00002480 	call	10000248 <IO_write>
	IO_write(HPI_DATA,0x0013);//570
10001ff8:	0009883a 	mov	r4,zero
10001ffc:	014004c4 	movi	r5,19
10002000:	00002480 	call	10000248 <IO_write>
	IO_write(HPI_DATA,0x0574);//2
10002004:	0009883a 	mov	r4,zero
10002008:	01415d04 	movi	r5,1396
1000200c:	00002480 	call	10000248 <IO_write>

	//status phase
	IO_write(HPI_DATA,0x0000); //574
10002010:	0009883a 	mov	r4,zero
10002014:	000b883a 	mov	r5,zero
10002018:	00002480 	call	10000248 <IO_write>
	IO_write(HPI_DATA,0x0000);//6
1000201c:	0009883a 	mov	r4,zero
10002020:	000b883a 	mov	r5,zero
10002024:	00002480 	call	10000248 <IO_write>
	IO_write(HPI_DATA,0x0210);//8
10002028:	0009883a 	mov	r4,zero
1000202c:	01408404 	movi	r5,528
10002030:	00002480 	call	10000248 <IO_write>
	IO_write(HPI_DATA,0x0041);//a
10002034:	0009883a 	mov	r4,zero
10002038:	01401044 	movi	r5,65
1000203c:	00002480 	call	10000248 <IO_write>
	IO_write(HPI_DATA,0x0013);//c
10002040:	0009883a 	mov	r4,zero
10002044:	014004c4 	movi	r5,19
10002048:	00002480 	call	10000248 <IO_write>
	IO_write(HPI_DATA,0x0000);//e
1000204c:	0009883a 	mov	r4,zero
10002050:	000b883a 	mov	r5,zero
10002054:	00002480 	call	10000248 <IO_write>

	UsbWrite(HUSB_SIE1_pCurrentTDPtr,0x0500); //HUSB_SIE1_pCurrentTDPtr
10002058:	01006c04 	movi	r4,432
1000205c:	01414004 	movi	r5,1280
10002060:	00010ac0 	call	100010ac <UsbWrite>

}
10002064:	e037883a 	mov	sp,fp
10002068:	dfc00117 	ldw	ra,4(sp)
1000206c:	df000017 	ldw	fp,0(sp)
10002070:	dec00204 	addi	sp,sp,8
10002074:	f800283a 	ret

10002078 <UsbWaitTDListDone>:


alt_u16 UsbWaitTDListDone()
{
10002078:	defffd04 	addi	sp,sp,-12
1000207c:	dfc00215 	stw	ra,8(sp)
10002080:	df000115 	stw	fp,4(sp)
10002084:	df000104 	addi	fp,sp,4
	alt_u16 usb_ctl_val;

	usb_ctl_val = UsbRead(HPI_SIE1_MSG_ADR); // STEP 3 j
10002088:	01005104 	movi	r4,324
1000208c:	00011000 	call	10001100 <UsbRead>
10002090:	e0bfff0d 	sth	r2,-4(fp)
	UsbWrite(HPI_SIE1_MSG_ADR, 0);
10002094:	01005104 	movi	r4,324
10002098:	000b883a 	mov	r5,zero
1000209c:	00010ac0 	call	100010ac <UsbWrite>
	while (usb_ctl_val != HUSB_TDListDone)  // k, read sie1 msg register
100020a0:	00000d06 	br	100020d8 <UsbWaitTDListDone+0x60>
	{
		if(usb_ctl_val == 0x0000)
100020a4:	e0bfff0b 	ldhu	r2,-4(fp)
100020a8:	10000526 	beq	r2,zero,100020c0 <UsbWaitTDListDone+0x48>
		{
		}
		else
		{
			printf("[SIE1 MSG]:SIE1 msg reg is %x\n",usb_ctl_val);
100020ac:	e0bfff0b 	ldhu	r2,-4(fp)
100020b0:	01040074 	movhi	r4,4097
100020b4:	2106bb04 	addi	r4,r4,6892
100020b8:	100b883a 	mov	r5,r2
100020bc:	00022240 	call	10002224 <printf>
		}
		usb_ctl_val = UsbRead(HPI_SIE1_MSG_ADR);
100020c0:	01005104 	movi	r4,324
100020c4:	00011000 	call	10001100 <UsbRead>
100020c8:	e0bfff0d 	sth	r2,-4(fp)
		UsbWrite(HPI_SIE1_MSG_ADR, 0);
100020cc:	01005104 	movi	r4,324
100020d0:	000b883a 	mov	r5,zero
100020d4:	00010ac0 	call	100010ac <UsbWrite>
{
	alt_u16 usb_ctl_val;

	usb_ctl_val = UsbRead(HPI_SIE1_MSG_ADR); // STEP 3 j
	UsbWrite(HPI_SIE1_MSG_ADR, 0);
	while (usb_ctl_val != HUSB_TDListDone)  // k, read sie1 msg register
100020d8:	e0bfff0b 	ldhu	r2,-4(fp)
100020dc:	10840018 	cmpnei	r2,r2,4096
100020e0:	103ff01e 	bne	r2,zero,100020a4 <__alt_data_end+0xf80020a4>
		}
		usb_ctl_val = UsbRead(HPI_SIE1_MSG_ADR);
		UsbWrite(HPI_SIE1_MSG_ADR, 0);
	}

	return usb_ctl_val;
100020e4:	e0bfff0b 	ldhu	r2,-4(fp)
}
100020e8:	e037883a 	mov	sp,fp
100020ec:	dfc00117 	ldw	ra,4(sp)
100020f0:	df000017 	ldw	fp,0(sp)
100020f4:	dec00204 	addi	sp,sp,8
100020f8:	f800283a 	ret

100020fc <UsbGetRetryCnt>:


alt_u16 UsbGetRetryCnt()
{
100020fc:	defffd04 	addi	sp,sp,-12
10002100:	dfc00215 	stw	ra,8(sp)
10002104:	df000115 	stw	fp,4(sp)
10002108:	df000104 	addi	fp,sp,4
	alt_u16 usb_ctl_val;

	IO_read(HPI_STATUS);
1000210c:	010000c4 	movi	r4,3
10002110:	00002b40 	call	100002b4 <IO_read>
	if(UsbRead(HPI_SIE1_MSG_ADR) == HUSB_TDListDone)
10002114:	01005104 	movi	r4,324
10002118:	00011000 	call	10001100 <UsbRead>
1000211c:	10bfffcc 	andi	r2,r2,65535
10002120:	10840018 	cmpnei	r2,r2,4096
10002124:	1000091e 	bne	r2,zero,1000214c <UsbGetRetryCnt+0x50>
	{
		UsbWrite(HPI_SIE1_MSG_ADR, 0);
10002128:	01005104 	movi	r4,324
1000212c:	000b883a 	mov	r5,zero
10002130:	00010ac0 	call	100010ac <UsbWrite>

		while (!(IO_read(HPI_STATUS) & HPI_STATUS_SIE1msg_FLAG) )  //read sie1 msg register
10002134:	0001883a 	nop
10002138:	010000c4 	movi	r4,3
1000213c:	00002b40 	call	100002b4 <IO_read>
10002140:	10bfffcc 	andi	r2,r2,65535
10002144:	1080040c 	andi	r2,r2,16
10002148:	103ffb26 	beq	r2,zero,10002138 <__alt_data_end+0xf8002138>
		{
		}
	}
	//usleep(1000);
	IO_write(HPI_ADDR,0x0508);
1000214c:	01000084 	movi	r4,2
10002150:	01414204 	movi	r5,1288
10002154:	00002480 	call	10000248 <IO_write>
	usb_ctl_val = IO_read(HPI_DATA);
10002158:	0009883a 	mov	r4,zero
1000215c:	00002b40 	call	100002b4 <IO_read>
10002160:	e0bfff0d 	sth	r2,-4(fp)

	return usb_ctl_val;
10002164:	e0bfff0b 	ldhu	r2,-4(fp)
}
10002168:	e037883a 	mov	sp,fp
1000216c:	dfc00117 	ldw	ra,4(sp)
10002170:	df000017 	ldw	fp,0(sp)
10002174:	dec00204 	addi	sp,sp,8
10002178:	f800283a 	ret

1000217c <UsbPrintMem>:


void UsbPrintMem()
{
1000217c:	defffc04 	addi	sp,sp,-16
10002180:	dfc00315 	stw	ra,12(sp)
10002184:	df000215 	stw	fp,8(sp)
10002188:	df000204 	addi	fp,sp,8
	int i, code;
	IO_write(HPI_ADDR,0x0500); //the start address
1000218c:	01000084 	movi	r4,2
10002190:	01414004 	movi	r5,1280
10002194:	00002480 	call	10000248 <IO_write>
	for (i = 0; i <= 200; i += 2)
10002198:	e03ffe15 	stw	zero,-8(fp)
1000219c:	00000e06 	br	100021d8 <UsbPrintMem+0x5c>
	{
		code = IO_read(HPI_DATA);
100021a0:	0009883a 	mov	r4,zero
100021a4:	00002b40 	call	100002b4 <IO_read>
100021a8:	10bfffcc 	andi	r2,r2,65535
100021ac:	e0bfff15 	stw	r2,-4(fp)
		printf("\naddr %x = %04x\n", 0x0500+i, code);
100021b0:	e0bffe17 	ldw	r2,-8(fp)
100021b4:	10814004 	addi	r2,r2,1280
100021b8:	01040074 	movhi	r4,4097
100021bc:	2106c304 	addi	r4,r4,6924
100021c0:	100b883a 	mov	r5,r2
100021c4:	e1bfff17 	ldw	r6,-4(fp)
100021c8:	00022240 	call	10002224 <printf>

void UsbPrintMem()
{
	int i, code;
	IO_write(HPI_ADDR,0x0500); //the start address
	for (i = 0; i <= 200; i += 2)
100021cc:	e0bffe17 	ldw	r2,-8(fp)
100021d0:	10800084 	addi	r2,r2,2
100021d4:	e0bffe15 	stw	r2,-8(fp)
100021d8:	e0bffe17 	ldw	r2,-8(fp)
100021dc:	10803250 	cmplti	r2,r2,201
100021e0:	103fef1e 	bne	r2,zero,100021a0 <__alt_data_end+0xf80021a0>
	{
		code = IO_read(HPI_DATA);
		printf("\naddr %x = %04x\n", 0x0500+i, code);
	}
}
100021e4:	e037883a 	mov	sp,fp
100021e8:	dfc00117 	ldw	ra,4(sp)
100021ec:	df000017 	ldw	fp,0(sp)
100021f0:	dec00204 	addi	sp,sp,8
100021f4:	f800283a 	ret

100021f8 <_printf_r>:
100021f8:	defffd04 	addi	sp,sp,-12
100021fc:	dfc00015 	stw	ra,0(sp)
10002200:	d9800115 	stw	r6,4(sp)
10002204:	d9c00215 	stw	r7,8(sp)
10002208:	280d883a 	mov	r6,r5
1000220c:	21400217 	ldw	r5,8(r4)
10002210:	d9c00104 	addi	r7,sp,4
10002214:	00023c40 	call	100023c4 <___vfprintf_internal_r>
10002218:	dfc00017 	ldw	ra,0(sp)
1000221c:	dec00304 	addi	sp,sp,12
10002220:	f800283a 	ret

10002224 <printf>:
10002224:	defffc04 	addi	sp,sp,-16
10002228:	dfc00015 	stw	ra,0(sp)
1000222c:	d9400115 	stw	r5,4(sp)
10002230:	d9800215 	stw	r6,8(sp)
10002234:	d9c00315 	stw	r7,12(sp)
10002238:	00840074 	movhi	r2,4097
1000223c:	108e3404 	addi	r2,r2,14544
10002240:	10800017 	ldw	r2,0(r2)
10002244:	200b883a 	mov	r5,r4
10002248:	d9800104 	addi	r6,sp,4
1000224c:	11000217 	ldw	r4,8(r2)
10002250:	00044c00 	call	100044c0 <__vfprintf_internal>
10002254:	dfc00017 	ldw	ra,0(sp)
10002258:	dec00404 	addi	sp,sp,16
1000225c:	f800283a 	ret

10002260 <_puts_r>:
10002260:	defff604 	addi	sp,sp,-40
10002264:	dc000715 	stw	r16,28(sp)
10002268:	2021883a 	mov	r16,r4
1000226c:	2809883a 	mov	r4,r5
10002270:	dc400815 	stw	r17,32(sp)
10002274:	dfc00915 	stw	ra,36(sp)
10002278:	2823883a 	mov	r17,r5
1000227c:	000232c0 	call	1000232c <strlen>
10002280:	00c40074 	movhi	r3,4097
10002284:	18ce3404 	addi	r3,r3,14544
10002288:	18c00017 	ldw	r3,0(r3)
1000228c:	11000044 	addi	r4,r2,1
10002290:	d8800115 	stw	r2,4(sp)
10002294:	18c00217 	ldw	r3,8(r3)
10002298:	01440074 	movhi	r5,4097
1000229c:	2946c804 	addi	r5,r5,6944
100022a0:	1880030b 	ldhu	r2,12(r3)
100022a4:	d9400215 	stw	r5,8(sp)
100022a8:	d9000615 	stw	r4,24(sp)
100022ac:	01400044 	movi	r5,1
100022b0:	01000084 	movi	r4,2
100022b4:	d9000515 	stw	r4,20(sp)
100022b8:	dc400015 	stw	r17,0(sp)
100022bc:	d9400315 	stw	r5,12(sp)
100022c0:	dec00415 	stw	sp,16(sp)
100022c4:	1108000c 	andi	r4,r2,8192
100022c8:	2000061e 	bne	r4,zero,100022e4 <_puts_r+0x84>
100022cc:	19401917 	ldw	r5,100(r3)
100022d0:	0137ffc4 	movi	r4,-8193
100022d4:	10880014 	ori	r2,r2,8192
100022d8:	2908703a 	and	r4,r5,r4
100022dc:	1880030d 	sth	r2,12(r3)
100022e0:	19001915 	stw	r4,100(r3)
100022e4:	81400217 	ldw	r5,8(r16)
100022e8:	8009883a 	mov	r4,r16
100022ec:	d9800404 	addi	r6,sp,16
100022f0:	00069840 	call	10006984 <__sfvwrite_r>
100022f4:	1000061e 	bne	r2,zero,10002310 <_puts_r+0xb0>
100022f8:	00800284 	movi	r2,10
100022fc:	dfc00917 	ldw	ra,36(sp)
10002300:	dc400817 	ldw	r17,32(sp)
10002304:	dc000717 	ldw	r16,28(sp)
10002308:	dec00a04 	addi	sp,sp,40
1000230c:	f800283a 	ret
10002310:	00bfffc4 	movi	r2,-1
10002314:	003ff906 	br	100022fc <__alt_data_end+0xf80022fc>

10002318 <puts>:
10002318:	00840074 	movhi	r2,4097
1000231c:	108e3404 	addi	r2,r2,14544
10002320:	200b883a 	mov	r5,r4
10002324:	11000017 	ldw	r4,0(r2)
10002328:	00022601 	jmpi	10002260 <_puts_r>

1000232c <strlen>:
1000232c:	208000cc 	andi	r2,r4,3
10002330:	10002026 	beq	r2,zero,100023b4 <strlen+0x88>
10002334:	20800007 	ldb	r2,0(r4)
10002338:	10002026 	beq	r2,zero,100023bc <strlen+0x90>
1000233c:	2005883a 	mov	r2,r4
10002340:	00000206 	br	1000234c <strlen+0x20>
10002344:	10c00007 	ldb	r3,0(r2)
10002348:	18001826 	beq	r3,zero,100023ac <strlen+0x80>
1000234c:	10800044 	addi	r2,r2,1
10002350:	10c000cc 	andi	r3,r2,3
10002354:	183ffb1e 	bne	r3,zero,10002344 <__alt_data_end+0xf8002344>
10002358:	10c00017 	ldw	r3,0(r2)
1000235c:	01ffbff4 	movhi	r7,65279
10002360:	39ffbfc4 	addi	r7,r7,-257
10002364:	00ca303a 	nor	r5,zero,r3
10002368:	01a02074 	movhi	r6,32897
1000236c:	19c7883a 	add	r3,r3,r7
10002370:	31a02004 	addi	r6,r6,-32640
10002374:	1946703a 	and	r3,r3,r5
10002378:	1986703a 	and	r3,r3,r6
1000237c:	1800091e 	bne	r3,zero,100023a4 <strlen+0x78>
10002380:	10800104 	addi	r2,r2,4
10002384:	10c00017 	ldw	r3,0(r2)
10002388:	19cb883a 	add	r5,r3,r7
1000238c:	00c6303a 	nor	r3,zero,r3
10002390:	28c6703a 	and	r3,r5,r3
10002394:	1986703a 	and	r3,r3,r6
10002398:	183ff926 	beq	r3,zero,10002380 <__alt_data_end+0xf8002380>
1000239c:	00000106 	br	100023a4 <strlen+0x78>
100023a0:	10800044 	addi	r2,r2,1
100023a4:	10c00007 	ldb	r3,0(r2)
100023a8:	183ffd1e 	bne	r3,zero,100023a0 <__alt_data_end+0xf80023a0>
100023ac:	1105c83a 	sub	r2,r2,r4
100023b0:	f800283a 	ret
100023b4:	2005883a 	mov	r2,r4
100023b8:	003fe706 	br	10002358 <__alt_data_end+0xf8002358>
100023bc:	0005883a 	mov	r2,zero
100023c0:	f800283a 	ret

100023c4 <___vfprintf_internal_r>:
100023c4:	defeb604 	addi	sp,sp,-1320
100023c8:	dfc14915 	stw	ra,1316(sp)
100023cc:	ddc14715 	stw	r23,1308(sp)
100023d0:	dd814615 	stw	r22,1304(sp)
100023d4:	202f883a 	mov	r23,r4
100023d8:	282d883a 	mov	r22,r5
100023dc:	d9812a15 	stw	r6,1192(sp)
100023e0:	d9c12d15 	stw	r7,1204(sp)
100023e4:	df014815 	stw	fp,1312(sp)
100023e8:	dd414515 	stw	r21,1300(sp)
100023ec:	dd014415 	stw	r20,1296(sp)
100023f0:	dcc14315 	stw	r19,1292(sp)
100023f4:	dc814215 	stw	r18,1288(sp)
100023f8:	dc414115 	stw	r17,1284(sp)
100023fc:	dc014015 	stw	r16,1280(sp)
10002400:	00070440 	call	10007044 <_localeconv_r>
10002404:	10800017 	ldw	r2,0(r2)
10002408:	1009883a 	mov	r4,r2
1000240c:	d8813515 	stw	r2,1236(sp)
10002410:	000232c0 	call	1000232c <strlen>
10002414:	d8813815 	stw	r2,1248(sp)
10002418:	b8000226 	beq	r23,zero,10002424 <___vfprintf_internal_r+0x60>
1000241c:	b8800e17 	ldw	r2,56(r23)
10002420:	10010526 	beq	r2,zero,10002838 <___vfprintf_internal_r+0x474>
10002424:	b0c0030b 	ldhu	r3,12(r22)
10002428:	1908000c 	andi	r4,r3,8192
1000242c:	1805883a 	mov	r2,r3
10002430:	2000071e 	bne	r4,zero,10002450 <___vfprintf_internal_r+0x8c>
10002434:	b1001917 	ldw	r4,100(r22)
10002438:	18880014 	ori	r2,r3,8192
1000243c:	00f7ffc4 	movi	r3,-8193
10002440:	20c8703a 	and	r4,r4,r3
10002444:	b080030d 	sth	r2,12(r22)
10002448:	1007883a 	mov	r3,r2
1000244c:	b1001915 	stw	r4,100(r22)
10002450:	1100020c 	andi	r4,r2,8
10002454:	2000a826 	beq	r4,zero,100026f8 <___vfprintf_internal_r+0x334>
10002458:	b1000417 	ldw	r4,16(r22)
1000245c:	2000a626 	beq	r4,zero,100026f8 <___vfprintf_internal_r+0x334>
10002460:	1080068c 	andi	r2,r2,26
10002464:	01000284 	movi	r4,10
10002468:	1100ac26 	beq	r2,r4,1000271c <___vfprintf_internal_r+0x358>
1000246c:	d8c10e04 	addi	r3,sp,1080
10002470:	d9010dc4 	addi	r4,sp,1079
10002474:	d9400404 	addi	r5,sp,16
10002478:	05040074 	movhi	r20,4097
1000247c:	1905c83a 	sub	r2,r3,r4
10002480:	a506d984 	addi	r20,r20,7014
10002484:	d8c12815 	stw	r3,1184(sp)
10002488:	d9012915 	stw	r4,1188(sp)
1000248c:	d9411e15 	stw	r5,1144(sp)
10002490:	d8012015 	stw	zero,1152(sp)
10002494:	d8011f15 	stw	zero,1148(sp)
10002498:	d8013315 	stw	zero,1228(sp)
1000249c:	d8013715 	stw	zero,1244(sp)
100024a0:	d8013915 	stw	zero,1252(sp)
100024a4:	d8013b15 	stw	zero,1260(sp)
100024a8:	d8013a15 	stw	zero,1256(sp)
100024ac:	d8012f15 	stw	zero,1212(sp)
100024b0:	2811883a 	mov	r8,r5
100024b4:	d8813c15 	stw	r2,1264(sp)
100024b8:	d8c12a17 	ldw	r3,1192(sp)
100024bc:	18800007 	ldb	r2,0(r3)
100024c0:	10021326 	beq	r2,zero,10002d10 <___vfprintf_internal_r+0x94c>
100024c4:	00c00944 	movi	r3,37
100024c8:	dc012a17 	ldw	r16,1192(sp)
100024cc:	10c0021e 	bne	r2,r3,100024d8 <___vfprintf_internal_r+0x114>
100024d0:	00001606 	br	1000252c <___vfprintf_internal_r+0x168>
100024d4:	10c08526 	beq	r2,r3,100026ec <___vfprintf_internal_r+0x328>
100024d8:	84000044 	addi	r16,r16,1
100024dc:	80800007 	ldb	r2,0(r16)
100024e0:	103ffc1e 	bne	r2,zero,100024d4 <__alt_data_end+0xf80024d4>
100024e4:	d9012a17 	ldw	r4,1192(sp)
100024e8:	8123c83a 	sub	r17,r16,r4
100024ec:	88000f26 	beq	r17,zero,1000252c <___vfprintf_internal_r+0x168>
100024f0:	d8812a17 	ldw	r2,1192(sp)
100024f4:	d8c12017 	ldw	r3,1152(sp)
100024f8:	44400115 	stw	r17,4(r8)
100024fc:	40800015 	stw	r2,0(r8)
10002500:	d8811f17 	ldw	r2,1148(sp)
10002504:	1c47883a 	add	r3,r3,r17
10002508:	d8c12015 	stw	r3,1152(sp)
1000250c:	10800044 	addi	r2,r2,1
10002510:	d8811f15 	stw	r2,1148(sp)
10002514:	00c001c4 	movi	r3,7
10002518:	1880b516 	blt	r3,r2,100027f0 <___vfprintf_internal_r+0x42c>
1000251c:	42000204 	addi	r8,r8,8
10002520:	d8c12f17 	ldw	r3,1212(sp)
10002524:	1c47883a 	add	r3,r3,r17
10002528:	d8c12f15 	stw	r3,1212(sp)
1000252c:	80800007 	ldb	r2,0(r16)
10002530:	1000b626 	beq	r2,zero,1000280c <___vfprintf_internal_r+0x448>
10002534:	80800044 	addi	r2,r16,1
10002538:	84000047 	ldb	r16,1(r16)
1000253c:	0027883a 	mov	r19,zero
10002540:	0039883a 	mov	fp,zero
10002544:	dcc12b05 	stb	r19,1196(sp)
10002548:	d8012785 	stb	zero,1182(sp)
1000254c:	027fffc4 	movi	r9,-1
10002550:	d8012e15 	stw	zero,1208(sp)
10002554:	04401604 	movi	r17,88
10002558:	04800244 	movi	r18,9
1000255c:	da012a15 	stw	r8,1192(sp)
10002560:	e027883a 	mov	r19,fp
10002564:	17000044 	addi	fp,r2,1
10002568:	80bff804 	addi	r2,r16,-32
1000256c:	88831236 	bltu	r17,r2,100031b8 <___vfprintf_internal_r+0xdf4>
10002570:	100490ba 	slli	r2,r2,2
10002574:	01040034 	movhi	r4,4096
10002578:	21096204 	addi	r4,r4,9608
1000257c:	1105883a 	add	r2,r2,r4
10002580:	10800017 	ldw	r2,0(r2)
10002584:	1000683a 	jmp	r2
10002588:	100030d4 	ori	zero,r2,195
1000258c:	100031b8 	rdprs	zero,r2,198
10002590:	100031b8 	rdprs	zero,r2,198
10002594:	100030f0 	cmpltui	zero,r2,195
10002598:	100031b8 	rdprs	zero,r2,198
1000259c:	100031b8 	rdprs	zero,r2,198
100025a0:	100031b8 	rdprs	zero,r2,198
100025a4:	100031b8 	rdprs	zero,r2,198
100025a8:	100031b8 	rdprs	zero,r2,198
100025ac:	100031b8 	rdprs	zero,r2,198
100025b0:	10003100 	call	11000310 <_gp+0xfe4a44>
100025b4:	10003128 	cmpgeui	zero,r2,196
100025b8:	100031b8 	rdprs	zero,r2,198
100025bc:	10002844 	addi	zero,r2,161
100025c0:	10002854 	ori	zero,r2,161
100025c4:	100031b8 	rdprs	zero,r2,198
100025c8:	100028a4 	muli	zero,r2,162
100025cc:	100028b4 	orhi	zero,r2,162
100025d0:	100028b4 	orhi	zero,r2,162
100025d4:	100028b4 	orhi	zero,r2,162
100025d8:	100028b4 	orhi	zero,r2,162
100025dc:	100028b4 	orhi	zero,r2,162
100025e0:	100028b4 	orhi	zero,r2,162
100025e4:	100028b4 	orhi	zero,r2,162
100025e8:	100028b4 	orhi	zero,r2,162
100025ec:	100028b4 	orhi	zero,r2,162
100025f0:	100031b8 	rdprs	zero,r2,198
100025f4:	100031b8 	rdprs	zero,r2,198
100025f8:	100031b8 	rdprs	zero,r2,198
100025fc:	100031b8 	rdprs	zero,r2,198
10002600:	100031b8 	rdprs	zero,r2,198
10002604:	100031b8 	rdprs	zero,r2,198
10002608:	100031b8 	rdprs	zero,r2,198
1000260c:	100031b8 	rdprs	zero,r2,198
10002610:	100031b8 	rdprs	zero,r2,198
10002614:	100031b8 	rdprs	zero,r2,198
10002618:	100028f8 	rdprs	zero,r2,163
1000261c:	10002d18 	cmpnei	zero,r2,180
10002620:	100031b8 	rdprs	zero,r2,198
10002624:	10002d18 	cmpnei	zero,r2,180
10002628:	100031b8 	rdprs	zero,r2,198
1000262c:	100031b8 	rdprs	zero,r2,198
10002630:	100031b8 	rdprs	zero,r2,198
10002634:	100031b8 	rdprs	zero,r2,198
10002638:	10002dc0 	call	110002dc <_gp+0xfe4a10>
1000263c:	100031b8 	rdprs	zero,r2,198
10002640:	100031b8 	rdprs	zero,r2,198
10002644:	10002dd0 	cmplti	zero,r2,183
10002648:	100031b8 	rdprs	zero,r2,198
1000264c:	100031b8 	rdprs	zero,r2,198
10002650:	100031b8 	rdprs	zero,r2,198
10002654:	100031b8 	rdprs	zero,r2,198
10002658:	100031b8 	rdprs	zero,r2,198
1000265c:	10002e14 	ori	zero,r2,184
10002660:	100031b8 	rdprs	zero,r2,198
10002664:	100031b8 	rdprs	zero,r2,198
10002668:	10002e4c 	andi	zero,r2,185
1000266c:	100031b8 	rdprs	zero,r2,198
10002670:	100031b8 	rdprs	zero,r2,198
10002674:	100031b8 	rdprs	zero,r2,198
10002678:	100031b8 	rdprs	zero,r2,198
1000267c:	100031b8 	rdprs	zero,r2,198
10002680:	100031b8 	rdprs	zero,r2,198
10002684:	100031b8 	rdprs	zero,r2,198
10002688:	100031b8 	rdprs	zero,r2,198
1000268c:	100031b8 	rdprs	zero,r2,198
10002690:	100031b8 	rdprs	zero,r2,198
10002694:	10003088 	cmpgei	zero,r2,194
10002698:	10003034 	orhi	zero,r2,192
1000269c:	10002d18 	cmpnei	zero,r2,180
100026a0:	10002d18 	cmpnei	zero,r2,180
100026a4:	10002d18 	cmpnei	zero,r2,180
100026a8:	10003078 	rdprs	zero,r2,193
100026ac:	10003034 	orhi	zero,r2,192
100026b0:	100031b8 	rdprs	zero,r2,198
100026b4:	100031b8 	rdprs	zero,r2,198
100026b8:	10002f50 	cmplti	zero,r2,189
100026bc:	100031b8 	rdprs	zero,r2,198
100026c0:	10002f68 	cmpgeui	zero,r2,189
100026c4:	10002fa8 	cmpgeui	zero,r2,190
100026c8:	10002fe8 	cmpgeui	zero,r2,191
100026cc:	10002eb4 	orhi	zero,r2,186
100026d0:	100031b8 	rdprs	zero,r2,198
100026d4:	1000313c 	xorhi	zero,r2,196
100026d8:	100031b8 	rdprs	zero,r2,198
100026dc:	10002ec4 	addi	zero,r2,187
100026e0:	100031b8 	rdprs	zero,r2,198
100026e4:	100031b8 	rdprs	zero,r2,198
100026e8:	10002f04 	addi	zero,r2,188
100026ec:	d9412a17 	ldw	r5,1192(sp)
100026f0:	8163c83a 	sub	r17,r16,r5
100026f4:	003f7d06 	br	100024ec <__alt_data_end+0xf80024ec>
100026f8:	b809883a 	mov	r4,r23
100026fc:	b00b883a 	mov	r5,r22
10002700:	00044e40 	call	100044e4 <__swsetup_r>
10002704:	10002d1e 	bne	r2,zero,100027bc <___vfprintf_internal_r+0x3f8>
10002708:	b0c0030b 	ldhu	r3,12(r22)
1000270c:	01000284 	movi	r4,10
10002710:	1805883a 	mov	r2,r3
10002714:	1080068c 	andi	r2,r2,26
10002718:	113f541e 	bne	r2,r4,1000246c <__alt_data_end+0xf800246c>
1000271c:	b080038b 	ldhu	r2,14(r22)
10002720:	113fffcc 	andi	r4,r2,65535
10002724:	2120001c 	xori	r4,r4,32768
10002728:	21200004 	addi	r4,r4,-32768
1000272c:	203f4f16 	blt	r4,zero,1000246c <__alt_data_end+0xf800246c>
10002730:	b2c01917 	ldw	r11,100(r22)
10002734:	b2800717 	ldw	r10,28(r22)
10002738:	b2400917 	ldw	r9,36(r22)
1000273c:	d9812a17 	ldw	r6,1192(sp)
10002740:	d9c12d17 	ldw	r7,1204(sp)
10002744:	02010004 	movi	r8,1024
10002748:	18ffff4c 	andi	r3,r3,65533
1000274c:	d881078d 	sth	r2,1054(sp)
10002750:	b809883a 	mov	r4,r23
10002754:	d8800404 	addi	r2,sp,16
10002758:	d9410404 	addi	r5,sp,1040
1000275c:	d8c1070d 	sth	r3,1052(sp)
10002760:	dac11d15 	stw	r11,1140(sp)
10002764:	da810b15 	stw	r10,1068(sp)
10002768:	da410d15 	stw	r9,1076(sp)
1000276c:	d8810415 	stw	r2,1040(sp)
10002770:	d8810815 	stw	r2,1056(sp)
10002774:	da010615 	stw	r8,1048(sp)
10002778:	da010915 	stw	r8,1060(sp)
1000277c:	d8010a15 	stw	zero,1064(sp)
10002780:	00023c40 	call	100023c4 <___vfprintf_internal_r>
10002784:	1021883a 	mov	r16,r2
10002788:	10000416 	blt	r2,zero,1000279c <___vfprintf_internal_r+0x3d8>
1000278c:	b809883a 	mov	r4,r23
10002790:	d9410404 	addi	r5,sp,1040
10002794:	0005f640 	call	10005f64 <_fflush_r>
10002798:	1007301e 	bne	r2,zero,1000445c <___vfprintf_internal_r+0x2098>
1000279c:	d881070b 	ldhu	r2,1052(sp)
100027a0:	1080100c 	andi	r2,r2,64
100027a4:	10000326 	beq	r2,zero,100027b4 <___vfprintf_internal_r+0x3f0>
100027a8:	b080030b 	ldhu	r2,12(r22)
100027ac:	10801014 	ori	r2,r2,64
100027b0:	b080030d 	sth	r2,12(r22)
100027b4:	8005883a 	mov	r2,r16
100027b8:	00000106 	br	100027c0 <___vfprintf_internal_r+0x3fc>
100027bc:	00bfffc4 	movi	r2,-1
100027c0:	dfc14917 	ldw	ra,1316(sp)
100027c4:	df014817 	ldw	fp,1312(sp)
100027c8:	ddc14717 	ldw	r23,1308(sp)
100027cc:	dd814617 	ldw	r22,1304(sp)
100027d0:	dd414517 	ldw	r21,1300(sp)
100027d4:	dd014417 	ldw	r20,1296(sp)
100027d8:	dcc14317 	ldw	r19,1292(sp)
100027dc:	dc814217 	ldw	r18,1288(sp)
100027e0:	dc414117 	ldw	r17,1284(sp)
100027e4:	dc014017 	ldw	r16,1280(sp)
100027e8:	dec14a04 	addi	sp,sp,1320
100027ec:	f800283a 	ret
100027f0:	b809883a 	mov	r4,r23
100027f4:	b00b883a 	mov	r5,r22
100027f8:	d9811e04 	addi	r6,sp,1144
100027fc:	00098040 	call	10009804 <__sprint_r>
10002800:	1000081e 	bne	r2,zero,10002824 <___vfprintf_internal_r+0x460>
10002804:	da000404 	addi	r8,sp,16
10002808:	003f4506 	br	10002520 <__alt_data_end+0xf8002520>
1000280c:	d8812017 	ldw	r2,1152(sp)
10002810:	10000426 	beq	r2,zero,10002824 <___vfprintf_internal_r+0x460>
10002814:	b809883a 	mov	r4,r23
10002818:	b00b883a 	mov	r5,r22
1000281c:	d9811e04 	addi	r6,sp,1144
10002820:	00098040 	call	10009804 <__sprint_r>
10002824:	b080030b 	ldhu	r2,12(r22)
10002828:	1080100c 	andi	r2,r2,64
1000282c:	103fe31e 	bne	r2,zero,100027bc <__alt_data_end+0xf80027bc>
10002830:	d8812f17 	ldw	r2,1212(sp)
10002834:	003fe206 	br	100027c0 <__alt_data_end+0xf80027c0>
10002838:	b809883a 	mov	r4,r23
1000283c:	00065200 	call	10006520 <__sinit>
10002840:	003ef806 	br	10002424 <__alt_data_end+0xf8002424>
10002844:	e005883a 	mov	r2,fp
10002848:	9cc00114 	ori	r19,r19,4
1000284c:	e4000007 	ldb	r16,0(fp)
10002850:	003f4406 	br	10002564 <__alt_data_end+0xf8002564>
10002854:	e4000007 	ldb	r16,0(fp)
10002858:	01000a84 	movi	r4,42
1000285c:	e0800044 	addi	r2,fp,1
10002860:	8106f626 	beq	r16,r4,1000443c <___vfprintf_internal_r+0x2078>
10002864:	857ff404 	addi	r21,r16,-48
10002868:	1039883a 	mov	fp,r2
1000286c:	0013883a 	mov	r9,zero
10002870:	957f3d36 	bltu	r18,r21,10002568 <__alt_data_end+0xf8002568>
10002874:	0009883a 	mov	r4,zero
10002878:	01400284 	movi	r5,10
1000287c:	000c3380 	call	1000c338 <__mulsi3>
10002880:	e4000007 	ldb	r16,0(fp)
10002884:	a889883a 	add	r4,r21,r2
10002888:	e7000044 	addi	fp,fp,1
1000288c:	857ff404 	addi	r21,r16,-48
10002890:	957ff92e 	bgeu	r18,r21,10002878 <__alt_data_end+0xf8002878>
10002894:	2013883a 	mov	r9,r4
10002898:	203f330e 	bge	r4,zero,10002568 <__alt_data_end+0xf8002568>
1000289c:	027fffc4 	movi	r9,-1
100028a0:	003f3106 	br	10002568 <__alt_data_end+0xf8002568>
100028a4:	9cc02014 	ori	r19,r19,128
100028a8:	e005883a 	mov	r2,fp
100028ac:	e4000007 	ldb	r16,0(fp)
100028b0:	003f2c06 	br	10002564 <__alt_data_end+0xf8002564>
100028b4:	857ff404 	addi	r21,r16,-48
100028b8:	d8012e15 	stw	zero,1208(sp)
100028bc:	e021883a 	mov	r16,fp
100028c0:	0009883a 	mov	r4,zero
100028c4:	da412c15 	stw	r9,1200(sp)
100028c8:	01400284 	movi	r5,10
100028cc:	000c3380 	call	1000c338 <__mulsi3>
100028d0:	81400007 	ldb	r5,0(r16)
100028d4:	1549883a 	add	r4,r2,r21
100028d8:	e7000044 	addi	fp,fp,1
100028dc:	2d7ff404 	addi	r21,r5,-48
100028e0:	e021883a 	mov	r16,fp
100028e4:	957ff82e 	bgeu	r18,r21,100028c8 <__alt_data_end+0xf80028c8>
100028e8:	2821883a 	mov	r16,r5
100028ec:	d9012e15 	stw	r4,1208(sp)
100028f0:	da412c17 	ldw	r9,1200(sp)
100028f4:	003f1c06 	br	10002568 <__alt_data_end+0xf8002568>
100028f8:	da012a17 	ldw	r8,1192(sp)
100028fc:	df012a15 	stw	fp,1192(sp)
10002900:	9839883a 	mov	fp,r19
10002904:	dcc12b03 	ldbu	r19,1196(sp)
10002908:	e7000414 	ori	fp,fp,16
1000290c:	e080080c 	andi	r2,fp,32
10002910:	dcc12785 	stb	r19,1182(sp)
10002914:	d8c12d17 	ldw	r3,1204(sp)
10002918:	1001ce26 	beq	r2,zero,10003054 <___vfprintf_internal_r+0xc90>
1000291c:	d9012d17 	ldw	r4,1204(sp)
10002920:	18800117 	ldw	r2,4(r3)
10002924:	1c800017 	ldw	r18,0(r3)
10002928:	21000204 	addi	r4,r4,8
1000292c:	d9012d15 	stw	r4,1204(sp)
10002930:	102b883a 	mov	r21,r2
10002934:	10044916 	blt	r2,zero,10003a5c <___vfprintf_internal_r+0x1698>
10002938:	dcc12783 	ldbu	r19,1182(sp)
1000293c:	da413215 	stw	r9,1224(sp)
10002940:	00800044 	movi	r2,1
10002944:	9546b03a 	or	r3,r18,r21
10002948:	48000216 	blt	r9,zero,10002954 <___vfprintf_internal_r+0x590>
1000294c:	013fdfc4 	movi	r4,-129
10002950:	e138703a 	and	fp,fp,r4
10002954:	1802251e 	bne	r3,zero,100031ec <___vfprintf_internal_r+0xe28>
10002958:	48031726 	beq	r9,zero,100035b8 <___vfprintf_internal_r+0x11f4>
1000295c:	10803fcc 	andi	r2,r2,255
10002960:	00c00044 	movi	r3,1
10002964:	10c24526 	beq	r2,r3,1000327c <___vfprintf_internal_r+0xeb8>
10002968:	00c00084 	movi	r3,2
1000296c:	10c33426 	beq	r2,r3,10003640 <___vfprintf_internal_r+0x127c>
10002970:	d8c10e04 	addi	r3,sp,1080
10002974:	9008d0fa 	srli	r4,r18,3
10002978:	a80a977a 	slli	r5,r21,29
1000297c:	a82ad0fa 	srli	r21,r21,3
10002980:	948001cc 	andi	r18,r18,7
10002984:	90800c04 	addi	r2,r18,48
10002988:	18ffffc4 	addi	r3,r3,-1
1000298c:	2924b03a 	or	r18,r5,r4
10002990:	18800005 	stb	r2,0(r3)
10002994:	9548b03a 	or	r4,r18,r21
10002998:	203ff61e 	bne	r4,zero,10002974 <__alt_data_end+0xf8002974>
1000299c:	e100004c 	andi	r4,fp,1
100029a0:	d8c13115 	stw	r3,1220(sp)
100029a4:	20039a1e 	bne	r4,zero,10003810 <___vfprintf_internal_r+0x144c>
100029a8:	d8812817 	ldw	r2,1184(sp)
100029ac:	10e3c83a 	sub	r17,r2,r3
100029b0:	8805883a 	mov	r2,r17
100029b4:	8a40010e 	bge	r17,r9,100029bc <___vfprintf_internal_r+0x5f8>
100029b8:	4805883a 	mov	r2,r9
100029bc:	d8812b15 	stw	r2,1196(sp)
100029c0:	d8013415 	stw	zero,1232(sp)
100029c4:	98803fcc 	andi	r2,r19,255
100029c8:	1080201c 	xori	r2,r2,128
100029cc:	10bfe004 	addi	r2,r2,-128
100029d0:	10000326 	beq	r2,zero,100029e0 <___vfprintf_internal_r+0x61c>
100029d4:	d8c12b17 	ldw	r3,1196(sp)
100029d8:	18c00044 	addi	r3,r3,1
100029dc:	d8c12b15 	stw	r3,1196(sp)
100029e0:	e0c0008c 	andi	r3,fp,2
100029e4:	d8c12c15 	stw	r3,1200(sp)
100029e8:	18000326 	beq	r3,zero,100029f8 <___vfprintf_internal_r+0x634>
100029ec:	d8c12b17 	ldw	r3,1196(sp)
100029f0:	18c00084 	addi	r3,r3,2
100029f4:	d8c12b15 	stw	r3,1196(sp)
100029f8:	e0c0210c 	andi	r3,fp,132
100029fc:	d8c13015 	stw	r3,1216(sp)
10002a00:	1801f81e 	bne	r3,zero,100031e4 <___vfprintf_internal_r+0xe20>
10002a04:	d9012e17 	ldw	r4,1208(sp)
10002a08:	d8c12b17 	ldw	r3,1196(sp)
10002a0c:	20ebc83a 	sub	r21,r4,r3
10002a10:	0541f40e 	bge	zero,r21,100031e4 <___vfprintf_internal_r+0xe20>
10002a14:	02400404 	movi	r9,16
10002a18:	d8c12017 	ldw	r3,1152(sp)
10002a1c:	d8811f17 	ldw	r2,1148(sp)
10002a20:	4d45750e 	bge	r9,r21,10003ff8 <___vfprintf_internal_r+0x1c34>
10002a24:	01440074 	movhi	r5,4097
10002a28:	2946dd84 	addi	r5,r5,7030
10002a2c:	d9413615 	stw	r5,1240(sp)
10002a30:	4827883a 	mov	r19,r9
10002a34:	048001c4 	movi	r18,7
10002a38:	00000306 	br	10002a48 <___vfprintf_internal_r+0x684>
10002a3c:	ad7ffc04 	addi	r21,r21,-16
10002a40:	42000204 	addi	r8,r8,8
10002a44:	9d40130e 	bge	r19,r21,10002a94 <___vfprintf_internal_r+0x6d0>
10002a48:	01040074 	movhi	r4,4097
10002a4c:	18c00404 	addi	r3,r3,16
10002a50:	10800044 	addi	r2,r2,1
10002a54:	2106dd84 	addi	r4,r4,7030
10002a58:	41000015 	stw	r4,0(r8)
10002a5c:	44c00115 	stw	r19,4(r8)
10002a60:	d8c12015 	stw	r3,1152(sp)
10002a64:	d8811f15 	stw	r2,1148(sp)
10002a68:	90bff40e 	bge	r18,r2,10002a3c <__alt_data_end+0xf8002a3c>
10002a6c:	b809883a 	mov	r4,r23
10002a70:	b00b883a 	mov	r5,r22
10002a74:	d9811e04 	addi	r6,sp,1144
10002a78:	00098040 	call	10009804 <__sprint_r>
10002a7c:	103f691e 	bne	r2,zero,10002824 <__alt_data_end+0xf8002824>
10002a80:	ad7ffc04 	addi	r21,r21,-16
10002a84:	d8c12017 	ldw	r3,1152(sp)
10002a88:	d8811f17 	ldw	r2,1148(sp)
10002a8c:	da000404 	addi	r8,sp,16
10002a90:	9d7fed16 	blt	r19,r21,10002a48 <__alt_data_end+0xf8002a48>
10002a94:	d9413617 	ldw	r5,1240(sp)
10002a98:	a8c7883a 	add	r3,r21,r3
10002a9c:	10800044 	addi	r2,r2,1
10002aa0:	41400015 	stw	r5,0(r8)
10002aa4:	45400115 	stw	r21,4(r8)
10002aa8:	d8c12015 	stw	r3,1152(sp)
10002aac:	d8811f15 	stw	r2,1148(sp)
10002ab0:	010001c4 	movi	r4,7
10002ab4:	20832b16 	blt	r4,r2,10003764 <___vfprintf_internal_r+0x13a0>
10002ab8:	d8812787 	ldb	r2,1182(sp)
10002abc:	42000204 	addi	r8,r8,8
10002ac0:	10000c26 	beq	r2,zero,10002af4 <___vfprintf_internal_r+0x730>
10002ac4:	d8811f17 	ldw	r2,1148(sp)
10002ac8:	d9012784 	addi	r4,sp,1182
10002acc:	18c00044 	addi	r3,r3,1
10002ad0:	10800044 	addi	r2,r2,1
10002ad4:	41000015 	stw	r4,0(r8)
10002ad8:	01000044 	movi	r4,1
10002adc:	41000115 	stw	r4,4(r8)
10002ae0:	d8c12015 	stw	r3,1152(sp)
10002ae4:	d8811f15 	stw	r2,1148(sp)
10002ae8:	010001c4 	movi	r4,7
10002aec:	2082c416 	blt	r4,r2,10003600 <___vfprintf_internal_r+0x123c>
10002af0:	42000204 	addi	r8,r8,8
10002af4:	d8812c17 	ldw	r2,1200(sp)
10002af8:	10000c26 	beq	r2,zero,10002b2c <___vfprintf_internal_r+0x768>
10002afc:	d8811f17 	ldw	r2,1148(sp)
10002b00:	d9012704 	addi	r4,sp,1180
10002b04:	18c00084 	addi	r3,r3,2
10002b08:	10800044 	addi	r2,r2,1
10002b0c:	41000015 	stw	r4,0(r8)
10002b10:	01000084 	movi	r4,2
10002b14:	41000115 	stw	r4,4(r8)
10002b18:	d8c12015 	stw	r3,1152(sp)
10002b1c:	d8811f15 	stw	r2,1148(sp)
10002b20:	010001c4 	movi	r4,7
10002b24:	2082be16 	blt	r4,r2,10003620 <___vfprintf_internal_r+0x125c>
10002b28:	42000204 	addi	r8,r8,8
10002b2c:	d9013017 	ldw	r4,1216(sp)
10002b30:	00802004 	movi	r2,128
10002b34:	20822026 	beq	r4,r2,100033b8 <___vfprintf_internal_r+0xff4>
10002b38:	d9413217 	ldw	r5,1224(sp)
10002b3c:	2c67c83a 	sub	r19,r5,r17
10002b40:	04c0260e 	bge	zero,r19,10002bdc <___vfprintf_internal_r+0x818>
10002b44:	05400404 	movi	r21,16
10002b48:	d8811f17 	ldw	r2,1148(sp)
10002b4c:	acc4720e 	bge	r21,r19,10003d18 <___vfprintf_internal_r+0x1954>
10002b50:	01440074 	movhi	r5,4097
10002b54:	2946d984 	addi	r5,r5,7014
10002b58:	d9412c15 	stw	r5,1200(sp)
10002b5c:	048001c4 	movi	r18,7
10002b60:	00000306 	br	10002b70 <___vfprintf_internal_r+0x7ac>
10002b64:	9cfffc04 	addi	r19,r19,-16
10002b68:	42000204 	addi	r8,r8,8
10002b6c:	acc0110e 	bge	r21,r19,10002bb4 <___vfprintf_internal_r+0x7f0>
10002b70:	18c00404 	addi	r3,r3,16
10002b74:	10800044 	addi	r2,r2,1
10002b78:	45000015 	stw	r20,0(r8)
10002b7c:	45400115 	stw	r21,4(r8)
10002b80:	d8c12015 	stw	r3,1152(sp)
10002b84:	d8811f15 	stw	r2,1148(sp)
10002b88:	90bff60e 	bge	r18,r2,10002b64 <__alt_data_end+0xf8002b64>
10002b8c:	b809883a 	mov	r4,r23
10002b90:	b00b883a 	mov	r5,r22
10002b94:	d9811e04 	addi	r6,sp,1144
10002b98:	00098040 	call	10009804 <__sprint_r>
10002b9c:	103f211e 	bne	r2,zero,10002824 <__alt_data_end+0xf8002824>
10002ba0:	9cfffc04 	addi	r19,r19,-16
10002ba4:	d8c12017 	ldw	r3,1152(sp)
10002ba8:	d8811f17 	ldw	r2,1148(sp)
10002bac:	da000404 	addi	r8,sp,16
10002bb0:	acffef16 	blt	r21,r19,10002b70 <__alt_data_end+0xf8002b70>
10002bb4:	d9012c17 	ldw	r4,1200(sp)
10002bb8:	1cc7883a 	add	r3,r3,r19
10002bbc:	10800044 	addi	r2,r2,1
10002bc0:	41000015 	stw	r4,0(r8)
10002bc4:	44c00115 	stw	r19,4(r8)
10002bc8:	d8c12015 	stw	r3,1152(sp)
10002bcc:	d8811f15 	stw	r2,1148(sp)
10002bd0:	010001c4 	movi	r4,7
10002bd4:	20828216 	blt	r4,r2,100035e0 <___vfprintf_internal_r+0x121c>
10002bd8:	42000204 	addi	r8,r8,8
10002bdc:	e080400c 	andi	r2,fp,256
10002be0:	1001ac1e 	bne	r2,zero,10003294 <___vfprintf_internal_r+0xed0>
10002be4:	d8811f17 	ldw	r2,1148(sp)
10002be8:	d9413117 	ldw	r5,1220(sp)
10002bec:	1c47883a 	add	r3,r3,r17
10002bf0:	10800044 	addi	r2,r2,1
10002bf4:	41400015 	stw	r5,0(r8)
10002bf8:	44400115 	stw	r17,4(r8)
10002bfc:	d8c12015 	stw	r3,1152(sp)
10002c00:	d8811f15 	stw	r2,1148(sp)
10002c04:	010001c4 	movi	r4,7
10002c08:	20825d16 	blt	r4,r2,10003580 <___vfprintf_internal_r+0x11bc>
10002c0c:	42000204 	addi	r8,r8,8
10002c10:	e080010c 	andi	r2,fp,4
10002c14:	10003126 	beq	r2,zero,10002cdc <___vfprintf_internal_r+0x918>
10002c18:	d8812e17 	ldw	r2,1208(sp)
10002c1c:	d9012b17 	ldw	r4,1196(sp)
10002c20:	1121c83a 	sub	r16,r2,r4
10002c24:	04002d0e 	bge	zero,r16,10002cdc <___vfprintf_internal_r+0x918>
10002c28:	04400404 	movi	r17,16
10002c2c:	d8811f17 	ldw	r2,1148(sp)
10002c30:	8c05340e 	bge	r17,r16,10004104 <___vfprintf_internal_r+0x1d40>
10002c34:	01040074 	movhi	r4,4097
10002c38:	2106dd84 	addi	r4,r4,7030
10002c3c:	d9013615 	stw	r4,1240(sp)
10002c40:	048001c4 	movi	r18,7
10002c44:	00000306 	br	10002c54 <___vfprintf_internal_r+0x890>
10002c48:	843ffc04 	addi	r16,r16,-16
10002c4c:	42000204 	addi	r8,r8,8
10002c50:	8c00130e 	bge	r17,r16,10002ca0 <___vfprintf_internal_r+0x8dc>
10002c54:	01440074 	movhi	r5,4097
10002c58:	18c00404 	addi	r3,r3,16
10002c5c:	10800044 	addi	r2,r2,1
10002c60:	2946dd84 	addi	r5,r5,7030
10002c64:	41400015 	stw	r5,0(r8)
10002c68:	44400115 	stw	r17,4(r8)
10002c6c:	d8c12015 	stw	r3,1152(sp)
10002c70:	d8811f15 	stw	r2,1148(sp)
10002c74:	90bff40e 	bge	r18,r2,10002c48 <__alt_data_end+0xf8002c48>
10002c78:	b809883a 	mov	r4,r23
10002c7c:	b00b883a 	mov	r5,r22
10002c80:	d9811e04 	addi	r6,sp,1144
10002c84:	00098040 	call	10009804 <__sprint_r>
10002c88:	103ee61e 	bne	r2,zero,10002824 <__alt_data_end+0xf8002824>
10002c8c:	843ffc04 	addi	r16,r16,-16
10002c90:	d8c12017 	ldw	r3,1152(sp)
10002c94:	d8811f17 	ldw	r2,1148(sp)
10002c98:	da000404 	addi	r8,sp,16
10002c9c:	8c3fed16 	blt	r17,r16,10002c54 <__alt_data_end+0xf8002c54>
10002ca0:	d9013617 	ldw	r4,1240(sp)
10002ca4:	1c07883a 	add	r3,r3,r16
10002ca8:	10800044 	addi	r2,r2,1
10002cac:	41000015 	stw	r4,0(r8)
10002cb0:	44000115 	stw	r16,4(r8)
10002cb4:	d8c12015 	stw	r3,1152(sp)
10002cb8:	d8811f15 	stw	r2,1148(sp)
10002cbc:	010001c4 	movi	r4,7
10002cc0:	2080060e 	bge	r4,r2,10002cdc <___vfprintf_internal_r+0x918>
10002cc4:	b809883a 	mov	r4,r23
10002cc8:	b00b883a 	mov	r5,r22
10002ccc:	d9811e04 	addi	r6,sp,1144
10002cd0:	00098040 	call	10009804 <__sprint_r>
10002cd4:	103ed31e 	bne	r2,zero,10002824 <__alt_data_end+0xf8002824>
10002cd8:	d8c12017 	ldw	r3,1152(sp)
10002cdc:	df012b17 	ldw	fp,1196(sp)
10002ce0:	d9412e17 	ldw	r5,1208(sp)
10002ce4:	e140010e 	bge	fp,r5,10002cec <___vfprintf_internal_r+0x928>
10002ce8:	2839883a 	mov	fp,r5
10002cec:	d8812f17 	ldw	r2,1212(sp)
10002cf0:	1705883a 	add	r2,r2,fp
10002cf4:	d8812f15 	stw	r2,1212(sp)
10002cf8:	1802291e 	bne	r3,zero,100035a0 <___vfprintf_internal_r+0x11dc>
10002cfc:	d8c12a17 	ldw	r3,1192(sp)
10002d00:	d8011f15 	stw	zero,1148(sp)
10002d04:	da000404 	addi	r8,sp,16
10002d08:	18800007 	ldb	r2,0(r3)
10002d0c:	103ded1e 	bne	r2,zero,100024c4 <__alt_data_end+0xf80024c4>
10002d10:	dc012a17 	ldw	r16,1192(sp)
10002d14:	003e0506 	br	1000252c <__alt_data_end+0xf800252c>
10002d18:	d9012d17 	ldw	r4,1204(sp)
10002d1c:	d9412d17 	ldw	r5,1204(sp)
10002d20:	da012a17 	ldw	r8,1192(sp)
10002d24:	21000017 	ldw	r4,0(r4)
10002d28:	29400117 	ldw	r5,4(r5)
10002d2c:	df012a15 	stw	fp,1192(sp)
10002d30:	9839883a 	mov	fp,r19
10002d34:	dcc12b03 	ldbu	r19,1196(sp)
10002d38:	d9013715 	stw	r4,1244(sp)
10002d3c:	d9413915 	stw	r5,1252(sp)
10002d40:	da013f15 	stw	r8,1276(sp)
10002d44:	da413e15 	stw	r9,1272(sp)
10002d48:	dcc12785 	stb	r19,1182(sp)
10002d4c:	00094600 	call	10009460 <__fpclassifyd>
10002d50:	d8c12d17 	ldw	r3,1204(sp)
10002d54:	04400044 	movi	r17,1
10002d58:	da013f17 	ldw	r8,1276(sp)
10002d5c:	1c800204 	addi	r18,r3,8
10002d60:	da413e17 	ldw	r9,1272(sp)
10002d64:	d9013717 	ldw	r4,1244(sp)
10002d68:	d9413917 	ldw	r5,1252(sp)
10002d6c:	1443451e 	bne	r2,r17,10003a84 <___vfprintf_internal_r+0x16c0>
10002d70:	000d883a 	mov	r6,zero
10002d74:	000f883a 	mov	r7,zero
10002d78:	000d6e00 	call	1000d6e0 <__ledf2>
10002d7c:	da013f17 	ldw	r8,1276(sp)
10002d80:	1004fe16 	blt	r2,zero,1000417c <___vfprintf_internal_r+0x1db8>
10002d84:	dcc12783 	ldbu	r19,1182(sp)
10002d88:	008011c4 	movi	r2,71
10002d8c:	14045d0e 	bge	r2,r16,10003f04 <___vfprintf_internal_r+0x1b40>
10002d90:	01440074 	movhi	r5,4097
10002d94:	2946ca04 	addi	r5,r5,6952
10002d98:	d9413115 	stw	r5,1220(sp)
10002d9c:	00c000c4 	movi	r3,3
10002da0:	00bfdfc4 	movi	r2,-129
10002da4:	d8c12b15 	stw	r3,1196(sp)
10002da8:	e0b8703a 	and	fp,fp,r2
10002dac:	dc812d15 	stw	r18,1204(sp)
10002db0:	1823883a 	mov	r17,r3
10002db4:	d8013215 	stw	zero,1224(sp)
10002db8:	d8013415 	stw	zero,1232(sp)
10002dbc:	003f0106 	br	100029c4 <__alt_data_end+0xf80029c4>
10002dc0:	9cc00214 	ori	r19,r19,8
10002dc4:	e005883a 	mov	r2,fp
10002dc8:	e4000007 	ldb	r16,0(fp)
10002dcc:	003de506 	br	10002564 <__alt_data_end+0xf8002564>
10002dd0:	da012a17 	ldw	r8,1192(sp)
10002dd4:	df012a15 	stw	fp,1192(sp)
10002dd8:	9f000414 	ori	fp,r19,16
10002ddc:	e0c0080c 	andi	r3,fp,32
10002de0:	d8812d17 	ldw	r2,1204(sp)
10002de4:	18007626 	beq	r3,zero,10002fc0 <___vfprintf_internal_r+0xbfc>
10002de8:	d9412d17 	ldw	r5,1204(sp)
10002dec:	14800017 	ldw	r18,0(r2)
10002df0:	15400117 	ldw	r21,4(r2)
10002df4:	29400204 	addi	r5,r5,8
10002df8:	d9412d15 	stw	r5,1204(sp)
10002dfc:	0005883a 	mov	r2,zero
10002e00:	9546b03a 	or	r3,r18,r21
10002e04:	d8012785 	stb	zero,1182(sp)
10002e08:	da413215 	stw	r9,1224(sp)
10002e0c:	0027883a 	mov	r19,zero
10002e10:	003ecd06 	br	10002948 <__alt_data_end+0xf8002948>
10002e14:	da012a17 	ldw	r8,1192(sp)
10002e18:	df012a15 	stw	fp,1192(sp)
10002e1c:	9f000414 	ori	fp,r19,16
10002e20:	e0c0080c 	andi	r3,fp,32
10002e24:	d8812d17 	ldw	r2,1204(sp)
10002e28:	18002c26 	beq	r3,zero,10002edc <___vfprintf_internal_r+0xb18>
10002e2c:	d9012d17 	ldw	r4,1204(sp)
10002e30:	14800017 	ldw	r18,0(r2)
10002e34:	15400117 	ldw	r21,4(r2)
10002e38:	21000204 	addi	r4,r4,8
10002e3c:	d9012d15 	stw	r4,1204(sp)
10002e40:	00800044 	movi	r2,1
10002e44:	9546b03a 	or	r3,r18,r21
10002e48:	003fee06 	br	10002e04 <__alt_data_end+0xf8002e04>
10002e4c:	da012a17 	ldw	r8,1192(sp)
10002e50:	df012a15 	stw	fp,1192(sp)
10002e54:	9839883a 	mov	fp,r19
10002e58:	dcc12b03 	ldbu	r19,1196(sp)
10002e5c:	01440074 	movhi	r5,4097
10002e60:	2946cd04 	addi	r5,r5,6964
10002e64:	dcc12785 	stb	r19,1182(sp)
10002e68:	d9413b15 	stw	r5,1260(sp)
10002e6c:	e0c0080c 	andi	r3,fp,32
10002e70:	d8812d17 	ldw	r2,1204(sp)
10002e74:	18002e26 	beq	r3,zero,10002f30 <___vfprintf_internal_r+0xb6c>
10002e78:	d9412d17 	ldw	r5,1204(sp)
10002e7c:	14800017 	ldw	r18,0(r2)
10002e80:	15400117 	ldw	r21,4(r2)
10002e84:	29400204 	addi	r5,r5,8
10002e88:	d9412d15 	stw	r5,1204(sp)
10002e8c:	e080004c 	andi	r2,fp,1
10002e90:	10025c26 	beq	r2,zero,10003804 <___vfprintf_internal_r+0x1440>
10002e94:	9546b03a 	or	r3,r18,r21
10002e98:	18038f26 	beq	r3,zero,10003cd8 <___vfprintf_internal_r+0x1914>
10002e9c:	00800c04 	movi	r2,48
10002ea0:	d8812705 	stb	r2,1180(sp)
10002ea4:	dc012745 	stb	r16,1181(sp)
10002ea8:	e7000094 	ori	fp,fp,2
10002eac:	00800084 	movi	r2,2
10002eb0:	003fd406 	br	10002e04 <__alt_data_end+0xf8002e04>
10002eb4:	9cc00814 	ori	r19,r19,32
10002eb8:	e005883a 	mov	r2,fp
10002ebc:	e4000007 	ldb	r16,0(fp)
10002ec0:	003da806 	br	10002564 <__alt_data_end+0xf8002564>
10002ec4:	da012a17 	ldw	r8,1192(sp)
10002ec8:	df012a15 	stw	fp,1192(sp)
10002ecc:	9839883a 	mov	fp,r19
10002ed0:	e0c0080c 	andi	r3,fp,32
10002ed4:	d8812d17 	ldw	r2,1204(sp)
10002ed8:	183fd41e 	bne	r3,zero,10002e2c <__alt_data_end+0xf8002e2c>
10002edc:	e0c0040c 	andi	r3,fp,16
10002ee0:	18035f26 	beq	r3,zero,10003c60 <___vfprintf_internal_r+0x189c>
10002ee4:	d9412d17 	ldw	r5,1204(sp)
10002ee8:	14800017 	ldw	r18,0(r2)
10002eec:	002b883a 	mov	r21,zero
10002ef0:	29400104 	addi	r5,r5,4
10002ef4:	d9412d15 	stw	r5,1204(sp)
10002ef8:	00800044 	movi	r2,1
10002efc:	9007883a 	mov	r3,r18
10002f00:	003fc006 	br	10002e04 <__alt_data_end+0xf8002e04>
10002f04:	da012a17 	ldw	r8,1192(sp)
10002f08:	df012a15 	stw	fp,1192(sp)
10002f0c:	9839883a 	mov	fp,r19
10002f10:	dcc12b03 	ldbu	r19,1196(sp)
10002f14:	01040074 	movhi	r4,4097
10002f18:	2106d204 	addi	r4,r4,6984
10002f1c:	d9013b15 	stw	r4,1260(sp)
10002f20:	dcc12785 	stb	r19,1182(sp)
10002f24:	e0c0080c 	andi	r3,fp,32
10002f28:	d8812d17 	ldw	r2,1204(sp)
10002f2c:	183fd21e 	bne	r3,zero,10002e78 <__alt_data_end+0xf8002e78>
10002f30:	e0c0040c 	andi	r3,fp,16
10002f34:	18035426 	beq	r3,zero,10003c88 <___vfprintf_internal_r+0x18c4>
10002f38:	d8c12d17 	ldw	r3,1204(sp)
10002f3c:	14800017 	ldw	r18,0(r2)
10002f40:	002b883a 	mov	r21,zero
10002f44:	18c00104 	addi	r3,r3,4
10002f48:	d8c12d15 	stw	r3,1204(sp)
10002f4c:	003fcf06 	br	10002e8c <__alt_data_end+0xf8002e8c>
10002f50:	e4000007 	ldb	r16,0(fp)
10002f54:	00801b04 	movi	r2,108
10002f58:	8083f726 	beq	r16,r2,10003f38 <___vfprintf_internal_r+0x1b74>
10002f5c:	9cc00414 	ori	r19,r19,16
10002f60:	e005883a 	mov	r2,fp
10002f64:	003d7f06 	br	10002564 <__alt_data_end+0xf8002564>
10002f68:	da012a17 	ldw	r8,1192(sp)
10002f6c:	df012a15 	stw	fp,1192(sp)
10002f70:	9839883a 	mov	fp,r19
10002f74:	dcc12b03 	ldbu	r19,1196(sp)
10002f78:	e080080c 	andi	r2,fp,32
10002f7c:	dcc12785 	stb	r19,1182(sp)
10002f80:	10032226 	beq	r2,zero,10003c0c <___vfprintf_internal_r+0x1848>
10002f84:	d9412d17 	ldw	r5,1204(sp)
10002f88:	d9012f17 	ldw	r4,1212(sp)
10002f8c:	28800017 	ldw	r2,0(r5)
10002f90:	2007d7fa 	srai	r3,r4,31
10002f94:	29400104 	addi	r5,r5,4
10002f98:	d9412d15 	stw	r5,1204(sp)
10002f9c:	11000015 	stw	r4,0(r2)
10002fa0:	10c00115 	stw	r3,4(r2)
10002fa4:	003d4406 	br	100024b8 <__alt_data_end+0xf80024b8>
10002fa8:	da012a17 	ldw	r8,1192(sp)
10002fac:	df012a15 	stw	fp,1192(sp)
10002fb0:	9839883a 	mov	fp,r19
10002fb4:	e0c0080c 	andi	r3,fp,32
10002fb8:	d8812d17 	ldw	r2,1204(sp)
10002fbc:	183f8a1e 	bne	r3,zero,10002de8 <__alt_data_end+0xf8002de8>
10002fc0:	e0c0040c 	andi	r3,fp,16
10002fc4:	18031c26 	beq	r3,zero,10003c38 <___vfprintf_internal_r+0x1874>
10002fc8:	14800017 	ldw	r18,0(r2)
10002fcc:	d8812d17 	ldw	r2,1204(sp)
10002fd0:	002b883a 	mov	r21,zero
10002fd4:	9007883a 	mov	r3,r18
10002fd8:	10800104 	addi	r2,r2,4
10002fdc:	d8812d15 	stw	r2,1204(sp)
10002fe0:	0005883a 	mov	r2,zero
10002fe4:	003f8706 	br	10002e04 <__alt_data_end+0xf8002e04>
10002fe8:	d9412d17 	ldw	r5,1204(sp)
10002fec:	00800c04 	movi	r2,48
10002ff0:	d8812705 	stb	r2,1180(sp)
10002ff4:	2c800017 	ldw	r18,0(r5)
10002ff8:	00801e04 	movi	r2,120
10002ffc:	d8812745 	stb	r2,1181(sp)
10003000:	00840074 	movhi	r2,4097
10003004:	1086d204 	addi	r2,r2,6984
10003008:	29400104 	addi	r5,r5,4
1000300c:	da012a17 	ldw	r8,1192(sp)
10003010:	d8813b15 	stw	r2,1260(sp)
10003014:	df012a15 	stw	fp,1192(sp)
10003018:	002b883a 	mov	r21,zero
1000301c:	9f000094 	ori	fp,r19,2
10003020:	d9412d15 	stw	r5,1204(sp)
10003024:	00800084 	movi	r2,2
10003028:	04001e04 	movi	r16,120
1000302c:	9007883a 	mov	r3,r18
10003030:	003f7406 	br	10002e04 <__alt_data_end+0xf8002e04>
10003034:	da012a17 	ldw	r8,1192(sp)
10003038:	df012a15 	stw	fp,1192(sp)
1000303c:	9839883a 	mov	fp,r19
10003040:	dcc12b03 	ldbu	r19,1196(sp)
10003044:	e080080c 	andi	r2,fp,32
10003048:	d8c12d17 	ldw	r3,1204(sp)
1000304c:	dcc12785 	stb	r19,1182(sp)
10003050:	103e321e 	bne	r2,zero,1000291c <__alt_data_end+0xf800291c>
10003054:	e080040c 	andi	r2,fp,16
10003058:	10031326 	beq	r2,zero,10003ca8 <___vfprintf_internal_r+0x18e4>
1000305c:	1c800017 	ldw	r18,0(r3)
10003060:	d9412d17 	ldw	r5,1204(sp)
10003064:	902bd7fa 	srai	r21,r18,31
10003068:	29400104 	addi	r5,r5,4
1000306c:	d9412d15 	stw	r5,1204(sp)
10003070:	a805883a 	mov	r2,r21
10003074:	003e2f06 	br	10002934 <__alt_data_end+0xf8002934>
10003078:	9cc01014 	ori	r19,r19,64
1000307c:	e005883a 	mov	r2,fp
10003080:	e4000007 	ldb	r16,0(fp)
10003084:	003d3706 	br	10002564 <__alt_data_end+0xf8002564>
10003088:	d8c12d17 	ldw	r3,1204(sp)
1000308c:	d9012d17 	ldw	r4,1204(sp)
10003090:	da012a17 	ldw	r8,1192(sp)
10003094:	18800017 	ldw	r2,0(r3)
10003098:	21000104 	addi	r4,r4,4
1000309c:	00c00044 	movi	r3,1
100030a0:	df012a15 	stw	fp,1192(sp)
100030a4:	d8c12b15 	stw	r3,1196(sp)
100030a8:	9839883a 	mov	fp,r19
100030ac:	d8012785 	stb	zero,1182(sp)
100030b0:	d8810405 	stb	r2,1040(sp)
100030b4:	d9012d15 	stw	r4,1204(sp)
100030b8:	1823883a 	mov	r17,r3
100030bc:	d8c10404 	addi	r3,sp,1040
100030c0:	d8013215 	stw	zero,1224(sp)
100030c4:	d8013415 	stw	zero,1232(sp)
100030c8:	d8c13115 	stw	r3,1220(sp)
100030cc:	0005883a 	mov	r2,zero
100030d0:	003e4306 	br	100029e0 <__alt_data_end+0xf80029e0>
100030d4:	d8812b07 	ldb	r2,1196(sp)
100030d8:	1002fc1e 	bne	r2,zero,10003ccc <___vfprintf_internal_r+0x1908>
100030dc:	00c00804 	movi	r3,32
100030e0:	d8c12b05 	stb	r3,1196(sp)
100030e4:	e005883a 	mov	r2,fp
100030e8:	e4000007 	ldb	r16,0(fp)
100030ec:	003d1d06 	br	10002564 <__alt_data_end+0xf8002564>
100030f0:	9cc00054 	ori	r19,r19,1
100030f4:	e005883a 	mov	r2,fp
100030f8:	e4000007 	ldb	r16,0(fp)
100030fc:	003d1906 	br	10002564 <__alt_data_end+0xf8002564>
10003100:	d9012d17 	ldw	r4,1204(sp)
10003104:	d9412d17 	ldw	r5,1204(sp)
10003108:	21000017 	ldw	r4,0(r4)
1000310c:	28c00104 	addi	r3,r5,4
10003110:	d9012e15 	stw	r4,1208(sp)
10003114:	20038c16 	blt	r4,zero,10003f48 <___vfprintf_internal_r+0x1b84>
10003118:	d8c12d15 	stw	r3,1204(sp)
1000311c:	e005883a 	mov	r2,fp
10003120:	e4000007 	ldb	r16,0(fp)
10003124:	003d0f06 	br	10002564 <__alt_data_end+0xf8002564>
10003128:	00c00ac4 	movi	r3,43
1000312c:	d8c12b05 	stb	r3,1196(sp)
10003130:	e005883a 	mov	r2,fp
10003134:	e4000007 	ldb	r16,0(fp)
10003138:	003d0a06 	br	10002564 <__alt_data_end+0xf8002564>
1000313c:	d8c12d17 	ldw	r3,1204(sp)
10003140:	d9012d17 	ldw	r4,1204(sp)
10003144:	da012a17 	ldw	r8,1192(sp)
10003148:	18c00017 	ldw	r3,0(r3)
1000314c:	df012a15 	stw	fp,1192(sp)
10003150:	d8012785 	stb	zero,1182(sp)
10003154:	d8c13115 	stw	r3,1220(sp)
10003158:	9839883a 	mov	fp,r19
1000315c:	24800104 	addi	r18,r4,4
10003160:	1803f726 	beq	r3,zero,10004140 <___vfprintf_internal_r+0x1d7c>
10003164:	d9013117 	ldw	r4,1220(sp)
10003168:	48038916 	blt	r9,zero,10003f90 <___vfprintf_internal_r+0x1bcc>
1000316c:	480d883a 	mov	r6,r9
10003170:	000b883a 	mov	r5,zero
10003174:	da013f15 	stw	r8,1276(sp)
10003178:	da413e15 	stw	r9,1272(sp)
1000317c:	00079d80 	call	100079d8 <memchr>
10003180:	da013f17 	ldw	r8,1276(sp)
10003184:	da413e17 	ldw	r9,1272(sp)
10003188:	10045926 	beq	r2,zero,100042f0 <___vfprintf_internal_r+0x1f2c>
1000318c:	d8c13117 	ldw	r3,1220(sp)
10003190:	10e3c83a 	sub	r17,r2,r3
10003194:	4c433516 	blt	r9,r17,10003e6c <___vfprintf_internal_r+0x1aa8>
10003198:	8805883a 	mov	r2,r17
1000319c:	88038116 	blt	r17,zero,10003fa4 <___vfprintf_internal_r+0x1be0>
100031a0:	dcc12783 	ldbu	r19,1182(sp)
100031a4:	d8812b15 	stw	r2,1196(sp)
100031a8:	dc812d15 	stw	r18,1204(sp)
100031ac:	d8013215 	stw	zero,1224(sp)
100031b0:	d8013415 	stw	zero,1232(sp)
100031b4:	003e0306 	br	100029c4 <__alt_data_end+0xf80029c4>
100031b8:	da012a17 	ldw	r8,1192(sp)
100031bc:	df012a15 	stw	fp,1192(sp)
100031c0:	9839883a 	mov	fp,r19
100031c4:	dcc12b03 	ldbu	r19,1196(sp)
100031c8:	dcc12785 	stb	r19,1182(sp)
100031cc:	803d8f26 	beq	r16,zero,1000280c <__alt_data_end+0xf800280c>
100031d0:	00c00044 	movi	r3,1
100031d4:	d8c12b15 	stw	r3,1196(sp)
100031d8:	dc010405 	stb	r16,1040(sp)
100031dc:	d8012785 	stb	zero,1182(sp)
100031e0:	003fb506 	br	100030b8 <__alt_data_end+0xf80030b8>
100031e4:	d8c12017 	ldw	r3,1152(sp)
100031e8:	003e3506 	br	10002ac0 <__alt_data_end+0xf8002ac0>
100031ec:	10803fcc 	andi	r2,r2,255
100031f0:	00c00044 	movi	r3,1
100031f4:	10fddc1e 	bne	r2,r3,10002968 <__alt_data_end+0xf8002968>
100031f8:	a800021e 	bne	r21,zero,10003204 <___vfprintf_internal_r+0xe40>
100031fc:	00800244 	movi	r2,9
10003200:	14801e2e 	bgeu	r2,r18,1000327c <___vfprintf_internal_r+0xeb8>
10003204:	dc012b15 	stw	r16,1196(sp)
10003208:	dc410e04 	addi	r17,sp,1080
1000320c:	9021883a 	mov	r16,r18
10003210:	da012c15 	stw	r8,1200(sp)
10003214:	a825883a 	mov	r18,r21
10003218:	482b883a 	mov	r21,r9
1000321c:	8009883a 	mov	r4,r16
10003220:	900b883a 	mov	r5,r18
10003224:	01800284 	movi	r6,10
10003228:	000f883a 	mov	r7,zero
1000322c:	000bbf00 	call	1000bbf0 <__umoddi3>
10003230:	10800c04 	addi	r2,r2,48
10003234:	8c7fffc4 	addi	r17,r17,-1
10003238:	8009883a 	mov	r4,r16
1000323c:	900b883a 	mov	r5,r18
10003240:	01800284 	movi	r6,10
10003244:	000f883a 	mov	r7,zero
10003248:	88800005 	stb	r2,0(r17)
1000324c:	000b5b00 	call	1000b5b0 <__udivdi3>
10003250:	1021883a 	mov	r16,r2
10003254:	10c4b03a 	or	r2,r2,r3
10003258:	1825883a 	mov	r18,r3
1000325c:	103fef1e 	bne	r2,zero,1000321c <__alt_data_end+0xf800321c>
10003260:	d9012817 	ldw	r4,1184(sp)
10003264:	dc413115 	stw	r17,1220(sp)
10003268:	dc012b17 	ldw	r16,1196(sp)
1000326c:	da012c17 	ldw	r8,1200(sp)
10003270:	a813883a 	mov	r9,r21
10003274:	2463c83a 	sub	r17,r4,r17
10003278:	003dcd06 	br	100029b0 <__alt_data_end+0xf80029b0>
1000327c:	94800c04 	addi	r18,r18,48
10003280:	d8c10dc4 	addi	r3,sp,1079
10003284:	dc810dc5 	stb	r18,1079(sp)
10003288:	dc413c17 	ldw	r17,1264(sp)
1000328c:	d8c13115 	stw	r3,1220(sp)
10003290:	003dc706 	br	100029b0 <__alt_data_end+0xf80029b0>
10003294:	00801944 	movi	r2,101
10003298:	1400720e 	bge	r2,r16,10003464 <___vfprintf_internal_r+0x10a0>
1000329c:	d9013717 	ldw	r4,1244(sp)
100032a0:	d9413917 	ldw	r5,1252(sp)
100032a4:	000d883a 	mov	r6,zero
100032a8:	000f883a 	mov	r7,zero
100032ac:	d8c13d15 	stw	r3,1268(sp)
100032b0:	da013f15 	stw	r8,1276(sp)
100032b4:	000d57c0 	call	1000d57c <__eqdf2>
100032b8:	d8c13d17 	ldw	r3,1268(sp)
100032bc:	da013f17 	ldw	r8,1276(sp)
100032c0:	1000f41e 	bne	r2,zero,10003694 <___vfprintf_internal_r+0x12d0>
100032c4:	d8811f17 	ldw	r2,1148(sp)
100032c8:	01040074 	movhi	r4,4097
100032cc:	2106d904 	addi	r4,r4,7012
100032d0:	18c00044 	addi	r3,r3,1
100032d4:	10800044 	addi	r2,r2,1
100032d8:	41000015 	stw	r4,0(r8)
100032dc:	01000044 	movi	r4,1
100032e0:	41000115 	stw	r4,4(r8)
100032e4:	d8c12015 	stw	r3,1152(sp)
100032e8:	d8811f15 	stw	r2,1148(sp)
100032ec:	010001c4 	movi	r4,7
100032f0:	20828d16 	blt	r4,r2,10003d28 <___vfprintf_internal_r+0x1964>
100032f4:	42000204 	addi	r8,r8,8
100032f8:	d8812617 	ldw	r2,1176(sp)
100032fc:	d9413317 	ldw	r5,1228(sp)
10003300:	11400216 	blt	r2,r5,1000330c <___vfprintf_internal_r+0xf48>
10003304:	e080004c 	andi	r2,fp,1
10003308:	103e4126 	beq	r2,zero,10002c10 <__alt_data_end+0xf8002c10>
1000330c:	d8813817 	ldw	r2,1248(sp)
10003310:	d9013517 	ldw	r4,1236(sp)
10003314:	d9413817 	ldw	r5,1248(sp)
10003318:	1887883a 	add	r3,r3,r2
1000331c:	d8811f17 	ldw	r2,1148(sp)
10003320:	41000015 	stw	r4,0(r8)
10003324:	41400115 	stw	r5,4(r8)
10003328:	10800044 	addi	r2,r2,1
1000332c:	d8c12015 	stw	r3,1152(sp)
10003330:	d8811f15 	stw	r2,1148(sp)
10003334:	010001c4 	movi	r4,7
10003338:	20830916 	blt	r4,r2,10003f60 <___vfprintf_internal_r+0x1b9c>
1000333c:	42000204 	addi	r8,r8,8
10003340:	d8813317 	ldw	r2,1228(sp)
10003344:	143fffc4 	addi	r16,r2,-1
10003348:	043e310e 	bge	zero,r16,10002c10 <__alt_data_end+0xf8002c10>
1000334c:	04400404 	movi	r17,16
10003350:	d8811f17 	ldw	r2,1148(sp)
10003354:	8c007e0e 	bge	r17,r16,10003550 <___vfprintf_internal_r+0x118c>
10003358:	01440074 	movhi	r5,4097
1000335c:	2946d984 	addi	r5,r5,7014
10003360:	d9412c15 	stw	r5,1200(sp)
10003364:	04c001c4 	movi	r19,7
10003368:	00000306 	br	10003378 <___vfprintf_internal_r+0xfb4>
1000336c:	42000204 	addi	r8,r8,8
10003370:	843ffc04 	addi	r16,r16,-16
10003374:	8c00790e 	bge	r17,r16,1000355c <___vfprintf_internal_r+0x1198>
10003378:	18c00404 	addi	r3,r3,16
1000337c:	10800044 	addi	r2,r2,1
10003380:	45000015 	stw	r20,0(r8)
10003384:	44400115 	stw	r17,4(r8)
10003388:	d8c12015 	stw	r3,1152(sp)
1000338c:	d8811f15 	stw	r2,1148(sp)
10003390:	98bff60e 	bge	r19,r2,1000336c <__alt_data_end+0xf800336c>
10003394:	b809883a 	mov	r4,r23
10003398:	b00b883a 	mov	r5,r22
1000339c:	d9811e04 	addi	r6,sp,1144
100033a0:	00098040 	call	10009804 <__sprint_r>
100033a4:	103d1f1e 	bne	r2,zero,10002824 <__alt_data_end+0xf8002824>
100033a8:	d8c12017 	ldw	r3,1152(sp)
100033ac:	d8811f17 	ldw	r2,1148(sp)
100033b0:	da000404 	addi	r8,sp,16
100033b4:	003fee06 	br	10003370 <__alt_data_end+0xf8003370>
100033b8:	d9412e17 	ldw	r5,1208(sp)
100033bc:	d8812b17 	ldw	r2,1196(sp)
100033c0:	28a7c83a 	sub	r19,r5,r2
100033c4:	04fddc0e 	bge	zero,r19,10002b38 <__alt_data_end+0xf8002b38>
100033c8:	05400404 	movi	r21,16
100033cc:	d8811f17 	ldw	r2,1148(sp)
100033d0:	acc3870e 	bge	r21,r19,100041f0 <___vfprintf_internal_r+0x1e2c>
100033d4:	01440074 	movhi	r5,4097
100033d8:	2946d984 	addi	r5,r5,7014
100033dc:	d9412c15 	stw	r5,1200(sp)
100033e0:	048001c4 	movi	r18,7
100033e4:	00000306 	br	100033f4 <___vfprintf_internal_r+0x1030>
100033e8:	9cfffc04 	addi	r19,r19,-16
100033ec:	42000204 	addi	r8,r8,8
100033f0:	acc0110e 	bge	r21,r19,10003438 <___vfprintf_internal_r+0x1074>
100033f4:	18c00404 	addi	r3,r3,16
100033f8:	10800044 	addi	r2,r2,1
100033fc:	45000015 	stw	r20,0(r8)
10003400:	45400115 	stw	r21,4(r8)
10003404:	d8c12015 	stw	r3,1152(sp)
10003408:	d8811f15 	stw	r2,1148(sp)
1000340c:	90bff60e 	bge	r18,r2,100033e8 <__alt_data_end+0xf80033e8>
10003410:	b809883a 	mov	r4,r23
10003414:	b00b883a 	mov	r5,r22
10003418:	d9811e04 	addi	r6,sp,1144
1000341c:	00098040 	call	10009804 <__sprint_r>
10003420:	103d001e 	bne	r2,zero,10002824 <__alt_data_end+0xf8002824>
10003424:	9cfffc04 	addi	r19,r19,-16
10003428:	d8c12017 	ldw	r3,1152(sp)
1000342c:	d8811f17 	ldw	r2,1148(sp)
10003430:	da000404 	addi	r8,sp,16
10003434:	acffef16 	blt	r21,r19,100033f4 <__alt_data_end+0xf80033f4>
10003438:	d9012c17 	ldw	r4,1200(sp)
1000343c:	1cc7883a 	add	r3,r3,r19
10003440:	10800044 	addi	r2,r2,1
10003444:	41000015 	stw	r4,0(r8)
10003448:	44c00115 	stw	r19,4(r8)
1000344c:	d8c12015 	stw	r3,1152(sp)
10003450:	d8811f15 	stw	r2,1148(sp)
10003454:	010001c4 	movi	r4,7
10003458:	20817816 	blt	r4,r2,10003a3c <___vfprintf_internal_r+0x1678>
1000345c:	42000204 	addi	r8,r8,8
10003460:	003db506 	br	10002b38 <__alt_data_end+0xf8002b38>
10003464:	d9413317 	ldw	r5,1228(sp)
10003468:	00800044 	movi	r2,1
1000346c:	18c00044 	addi	r3,r3,1
10003470:	11413e0e 	bge	r2,r5,1000396c <___vfprintf_internal_r+0x15a8>
10003474:	dc011f17 	ldw	r16,1148(sp)
10003478:	d8813117 	ldw	r2,1220(sp)
1000347c:	d8c12015 	stw	r3,1152(sp)
10003480:	84000044 	addi	r16,r16,1
10003484:	40800015 	stw	r2,0(r8)
10003488:	00800044 	movi	r2,1
1000348c:	40800115 	stw	r2,4(r8)
10003490:	dc011f15 	stw	r16,1148(sp)
10003494:	008001c4 	movi	r2,7
10003498:	14015616 	blt	r2,r16,100039f4 <___vfprintf_internal_r+0x1630>
1000349c:	42000204 	addi	r8,r8,8
100034a0:	d9013817 	ldw	r4,1248(sp)
100034a4:	d9413517 	ldw	r5,1236(sp)
100034a8:	84000044 	addi	r16,r16,1
100034ac:	1907883a 	add	r3,r3,r4
100034b0:	41400015 	stw	r5,0(r8)
100034b4:	41000115 	stw	r4,4(r8)
100034b8:	d8c12015 	stw	r3,1152(sp)
100034bc:	dc011f15 	stw	r16,1148(sp)
100034c0:	008001c4 	movi	r2,7
100034c4:	14015416 	blt	r2,r16,10003a18 <___vfprintf_internal_r+0x1654>
100034c8:	44400204 	addi	r17,r8,8
100034cc:	d9013717 	ldw	r4,1244(sp)
100034d0:	d9413917 	ldw	r5,1252(sp)
100034d4:	000d883a 	mov	r6,zero
100034d8:	000f883a 	mov	r7,zero
100034dc:	d8c13d15 	stw	r3,1268(sp)
100034e0:	000d57c0 	call	1000d57c <__eqdf2>
100034e4:	d8c13d17 	ldw	r3,1268(sp)
100034e8:	1000a726 	beq	r2,zero,10003788 <___vfprintf_internal_r+0x13c4>
100034ec:	d9013317 	ldw	r4,1228(sp)
100034f0:	d9413117 	ldw	r5,1220(sp)
100034f4:	84000044 	addi	r16,r16,1
100034f8:	20bfffc4 	addi	r2,r4,-1
100034fc:	1887883a 	add	r3,r3,r2
10003500:	29000044 	addi	r4,r5,1
10003504:	88800115 	stw	r2,4(r17)
10003508:	89000015 	stw	r4,0(r17)
1000350c:	d8c12015 	stw	r3,1152(sp)
10003510:	dc011f15 	stw	r16,1148(sp)
10003514:	008001c4 	movi	r2,7
10003518:	14012d16 	blt	r2,r16,100039d0 <___vfprintf_internal_r+0x160c>
1000351c:	8c400204 	addi	r17,r17,8
10003520:	d9413a17 	ldw	r5,1256(sp)
10003524:	dcc122c4 	addi	r19,sp,1163
10003528:	84000044 	addi	r16,r16,1
1000352c:	28c7883a 	add	r3,r5,r3
10003530:	8cc00015 	stw	r19,0(r17)
10003534:	89400115 	stw	r5,4(r17)
10003538:	d8c12015 	stw	r3,1152(sp)
1000353c:	dc011f15 	stw	r16,1148(sp)
10003540:	008001c4 	movi	r2,7
10003544:	14000e16 	blt	r2,r16,10003580 <___vfprintf_internal_r+0x11bc>
10003548:	8a000204 	addi	r8,r17,8
1000354c:	003db006 	br	10002c10 <__alt_data_end+0xf8002c10>
10003550:	01040074 	movhi	r4,4097
10003554:	2106d984 	addi	r4,r4,7014
10003558:	d9012c15 	stw	r4,1200(sp)
1000355c:	d9012c17 	ldw	r4,1200(sp)
10003560:	1c07883a 	add	r3,r3,r16
10003564:	44000115 	stw	r16,4(r8)
10003568:	41000015 	stw	r4,0(r8)
1000356c:	10800044 	addi	r2,r2,1
10003570:	d8c12015 	stw	r3,1152(sp)
10003574:	d8811f15 	stw	r2,1148(sp)
10003578:	010001c4 	movi	r4,7
1000357c:	20bda30e 	bge	r4,r2,10002c0c <__alt_data_end+0xf8002c0c>
10003580:	b809883a 	mov	r4,r23
10003584:	b00b883a 	mov	r5,r22
10003588:	d9811e04 	addi	r6,sp,1144
1000358c:	00098040 	call	10009804 <__sprint_r>
10003590:	103ca41e 	bne	r2,zero,10002824 <__alt_data_end+0xf8002824>
10003594:	d8c12017 	ldw	r3,1152(sp)
10003598:	da000404 	addi	r8,sp,16
1000359c:	003d9c06 	br	10002c10 <__alt_data_end+0xf8002c10>
100035a0:	b809883a 	mov	r4,r23
100035a4:	b00b883a 	mov	r5,r22
100035a8:	d9811e04 	addi	r6,sp,1144
100035ac:	00098040 	call	10009804 <__sprint_r>
100035b0:	103dd226 	beq	r2,zero,10002cfc <__alt_data_end+0xf8002cfc>
100035b4:	003c9b06 	br	10002824 <__alt_data_end+0xf8002824>
100035b8:	10803fcc 	andi	r2,r2,255
100035bc:	1000311e 	bne	r2,zero,10003684 <___vfprintf_internal_r+0x12c0>
100035c0:	e080004c 	andi	r2,fp,1
100035c4:	10002f26 	beq	r2,zero,10003684 <___vfprintf_internal_r+0x12c0>
100035c8:	00800c04 	movi	r2,48
100035cc:	d8c10dc4 	addi	r3,sp,1079
100035d0:	d8810dc5 	stb	r2,1079(sp)
100035d4:	dc413c17 	ldw	r17,1264(sp)
100035d8:	d8c13115 	stw	r3,1220(sp)
100035dc:	003cf406 	br	100029b0 <__alt_data_end+0xf80029b0>
100035e0:	b809883a 	mov	r4,r23
100035e4:	b00b883a 	mov	r5,r22
100035e8:	d9811e04 	addi	r6,sp,1144
100035ec:	00098040 	call	10009804 <__sprint_r>
100035f0:	103c8c1e 	bne	r2,zero,10002824 <__alt_data_end+0xf8002824>
100035f4:	d8c12017 	ldw	r3,1152(sp)
100035f8:	da000404 	addi	r8,sp,16
100035fc:	003d7706 	br	10002bdc <__alt_data_end+0xf8002bdc>
10003600:	b809883a 	mov	r4,r23
10003604:	b00b883a 	mov	r5,r22
10003608:	d9811e04 	addi	r6,sp,1144
1000360c:	00098040 	call	10009804 <__sprint_r>
10003610:	103c841e 	bne	r2,zero,10002824 <__alt_data_end+0xf8002824>
10003614:	d8c12017 	ldw	r3,1152(sp)
10003618:	da000404 	addi	r8,sp,16
1000361c:	003d3506 	br	10002af4 <__alt_data_end+0xf8002af4>
10003620:	b809883a 	mov	r4,r23
10003624:	b00b883a 	mov	r5,r22
10003628:	d9811e04 	addi	r6,sp,1144
1000362c:	00098040 	call	10009804 <__sprint_r>
10003630:	103c7c1e 	bne	r2,zero,10002824 <__alt_data_end+0xf8002824>
10003634:	d8c12017 	ldw	r3,1152(sp)
10003638:	da000404 	addi	r8,sp,16
1000363c:	003d3b06 	br	10002b2c <__alt_data_end+0xf8002b2c>
10003640:	d9413b17 	ldw	r5,1260(sp)
10003644:	d8c10e04 	addi	r3,sp,1080
10003648:	908003cc 	andi	r2,r18,15
1000364c:	a808973a 	slli	r4,r21,28
10003650:	2885883a 	add	r2,r5,r2
10003654:	9024d13a 	srli	r18,r18,4
10003658:	10800003 	ldbu	r2,0(r2)
1000365c:	a82ad13a 	srli	r21,r21,4
10003660:	18ffffc4 	addi	r3,r3,-1
10003664:	24a4b03a 	or	r18,r4,r18
10003668:	18800005 	stb	r2,0(r3)
1000366c:	9544b03a 	or	r2,r18,r21
10003670:	103ff51e 	bne	r2,zero,10003648 <__alt_data_end+0xf8003648>
10003674:	d9412817 	ldw	r5,1184(sp)
10003678:	d8c13115 	stw	r3,1220(sp)
1000367c:	28e3c83a 	sub	r17,r5,r3
10003680:	003ccb06 	br	100029b0 <__alt_data_end+0xf80029b0>
10003684:	d8c10e04 	addi	r3,sp,1080
10003688:	0023883a 	mov	r17,zero
1000368c:	d8c13115 	stw	r3,1220(sp)
10003690:	003cc706 	br	100029b0 <__alt_data_end+0xf80029b0>
10003694:	dc012617 	ldw	r16,1176(sp)
10003698:	0401ab0e 	bge	zero,r16,10003d48 <___vfprintf_internal_r+0x1984>
1000369c:	d8813317 	ldw	r2,1228(sp)
100036a0:	d9413117 	ldw	r5,1220(sp)
100036a4:	d9013417 	ldw	r4,1232(sp)
100036a8:	1023883a 	mov	r17,r2
100036ac:	28a1883a 	add	r16,r5,r2
100036b0:	2080010e 	bge	r4,r2,100036b8 <___vfprintf_internal_r+0x12f4>
100036b4:	2023883a 	mov	r17,r4
100036b8:	04400b0e 	bge	zero,r17,100036e8 <___vfprintf_internal_r+0x1324>
100036bc:	d8811f17 	ldw	r2,1148(sp)
100036c0:	d9413117 	ldw	r5,1220(sp)
100036c4:	1c47883a 	add	r3,r3,r17
100036c8:	10800044 	addi	r2,r2,1
100036cc:	41400015 	stw	r5,0(r8)
100036d0:	44400115 	stw	r17,4(r8)
100036d4:	d8c12015 	stw	r3,1152(sp)
100036d8:	d8811f15 	stw	r2,1148(sp)
100036dc:	010001c4 	movi	r4,7
100036e0:	20826716 	blt	r4,r2,10004080 <___vfprintf_internal_r+0x1cbc>
100036e4:	42000204 	addi	r8,r8,8
100036e8:	88026316 	blt	r17,zero,10004078 <___vfprintf_internal_r+0x1cb4>
100036ec:	d8813417 	ldw	r2,1232(sp)
100036f0:	1463c83a 	sub	r17,r2,r17
100036f4:	0440590e 	bge	zero,r17,1000385c <___vfprintf_internal_r+0x1498>
100036f8:	04c00404 	movi	r19,16
100036fc:	d8811f17 	ldw	r2,1148(sp)
10003700:	9c41770e 	bge	r19,r17,10003ce0 <___vfprintf_internal_r+0x191c>
10003704:	01440074 	movhi	r5,4097
10003708:	2946d984 	addi	r5,r5,7014
1000370c:	d9412c15 	stw	r5,1200(sp)
10003710:	054001c4 	movi	r21,7
10003714:	00000306 	br	10003724 <___vfprintf_internal_r+0x1360>
10003718:	42000204 	addi	r8,r8,8
1000371c:	8c7ffc04 	addi	r17,r17,-16
10003720:	9c41720e 	bge	r19,r17,10003cec <___vfprintf_internal_r+0x1928>
10003724:	18c00404 	addi	r3,r3,16
10003728:	10800044 	addi	r2,r2,1
1000372c:	45000015 	stw	r20,0(r8)
10003730:	44c00115 	stw	r19,4(r8)
10003734:	d8c12015 	stw	r3,1152(sp)
10003738:	d8811f15 	stw	r2,1148(sp)
1000373c:	a8bff60e 	bge	r21,r2,10003718 <__alt_data_end+0xf8003718>
10003740:	b809883a 	mov	r4,r23
10003744:	b00b883a 	mov	r5,r22
10003748:	d9811e04 	addi	r6,sp,1144
1000374c:	00098040 	call	10009804 <__sprint_r>
10003750:	103c341e 	bne	r2,zero,10002824 <__alt_data_end+0xf8002824>
10003754:	d8c12017 	ldw	r3,1152(sp)
10003758:	d8811f17 	ldw	r2,1148(sp)
1000375c:	da000404 	addi	r8,sp,16
10003760:	003fee06 	br	1000371c <__alt_data_end+0xf800371c>
10003764:	b809883a 	mov	r4,r23
10003768:	b00b883a 	mov	r5,r22
1000376c:	d9811e04 	addi	r6,sp,1144
10003770:	00098040 	call	10009804 <__sprint_r>
10003774:	103c2b1e 	bne	r2,zero,10002824 <__alt_data_end+0xf8002824>
10003778:	d8c12017 	ldw	r3,1152(sp)
1000377c:	d8812787 	ldb	r2,1182(sp)
10003780:	da000404 	addi	r8,sp,16
10003784:	003cce06 	br	10002ac0 <__alt_data_end+0xf8002ac0>
10003788:	d8813317 	ldw	r2,1228(sp)
1000378c:	14ffffc4 	addi	r19,r2,-1
10003790:	04ff630e 	bge	zero,r19,10003520 <__alt_data_end+0xf8003520>
10003794:	05400404 	movi	r21,16
10003798:	acc0810e 	bge	r21,r19,100039a0 <___vfprintf_internal_r+0x15dc>
1000379c:	01440074 	movhi	r5,4097
100037a0:	2946d984 	addi	r5,r5,7014
100037a4:	d9412c15 	stw	r5,1200(sp)
100037a8:	01c001c4 	movi	r7,7
100037ac:	00000306 	br	100037bc <___vfprintf_internal_r+0x13f8>
100037b0:	8c400204 	addi	r17,r17,8
100037b4:	9cfffc04 	addi	r19,r19,-16
100037b8:	acc07c0e 	bge	r21,r19,100039ac <___vfprintf_internal_r+0x15e8>
100037bc:	18c00404 	addi	r3,r3,16
100037c0:	84000044 	addi	r16,r16,1
100037c4:	8d000015 	stw	r20,0(r17)
100037c8:	8d400115 	stw	r21,4(r17)
100037cc:	d8c12015 	stw	r3,1152(sp)
100037d0:	dc011f15 	stw	r16,1148(sp)
100037d4:	3c3ff60e 	bge	r7,r16,100037b0 <__alt_data_end+0xf80037b0>
100037d8:	b809883a 	mov	r4,r23
100037dc:	b00b883a 	mov	r5,r22
100037e0:	d9811e04 	addi	r6,sp,1144
100037e4:	d9c13d15 	stw	r7,1268(sp)
100037e8:	00098040 	call	10009804 <__sprint_r>
100037ec:	d9c13d17 	ldw	r7,1268(sp)
100037f0:	103c0c1e 	bne	r2,zero,10002824 <__alt_data_end+0xf8002824>
100037f4:	d8c12017 	ldw	r3,1152(sp)
100037f8:	dc011f17 	ldw	r16,1148(sp)
100037fc:	dc400404 	addi	r17,sp,16
10003800:	003fec06 	br	100037b4 <__alt_data_end+0xf80037b4>
10003804:	00800084 	movi	r2,2
10003808:	9546b03a 	or	r3,r18,r21
1000380c:	003d7d06 	br	10002e04 <__alt_data_end+0xf8002e04>
10003810:	10803fcc 	andi	r2,r2,255
10003814:	1080201c 	xori	r2,r2,128
10003818:	10bfe004 	addi	r2,r2,-128
1000381c:	01000c04 	movi	r4,48
10003820:	1101d726 	beq	r2,r4,10003f80 <___vfprintf_internal_r+0x1bbc>
10003824:	d9413117 	ldw	r5,1220(sp)
10003828:	d8812817 	ldw	r2,1184(sp)
1000382c:	193fffc5 	stb	r4,-1(r3)
10003830:	297fffc4 	addi	r5,r5,-1
10003834:	d9413115 	stw	r5,1220(sp)
10003838:	1163c83a 	sub	r17,r2,r5
1000383c:	003c5c06 	br	100029b0 <__alt_data_end+0xf80029b0>
10003840:	b809883a 	mov	r4,r23
10003844:	b00b883a 	mov	r5,r22
10003848:	d9811e04 	addi	r6,sp,1144
1000384c:	00098040 	call	10009804 <__sprint_r>
10003850:	103bf41e 	bne	r2,zero,10002824 <__alt_data_end+0xf8002824>
10003854:	d8c12017 	ldw	r3,1152(sp)
10003858:	da000404 	addi	r8,sp,16
1000385c:	d9413117 	ldw	r5,1220(sp)
10003860:	d9013417 	ldw	r4,1232(sp)
10003864:	d8812617 	ldw	r2,1176(sp)
10003868:	2923883a 	add	r17,r5,r4
1000386c:	d9413317 	ldw	r5,1228(sp)
10003870:	11400216 	blt	r2,r5,1000387c <___vfprintf_internal_r+0x14b8>
10003874:	e100004c 	andi	r4,fp,1
10003878:	20000d26 	beq	r4,zero,100038b0 <___vfprintf_internal_r+0x14ec>
1000387c:	d9013817 	ldw	r4,1248(sp)
10003880:	d9413517 	ldw	r5,1236(sp)
10003884:	1907883a 	add	r3,r3,r4
10003888:	d9011f17 	ldw	r4,1148(sp)
1000388c:	41400015 	stw	r5,0(r8)
10003890:	d9413817 	ldw	r5,1248(sp)
10003894:	21000044 	addi	r4,r4,1
10003898:	d8c12015 	stw	r3,1152(sp)
1000389c:	41400115 	stw	r5,4(r8)
100038a0:	d9011f15 	stw	r4,1148(sp)
100038a4:	014001c4 	movi	r5,7
100038a8:	2901fd16 	blt	r5,r4,100040a0 <___vfprintf_internal_r+0x1cdc>
100038ac:	42000204 	addi	r8,r8,8
100038b0:	d9013317 	ldw	r4,1228(sp)
100038b4:	2085c83a 	sub	r2,r4,r2
100038b8:	8449c83a 	sub	r4,r16,r17
100038bc:	1021883a 	mov	r16,r2
100038c0:	2080010e 	bge	r4,r2,100038c8 <___vfprintf_internal_r+0x1504>
100038c4:	2021883a 	mov	r16,r4
100038c8:	04000a0e 	bge	zero,r16,100038f4 <___vfprintf_internal_r+0x1530>
100038cc:	d9011f17 	ldw	r4,1148(sp)
100038d0:	1c07883a 	add	r3,r3,r16
100038d4:	44400015 	stw	r17,0(r8)
100038d8:	21000044 	addi	r4,r4,1
100038dc:	44000115 	stw	r16,4(r8)
100038e0:	d8c12015 	stw	r3,1152(sp)
100038e4:	d9011f15 	stw	r4,1148(sp)
100038e8:	014001c4 	movi	r5,7
100038ec:	29020916 	blt	r5,r4,10004114 <___vfprintf_internal_r+0x1d50>
100038f0:	42000204 	addi	r8,r8,8
100038f4:	80020116 	blt	r16,zero,100040fc <___vfprintf_internal_r+0x1d38>
100038f8:	1421c83a 	sub	r16,r2,r16
100038fc:	043cc40e 	bge	zero,r16,10002c10 <__alt_data_end+0xf8002c10>
10003900:	04400404 	movi	r17,16
10003904:	d8811f17 	ldw	r2,1148(sp)
10003908:	8c3f110e 	bge	r17,r16,10003550 <__alt_data_end+0xf8003550>
1000390c:	01440074 	movhi	r5,4097
10003910:	2946d984 	addi	r5,r5,7014
10003914:	d9412c15 	stw	r5,1200(sp)
10003918:	04c001c4 	movi	r19,7
1000391c:	00000306 	br	1000392c <___vfprintf_internal_r+0x1568>
10003920:	42000204 	addi	r8,r8,8
10003924:	843ffc04 	addi	r16,r16,-16
10003928:	8c3f0c0e 	bge	r17,r16,1000355c <__alt_data_end+0xf800355c>
1000392c:	18c00404 	addi	r3,r3,16
10003930:	10800044 	addi	r2,r2,1
10003934:	45000015 	stw	r20,0(r8)
10003938:	44400115 	stw	r17,4(r8)
1000393c:	d8c12015 	stw	r3,1152(sp)
10003940:	d8811f15 	stw	r2,1148(sp)
10003944:	98bff60e 	bge	r19,r2,10003920 <__alt_data_end+0xf8003920>
10003948:	b809883a 	mov	r4,r23
1000394c:	b00b883a 	mov	r5,r22
10003950:	d9811e04 	addi	r6,sp,1144
10003954:	00098040 	call	10009804 <__sprint_r>
10003958:	103bb21e 	bne	r2,zero,10002824 <__alt_data_end+0xf8002824>
1000395c:	d8c12017 	ldw	r3,1152(sp)
10003960:	d8811f17 	ldw	r2,1148(sp)
10003964:	da000404 	addi	r8,sp,16
10003968:	003fee06 	br	10003924 <__alt_data_end+0xf8003924>
1000396c:	e088703a 	and	r4,fp,r2
10003970:	203ec01e 	bne	r4,zero,10003474 <__alt_data_end+0xf8003474>
10003974:	dc011f17 	ldw	r16,1148(sp)
10003978:	d9013117 	ldw	r4,1220(sp)
1000397c:	40800115 	stw	r2,4(r8)
10003980:	84000044 	addi	r16,r16,1
10003984:	41000015 	stw	r4,0(r8)
10003988:	d8c12015 	stw	r3,1152(sp)
1000398c:	dc011f15 	stw	r16,1148(sp)
10003990:	008001c4 	movi	r2,7
10003994:	14000e16 	blt	r2,r16,100039d0 <___vfprintf_internal_r+0x160c>
10003998:	44400204 	addi	r17,r8,8
1000399c:	003ee006 	br	10003520 <__alt_data_end+0xf8003520>
100039a0:	01040074 	movhi	r4,4097
100039a4:	2106d984 	addi	r4,r4,7014
100039a8:	d9012c15 	stw	r4,1200(sp)
100039ac:	d8812c17 	ldw	r2,1200(sp)
100039b0:	1cc7883a 	add	r3,r3,r19
100039b4:	84000044 	addi	r16,r16,1
100039b8:	88800015 	stw	r2,0(r17)
100039bc:	8cc00115 	stw	r19,4(r17)
100039c0:	d8c12015 	stw	r3,1152(sp)
100039c4:	dc011f15 	stw	r16,1148(sp)
100039c8:	008001c4 	movi	r2,7
100039cc:	143ed30e 	bge	r2,r16,1000351c <__alt_data_end+0xf800351c>
100039d0:	b809883a 	mov	r4,r23
100039d4:	b00b883a 	mov	r5,r22
100039d8:	d9811e04 	addi	r6,sp,1144
100039dc:	00098040 	call	10009804 <__sprint_r>
100039e0:	103b901e 	bne	r2,zero,10002824 <__alt_data_end+0xf8002824>
100039e4:	d8c12017 	ldw	r3,1152(sp)
100039e8:	dc011f17 	ldw	r16,1148(sp)
100039ec:	dc400404 	addi	r17,sp,16
100039f0:	003ecb06 	br	10003520 <__alt_data_end+0xf8003520>
100039f4:	b809883a 	mov	r4,r23
100039f8:	b00b883a 	mov	r5,r22
100039fc:	d9811e04 	addi	r6,sp,1144
10003a00:	00098040 	call	10009804 <__sprint_r>
10003a04:	103b871e 	bne	r2,zero,10002824 <__alt_data_end+0xf8002824>
10003a08:	d8c12017 	ldw	r3,1152(sp)
10003a0c:	dc011f17 	ldw	r16,1148(sp)
10003a10:	da000404 	addi	r8,sp,16
10003a14:	003ea206 	br	100034a0 <__alt_data_end+0xf80034a0>
10003a18:	b809883a 	mov	r4,r23
10003a1c:	b00b883a 	mov	r5,r22
10003a20:	d9811e04 	addi	r6,sp,1144
10003a24:	00098040 	call	10009804 <__sprint_r>
10003a28:	103b7e1e 	bne	r2,zero,10002824 <__alt_data_end+0xf8002824>
10003a2c:	d8c12017 	ldw	r3,1152(sp)
10003a30:	dc011f17 	ldw	r16,1148(sp)
10003a34:	dc400404 	addi	r17,sp,16
10003a38:	003ea406 	br	100034cc <__alt_data_end+0xf80034cc>
10003a3c:	b809883a 	mov	r4,r23
10003a40:	b00b883a 	mov	r5,r22
10003a44:	d9811e04 	addi	r6,sp,1144
10003a48:	00098040 	call	10009804 <__sprint_r>
10003a4c:	103b751e 	bne	r2,zero,10002824 <__alt_data_end+0xf8002824>
10003a50:	d8c12017 	ldw	r3,1152(sp)
10003a54:	da000404 	addi	r8,sp,16
10003a58:	003c3706 	br	10002b38 <__alt_data_end+0xf8002b38>
10003a5c:	04a5c83a 	sub	r18,zero,r18
10003a60:	9004c03a 	cmpne	r2,r18,zero
10003a64:	056bc83a 	sub	r21,zero,r21
10003a68:	a8abc83a 	sub	r21,r21,r2
10003a6c:	04c00b44 	movi	r19,45
10003a70:	dcc12785 	stb	r19,1182(sp)
10003a74:	da413215 	stw	r9,1224(sp)
10003a78:	00800044 	movi	r2,1
10003a7c:	9546b03a 	or	r3,r18,r21
10003a80:	003bb106 	br	10002948 <__alt_data_end+0xf8002948>
10003a84:	da013f15 	stw	r8,1276(sp)
10003a88:	da413e15 	stw	r9,1272(sp)
10003a8c:	00094600 	call	10009460 <__fpclassifyd>
10003a90:	da013f17 	ldw	r8,1276(sp)
10003a94:	da413e17 	ldw	r9,1272(sp)
10003a98:	1000e526 	beq	r2,zero,10003e30 <___vfprintf_internal_r+0x1a6c>
10003a9c:	04fff7c4 	movi	r19,-33
10003aa0:	00bfffc4 	movi	r2,-1
10003aa4:	84e6703a 	and	r19,r16,r19
10003aa8:	48822926 	beq	r9,r2,10004350 <___vfprintf_internal_r+0x1f8c>
10003aac:	008011c4 	movi	r2,71
10003ab0:	98821626 	beq	r19,r2,1000430c <___vfprintf_internal_r+0x1f48>
10003ab4:	d9013917 	ldw	r4,1252(sp)
10003ab8:	e0c04014 	ori	r3,fp,256
10003abc:	d8c12d15 	stw	r3,1204(sp)
10003ac0:	20021f16 	blt	r4,zero,10004340 <___vfprintf_internal_r+0x1f7c>
10003ac4:	dc413917 	ldw	r17,1252(sp)
10003ac8:	d8012b05 	stb	zero,1196(sp)
10003acc:	00801984 	movi	r2,102
10003ad0:	80814d26 	beq	r16,r2,10004008 <___vfprintf_internal_r+0x1c44>
10003ad4:	00801184 	movi	r2,70
10003ad8:	80814b26 	beq	r16,r2,10004008 <___vfprintf_internal_r+0x1c44>
10003adc:	00801144 	movi	r2,69
10003ae0:	98821d26 	beq	r19,r2,10004358 <___vfprintf_internal_r+0x1f94>
10003ae4:	482b883a 	mov	r21,r9
10003ae8:	d8812604 	addi	r2,sp,1176
10003aec:	d8800115 	stw	r2,4(sp)
10003af0:	d9413717 	ldw	r5,1244(sp)
10003af4:	d8812504 	addi	r2,sp,1172
10003af8:	d8800215 	stw	r2,8(sp)
10003afc:	d8812104 	addi	r2,sp,1156
10003b00:	dd400015 	stw	r21,0(sp)
10003b04:	d8800315 	stw	r2,12(sp)
10003b08:	b809883a 	mov	r4,r23
10003b0c:	880d883a 	mov	r6,r17
10003b10:	01c00084 	movi	r7,2
10003b14:	da013f15 	stw	r8,1276(sp)
10003b18:	da413e15 	stw	r9,1272(sp)
10003b1c:	000483c0 	call	1000483c <_dtoa_r>
10003b20:	d8813115 	stw	r2,1220(sp)
10003b24:	008019c4 	movi	r2,103
10003b28:	da013f17 	ldw	r8,1276(sp)
10003b2c:	da413e17 	ldw	r9,1272(sp)
10003b30:	80800226 	beq	r16,r2,10003b3c <___vfprintf_internal_r+0x1778>
10003b34:	008011c4 	movi	r2,71
10003b38:	8081451e 	bne	r16,r2,10004050 <___vfprintf_internal_r+0x1c8c>
10003b3c:	e080004c 	andi	r2,fp,1
10003b40:	10021e26 	beq	r2,zero,100043bc <___vfprintf_internal_r+0x1ff8>
10003b44:	d8c13117 	ldw	r3,1220(sp)
10003b48:	1d55883a 	add	r10,r3,r21
10003b4c:	d9013717 	ldw	r4,1244(sp)
10003b50:	880b883a 	mov	r5,r17
10003b54:	000d883a 	mov	r6,zero
10003b58:	000f883a 	mov	r7,zero
10003b5c:	da013f15 	stw	r8,1276(sp)
10003b60:	da413e15 	stw	r9,1272(sp)
10003b64:	da813d15 	stw	r10,1268(sp)
10003b68:	000d57c0 	call	1000d57c <__eqdf2>
10003b6c:	da013f17 	ldw	r8,1276(sp)
10003b70:	da413e17 	ldw	r9,1272(sp)
10003b74:	da813d17 	ldw	r10,1268(sp)
10003b78:	1001a126 	beq	r2,zero,10004200 <___vfprintf_internal_r+0x1e3c>
10003b7c:	d8812117 	ldw	r2,1156(sp)
10003b80:	1280062e 	bgeu	r2,r10,10003b9c <___vfprintf_internal_r+0x17d8>
10003b84:	01000c04 	movi	r4,48
10003b88:	10c00044 	addi	r3,r2,1
10003b8c:	d8c12115 	stw	r3,1156(sp)
10003b90:	11000005 	stb	r4,0(r2)
10003b94:	d8812117 	ldw	r2,1156(sp)
10003b98:	12bffb36 	bltu	r2,r10,10003b88 <__alt_data_end+0xf8003b88>
10003b9c:	d8c13117 	ldw	r3,1220(sp)
10003ba0:	10c5c83a 	sub	r2,r2,r3
10003ba4:	d8813315 	stw	r2,1228(sp)
10003ba8:	008011c4 	movi	r2,71
10003bac:	98818926 	beq	r19,r2,100041d4 <___vfprintf_internal_r+0x1e10>
10003bb0:	00801944 	movi	r2,101
10003bb4:	14023c0e 	bge	r2,r16,100044a8 <___vfprintf_internal_r+0x20e4>
10003bb8:	d8c12617 	ldw	r3,1176(sp)
10003bbc:	00801984 	movi	r2,102
10003bc0:	d8c13415 	stw	r3,1232(sp)
10003bc4:	8081ef26 	beq	r16,r2,10004384 <___vfprintf_internal_r+0x1fc0>
10003bc8:	d8c13417 	ldw	r3,1232(sp)
10003bcc:	d9013317 	ldw	r4,1228(sp)
10003bd0:	1901e316 	blt	r3,r4,10004360 <___vfprintf_internal_r+0x1f9c>
10003bd4:	e080004c 	andi	r2,fp,1
10003bd8:	1001f426 	beq	r2,zero,100043ac <___vfprintf_internal_r+0x1fe8>
10003bdc:	d8c13417 	ldw	r3,1232(sp)
10003be0:	1c400044 	addi	r17,r3,1
10003be4:	8839883a 	mov	fp,r17
10003be8:	8801e416 	blt	r17,zero,1000437c <___vfprintf_internal_r+0x1fb8>
10003bec:	dd412b07 	ldb	r21,1196(sp)
10003bf0:	a801701e 	bne	r21,zero,100041b4 <___vfprintf_internal_r+0x1df0>
10003bf4:	df012b15 	stw	fp,1196(sp)
10003bf8:	dcc12783 	ldbu	r19,1182(sp)
10003bfc:	df012d17 	ldw	fp,1204(sp)
10003c00:	d8013215 	stw	zero,1224(sp)
10003c04:	dc812d15 	stw	r18,1204(sp)
10003c08:	003b6e06 	br	100029c4 <__alt_data_end+0xf80029c4>
10003c0c:	e080040c 	andi	r2,fp,16
10003c10:	1000b51e 	bne	r2,zero,10003ee8 <___vfprintf_internal_r+0x1b24>
10003c14:	e080100c 	andi	r2,fp,64
10003c18:	10015b26 	beq	r2,zero,10004188 <___vfprintf_internal_r+0x1dc4>
10003c1c:	d9012d17 	ldw	r4,1204(sp)
10003c20:	d9412f17 	ldw	r5,1212(sp)
10003c24:	20800017 	ldw	r2,0(r4)
10003c28:	21000104 	addi	r4,r4,4
10003c2c:	d9012d15 	stw	r4,1204(sp)
10003c30:	1140000d 	sth	r5,0(r2)
10003c34:	003a2006 	br	100024b8 <__alt_data_end+0xf80024b8>
10003c38:	e0c0100c 	andi	r3,fp,64
10003c3c:	1800a226 	beq	r3,zero,10003ec8 <___vfprintf_internal_r+0x1b04>
10003c40:	d8c12d17 	ldw	r3,1204(sp)
10003c44:	1480000b 	ldhu	r18,0(r2)
10003c48:	002b883a 	mov	r21,zero
10003c4c:	18c00104 	addi	r3,r3,4
10003c50:	d8c12d15 	stw	r3,1204(sp)
10003c54:	0005883a 	mov	r2,zero
10003c58:	9007883a 	mov	r3,r18
10003c5c:	003c6906 	br	10002e04 <__alt_data_end+0xf8002e04>
10003c60:	e0c0100c 	andi	r3,fp,64
10003c64:	18009026 	beq	r3,zero,10003ea8 <___vfprintf_internal_r+0x1ae4>
10003c68:	1480000b 	ldhu	r18,0(r2)
10003c6c:	d8812d17 	ldw	r2,1204(sp)
10003c70:	002b883a 	mov	r21,zero
10003c74:	9007883a 	mov	r3,r18
10003c78:	10800104 	addi	r2,r2,4
10003c7c:	d8812d15 	stw	r2,1204(sp)
10003c80:	00800044 	movi	r2,1
10003c84:	003c5f06 	br	10002e04 <__alt_data_end+0xf8002e04>
10003c88:	e0c0100c 	andi	r3,fp,64
10003c8c:	18008026 	beq	r3,zero,10003e90 <___vfprintf_internal_r+0x1acc>
10003c90:	d9012d17 	ldw	r4,1204(sp)
10003c94:	1480000b 	ldhu	r18,0(r2)
10003c98:	002b883a 	mov	r21,zero
10003c9c:	21000104 	addi	r4,r4,4
10003ca0:	d9012d15 	stw	r4,1204(sp)
10003ca4:	003c7906 	br	10002e8c <__alt_data_end+0xf8002e8c>
10003ca8:	e080100c 	andi	r2,fp,64
10003cac:	10007126 	beq	r2,zero,10003e74 <___vfprintf_internal_r+0x1ab0>
10003cb0:	1c80000f 	ldh	r18,0(r3)
10003cb4:	d8812d17 	ldw	r2,1204(sp)
10003cb8:	902bd7fa 	srai	r21,r18,31
10003cbc:	10800104 	addi	r2,r2,4
10003cc0:	d8812d15 	stw	r2,1204(sp)
10003cc4:	a805883a 	mov	r2,r21
10003cc8:	003b1a06 	br	10002934 <__alt_data_end+0xf8002934>
10003ccc:	e4000007 	ldb	r16,0(fp)
10003cd0:	e005883a 	mov	r2,fp
10003cd4:	003a2306 	br	10002564 <__alt_data_end+0xf8002564>
10003cd8:	00800084 	movi	r2,2
10003cdc:	003c4906 	br	10002e04 <__alt_data_end+0xf8002e04>
10003ce0:	01040074 	movhi	r4,4097
10003ce4:	2106d984 	addi	r4,r4,7014
10003ce8:	d9012c15 	stw	r4,1200(sp)
10003cec:	d9012c17 	ldw	r4,1200(sp)
10003cf0:	1c47883a 	add	r3,r3,r17
10003cf4:	10800044 	addi	r2,r2,1
10003cf8:	41000015 	stw	r4,0(r8)
10003cfc:	44400115 	stw	r17,4(r8)
10003d00:	d8c12015 	stw	r3,1152(sp)
10003d04:	d8811f15 	stw	r2,1148(sp)
10003d08:	010001c4 	movi	r4,7
10003d0c:	20becc16 	blt	r4,r2,10003840 <__alt_data_end+0xf8003840>
10003d10:	42000204 	addi	r8,r8,8
10003d14:	003ed106 	br	1000385c <__alt_data_end+0xf800385c>
10003d18:	01040074 	movhi	r4,4097
10003d1c:	2106d984 	addi	r4,r4,7014
10003d20:	d9012c15 	stw	r4,1200(sp)
10003d24:	003ba306 	br	10002bb4 <__alt_data_end+0xf8002bb4>
10003d28:	b809883a 	mov	r4,r23
10003d2c:	b00b883a 	mov	r5,r22
10003d30:	d9811e04 	addi	r6,sp,1144
10003d34:	00098040 	call	10009804 <__sprint_r>
10003d38:	103aba1e 	bne	r2,zero,10002824 <__alt_data_end+0xf8002824>
10003d3c:	d8c12017 	ldw	r3,1152(sp)
10003d40:	da000404 	addi	r8,sp,16
10003d44:	003d6c06 	br	100032f8 <__alt_data_end+0xf80032f8>
10003d48:	d8811f17 	ldw	r2,1148(sp)
10003d4c:	01440074 	movhi	r5,4097
10003d50:	01000044 	movi	r4,1
10003d54:	18c00044 	addi	r3,r3,1
10003d58:	10800044 	addi	r2,r2,1
10003d5c:	2946d904 	addi	r5,r5,7012
10003d60:	41000115 	stw	r4,4(r8)
10003d64:	41400015 	stw	r5,0(r8)
10003d68:	d8c12015 	stw	r3,1152(sp)
10003d6c:	d8811f15 	stw	r2,1148(sp)
10003d70:	010001c4 	movi	r4,7
10003d74:	20806716 	blt	r4,r2,10003f14 <___vfprintf_internal_r+0x1b50>
10003d78:	42000204 	addi	r8,r8,8
10003d7c:	8000041e 	bne	r16,zero,10003d90 <___vfprintf_internal_r+0x19cc>
10003d80:	d8813317 	ldw	r2,1228(sp)
10003d84:	1000021e 	bne	r2,zero,10003d90 <___vfprintf_internal_r+0x19cc>
10003d88:	e080004c 	andi	r2,fp,1
10003d8c:	103ba026 	beq	r2,zero,10002c10 <__alt_data_end+0xf8002c10>
10003d90:	d9013817 	ldw	r4,1248(sp)
10003d94:	d8811f17 	ldw	r2,1148(sp)
10003d98:	d9413517 	ldw	r5,1236(sp)
10003d9c:	1907883a 	add	r3,r3,r4
10003da0:	10800044 	addi	r2,r2,1
10003da4:	41000115 	stw	r4,4(r8)
10003da8:	41400015 	stw	r5,0(r8)
10003dac:	d8c12015 	stw	r3,1152(sp)
10003db0:	d8811f15 	stw	r2,1148(sp)
10003db4:	010001c4 	movi	r4,7
10003db8:	20815716 	blt	r4,r2,10004318 <___vfprintf_internal_r+0x1f54>
10003dbc:	42000204 	addi	r8,r8,8
10003dc0:	0421c83a 	sub	r16,zero,r16
10003dc4:	0400810e 	bge	zero,r16,10003fcc <___vfprintf_internal_r+0x1c08>
10003dc8:	04400404 	movi	r17,16
10003dcc:	8c00bd0e 	bge	r17,r16,100040c4 <___vfprintf_internal_r+0x1d00>
10003dd0:	01440074 	movhi	r5,4097
10003dd4:	2946d984 	addi	r5,r5,7014
10003dd8:	d9412c15 	stw	r5,1200(sp)
10003ddc:	04c001c4 	movi	r19,7
10003de0:	00000306 	br	10003df0 <___vfprintf_internal_r+0x1a2c>
10003de4:	42000204 	addi	r8,r8,8
10003de8:	843ffc04 	addi	r16,r16,-16
10003dec:	8c00b80e 	bge	r17,r16,100040d0 <___vfprintf_internal_r+0x1d0c>
10003df0:	18c00404 	addi	r3,r3,16
10003df4:	10800044 	addi	r2,r2,1
10003df8:	45000015 	stw	r20,0(r8)
10003dfc:	44400115 	stw	r17,4(r8)
10003e00:	d8c12015 	stw	r3,1152(sp)
10003e04:	d8811f15 	stw	r2,1148(sp)
10003e08:	98bff60e 	bge	r19,r2,10003de4 <__alt_data_end+0xf8003de4>
10003e0c:	b809883a 	mov	r4,r23
10003e10:	b00b883a 	mov	r5,r22
10003e14:	d9811e04 	addi	r6,sp,1144
10003e18:	00098040 	call	10009804 <__sprint_r>
10003e1c:	103a811e 	bne	r2,zero,10002824 <__alt_data_end+0xf8002824>
10003e20:	d8c12017 	ldw	r3,1152(sp)
10003e24:	d8811f17 	ldw	r2,1148(sp)
10003e28:	da000404 	addi	r8,sp,16
10003e2c:	003fee06 	br	10003de8 <__alt_data_end+0xf8003de8>
10003e30:	008011c4 	movi	r2,71
10003e34:	1400db16 	blt	r2,r16,100041a4 <___vfprintf_internal_r+0x1de0>
10003e38:	01040074 	movhi	r4,4097
10003e3c:	2106cb04 	addi	r4,r4,6956
10003e40:	d9013115 	stw	r4,1220(sp)
10003e44:	00c000c4 	movi	r3,3
10003e48:	00bfdfc4 	movi	r2,-129
10003e4c:	d8c12b15 	stw	r3,1196(sp)
10003e50:	e0b8703a 	and	fp,fp,r2
10003e54:	dcc12783 	ldbu	r19,1182(sp)
10003e58:	dc812d15 	stw	r18,1204(sp)
10003e5c:	1823883a 	mov	r17,r3
10003e60:	d8013215 	stw	zero,1224(sp)
10003e64:	d8013415 	stw	zero,1232(sp)
10003e68:	003ad606 	br	100029c4 <__alt_data_end+0xf80029c4>
10003e6c:	4823883a 	mov	r17,r9
10003e70:	003cc906 	br	10003198 <__alt_data_end+0xf8003198>
10003e74:	1c800017 	ldw	r18,0(r3)
10003e78:	d8c12d17 	ldw	r3,1204(sp)
10003e7c:	902bd7fa 	srai	r21,r18,31
10003e80:	18c00104 	addi	r3,r3,4
10003e84:	d8c12d15 	stw	r3,1204(sp)
10003e88:	a805883a 	mov	r2,r21
10003e8c:	003aa906 	br	10002934 <__alt_data_end+0xf8002934>
10003e90:	d9412d17 	ldw	r5,1204(sp)
10003e94:	14800017 	ldw	r18,0(r2)
10003e98:	002b883a 	mov	r21,zero
10003e9c:	29400104 	addi	r5,r5,4
10003ea0:	d9412d15 	stw	r5,1204(sp)
10003ea4:	003bf906 	br	10002e8c <__alt_data_end+0xf8002e8c>
10003ea8:	d8c12d17 	ldw	r3,1204(sp)
10003eac:	14800017 	ldw	r18,0(r2)
10003eb0:	002b883a 	mov	r21,zero
10003eb4:	18c00104 	addi	r3,r3,4
10003eb8:	d8c12d15 	stw	r3,1204(sp)
10003ebc:	00800044 	movi	r2,1
10003ec0:	9007883a 	mov	r3,r18
10003ec4:	003bcf06 	br	10002e04 <__alt_data_end+0xf8002e04>
10003ec8:	d9012d17 	ldw	r4,1204(sp)
10003ecc:	14800017 	ldw	r18,0(r2)
10003ed0:	002b883a 	mov	r21,zero
10003ed4:	21000104 	addi	r4,r4,4
10003ed8:	d9012d15 	stw	r4,1204(sp)
10003edc:	0005883a 	mov	r2,zero
10003ee0:	9007883a 	mov	r3,r18
10003ee4:	003bc706 	br	10002e04 <__alt_data_end+0xf8002e04>
10003ee8:	d9412d17 	ldw	r5,1204(sp)
10003eec:	d8c12f17 	ldw	r3,1212(sp)
10003ef0:	28800017 	ldw	r2,0(r5)
10003ef4:	29400104 	addi	r5,r5,4
10003ef8:	d9412d15 	stw	r5,1204(sp)
10003efc:	10c00015 	stw	r3,0(r2)
10003f00:	00396d06 	br	100024b8 <__alt_data_end+0xf80024b8>
10003f04:	01040074 	movhi	r4,4097
10003f08:	2106c904 	addi	r4,r4,6948
10003f0c:	d9013115 	stw	r4,1220(sp)
10003f10:	003ba206 	br	10002d9c <__alt_data_end+0xf8002d9c>
10003f14:	b809883a 	mov	r4,r23
10003f18:	b00b883a 	mov	r5,r22
10003f1c:	d9811e04 	addi	r6,sp,1144
10003f20:	00098040 	call	10009804 <__sprint_r>
10003f24:	103a3f1e 	bne	r2,zero,10002824 <__alt_data_end+0xf8002824>
10003f28:	dc012617 	ldw	r16,1176(sp)
10003f2c:	d8c12017 	ldw	r3,1152(sp)
10003f30:	da000404 	addi	r8,sp,16
10003f34:	003f9106 	br	10003d7c <__alt_data_end+0xf8003d7c>
10003f38:	e0800044 	addi	r2,fp,1
10003f3c:	9cc00814 	ori	r19,r19,32
10003f40:	e4000047 	ldb	r16,1(fp)
10003f44:	00398706 	br	10002564 <__alt_data_end+0xf8002564>
10003f48:	d8812e17 	ldw	r2,1208(sp)
10003f4c:	d8c12d15 	stw	r3,1204(sp)
10003f50:	0085c83a 	sub	r2,zero,r2
10003f54:	d8812e15 	stw	r2,1208(sp)
10003f58:	e005883a 	mov	r2,fp
10003f5c:	003a3a06 	br	10002848 <__alt_data_end+0xf8002848>
10003f60:	b809883a 	mov	r4,r23
10003f64:	b00b883a 	mov	r5,r22
10003f68:	d9811e04 	addi	r6,sp,1144
10003f6c:	00098040 	call	10009804 <__sprint_r>
10003f70:	103a2c1e 	bne	r2,zero,10002824 <__alt_data_end+0xf8002824>
10003f74:	d8c12017 	ldw	r3,1152(sp)
10003f78:	da000404 	addi	r8,sp,16
10003f7c:	003cf006 	br	10003340 <__alt_data_end+0xf8003340>
10003f80:	d8c12817 	ldw	r3,1184(sp)
10003f84:	d9013117 	ldw	r4,1220(sp)
10003f88:	1923c83a 	sub	r17,r3,r4
10003f8c:	003a8806 	br	100029b0 <__alt_data_end+0xf80029b0>
10003f90:	da013f15 	stw	r8,1276(sp)
10003f94:	000232c0 	call	1000232c <strlen>
10003f98:	1023883a 	mov	r17,r2
10003f9c:	da013f17 	ldw	r8,1276(sp)
10003fa0:	883c7f0e 	bge	r17,zero,100031a0 <__alt_data_end+0xf80031a0>
10003fa4:	0005883a 	mov	r2,zero
10003fa8:	003c7d06 	br	100031a0 <__alt_data_end+0xf80031a0>
10003fac:	b809883a 	mov	r4,r23
10003fb0:	b00b883a 	mov	r5,r22
10003fb4:	d9811e04 	addi	r6,sp,1144
10003fb8:	00098040 	call	10009804 <__sprint_r>
10003fbc:	103a191e 	bne	r2,zero,10002824 <__alt_data_end+0xf8002824>
10003fc0:	d8c12017 	ldw	r3,1152(sp)
10003fc4:	d8811f17 	ldw	r2,1148(sp)
10003fc8:	da000404 	addi	r8,sp,16
10003fcc:	d9413317 	ldw	r5,1228(sp)
10003fd0:	d9013117 	ldw	r4,1220(sp)
10003fd4:	10800044 	addi	r2,r2,1
10003fd8:	28c7883a 	add	r3,r5,r3
10003fdc:	41000015 	stw	r4,0(r8)
10003fe0:	41400115 	stw	r5,4(r8)
10003fe4:	d8c12015 	stw	r3,1152(sp)
10003fe8:	d8811f15 	stw	r2,1148(sp)
10003fec:	010001c4 	movi	r4,7
10003ff0:	20bb060e 	bge	r4,r2,10002c0c <__alt_data_end+0xf8002c0c>
10003ff4:	003d6206 	br	10003580 <__alt_data_end+0xf8003580>
10003ff8:	01040074 	movhi	r4,4097
10003ffc:	2106dd84 	addi	r4,r4,7030
10004000:	d9013615 	stw	r4,1240(sp)
10004004:	003aa306 	br	10002a94 <__alt_data_end+0xf8002a94>
10004008:	d8812604 	addi	r2,sp,1176
1000400c:	d8800115 	stw	r2,4(sp)
10004010:	d9413717 	ldw	r5,1244(sp)
10004014:	d8812504 	addi	r2,sp,1172
10004018:	d8800215 	stw	r2,8(sp)
1000401c:	d8812104 	addi	r2,sp,1156
10004020:	da400015 	stw	r9,0(sp)
10004024:	d8800315 	stw	r2,12(sp)
10004028:	b809883a 	mov	r4,r23
1000402c:	880d883a 	mov	r6,r17
10004030:	01c000c4 	movi	r7,3
10004034:	da013f15 	stw	r8,1276(sp)
10004038:	da413e15 	stw	r9,1272(sp)
1000403c:	000483c0 	call	1000483c <_dtoa_r>
10004040:	da413e17 	ldw	r9,1272(sp)
10004044:	da013f17 	ldw	r8,1276(sp)
10004048:	d8813115 	stw	r2,1220(sp)
1000404c:	482b883a 	mov	r21,r9
10004050:	d8c13117 	ldw	r3,1220(sp)
10004054:	00801184 	movi	r2,70
10004058:	1d55883a 	add	r10,r3,r21
1000405c:	98bebb1e 	bne	r19,r2,10003b4c <__alt_data_end+0xf8003b4c>
10004060:	19000007 	ldb	r4,0(r3)
10004064:	00800c04 	movi	r2,48
10004068:	2080dd26 	beq	r4,r2,100043e0 <___vfprintf_internal_r+0x201c>
1000406c:	d8c12617 	ldw	r3,1176(sp)
10004070:	50d5883a 	add	r10,r10,r3
10004074:	003eb506 	br	10003b4c <__alt_data_end+0xf8003b4c>
10004078:	0023883a 	mov	r17,zero
1000407c:	003d9b06 	br	100036ec <__alt_data_end+0xf80036ec>
10004080:	b809883a 	mov	r4,r23
10004084:	b00b883a 	mov	r5,r22
10004088:	d9811e04 	addi	r6,sp,1144
1000408c:	00098040 	call	10009804 <__sprint_r>
10004090:	1039e41e 	bne	r2,zero,10002824 <__alt_data_end+0xf8002824>
10004094:	d8c12017 	ldw	r3,1152(sp)
10004098:	da000404 	addi	r8,sp,16
1000409c:	003d9206 	br	100036e8 <__alt_data_end+0xf80036e8>
100040a0:	b809883a 	mov	r4,r23
100040a4:	b00b883a 	mov	r5,r22
100040a8:	d9811e04 	addi	r6,sp,1144
100040ac:	00098040 	call	10009804 <__sprint_r>
100040b0:	1039dc1e 	bne	r2,zero,10002824 <__alt_data_end+0xf8002824>
100040b4:	d8812617 	ldw	r2,1176(sp)
100040b8:	d8c12017 	ldw	r3,1152(sp)
100040bc:	da000404 	addi	r8,sp,16
100040c0:	003dfb06 	br	100038b0 <__alt_data_end+0xf80038b0>
100040c4:	01040074 	movhi	r4,4097
100040c8:	2106d984 	addi	r4,r4,7014
100040cc:	d9012c15 	stw	r4,1200(sp)
100040d0:	d9012c17 	ldw	r4,1200(sp)
100040d4:	1c07883a 	add	r3,r3,r16
100040d8:	10800044 	addi	r2,r2,1
100040dc:	41000015 	stw	r4,0(r8)
100040e0:	44000115 	stw	r16,4(r8)
100040e4:	d8c12015 	stw	r3,1152(sp)
100040e8:	d8811f15 	stw	r2,1148(sp)
100040ec:	010001c4 	movi	r4,7
100040f0:	20bfae16 	blt	r4,r2,10003fac <__alt_data_end+0xf8003fac>
100040f4:	42000204 	addi	r8,r8,8
100040f8:	003fb406 	br	10003fcc <__alt_data_end+0xf8003fcc>
100040fc:	0021883a 	mov	r16,zero
10004100:	003dfd06 	br	100038f8 <__alt_data_end+0xf80038f8>
10004104:	01440074 	movhi	r5,4097
10004108:	2946dd84 	addi	r5,r5,7030
1000410c:	d9413615 	stw	r5,1240(sp)
10004110:	003ae306 	br	10002ca0 <__alt_data_end+0xf8002ca0>
10004114:	b809883a 	mov	r4,r23
10004118:	b00b883a 	mov	r5,r22
1000411c:	d9811e04 	addi	r6,sp,1144
10004120:	00098040 	call	10009804 <__sprint_r>
10004124:	1039bf1e 	bne	r2,zero,10002824 <__alt_data_end+0xf8002824>
10004128:	d8812617 	ldw	r2,1176(sp)
1000412c:	d9413317 	ldw	r5,1228(sp)
10004130:	d8c12017 	ldw	r3,1152(sp)
10004134:	da000404 	addi	r8,sp,16
10004138:	2885c83a 	sub	r2,r5,r2
1000413c:	003ded06 	br	100038f4 <__alt_data_end+0xf80038f4>
10004140:	00800184 	movi	r2,6
10004144:	1240012e 	bgeu	r2,r9,1000414c <___vfprintf_internal_r+0x1d88>
10004148:	1013883a 	mov	r9,r2
1000414c:	4823883a 	mov	r17,r9
10004150:	4805883a 	mov	r2,r9
10004154:	4800b216 	blt	r9,zero,10004420 <___vfprintf_internal_r+0x205c>
10004158:	01440074 	movhi	r5,4097
1000415c:	2946d704 	addi	r5,r5,7004
10004160:	d8812b15 	stw	r2,1196(sp)
10004164:	dc812d15 	stw	r18,1204(sp)
10004168:	d8013215 	stw	zero,1224(sp)
1000416c:	d8013415 	stw	zero,1232(sp)
10004170:	d9413115 	stw	r5,1220(sp)
10004174:	0005883a 	mov	r2,zero
10004178:	003a1906 	br	100029e0 <__alt_data_end+0xf80029e0>
1000417c:	04c00b44 	movi	r19,45
10004180:	dcc12785 	stb	r19,1182(sp)
10004184:	003b0006 	br	10002d88 <__alt_data_end+0xf8002d88>
10004188:	d8c12d17 	ldw	r3,1204(sp)
1000418c:	d9012f17 	ldw	r4,1212(sp)
10004190:	18800017 	ldw	r2,0(r3)
10004194:	18c00104 	addi	r3,r3,4
10004198:	d8c12d15 	stw	r3,1204(sp)
1000419c:	11000015 	stw	r4,0(r2)
100041a0:	0038c506 	br	100024b8 <__alt_data_end+0xf80024b8>
100041a4:	01440074 	movhi	r5,4097
100041a8:	2946cc04 	addi	r5,r5,6960
100041ac:	d9413115 	stw	r5,1220(sp)
100041b0:	003f2406 	br	10003e44 <__alt_data_end+0xf8003e44>
100041b4:	00800b44 	movi	r2,45
100041b8:	d8812785 	stb	r2,1182(sp)
100041bc:	df012b15 	stw	fp,1196(sp)
100041c0:	d8013215 	stw	zero,1224(sp)
100041c4:	df012d17 	ldw	fp,1204(sp)
100041c8:	00800b44 	movi	r2,45
100041cc:	dc812d15 	stw	r18,1204(sp)
100041d0:	003a0006 	br	100029d4 <__alt_data_end+0xf80029d4>
100041d4:	d8c12617 	ldw	r3,1176(sp)
100041d8:	00bfff44 	movi	r2,-3
100041dc:	18800a16 	blt	r3,r2,10004208 <___vfprintf_internal_r+0x1e44>
100041e0:	48c00916 	blt	r9,r3,10004208 <___vfprintf_internal_r+0x1e44>
100041e4:	d8c13415 	stw	r3,1232(sp)
100041e8:	040019c4 	movi	r16,103
100041ec:	003e7606 	br	10003bc8 <__alt_data_end+0xf8003bc8>
100041f0:	01040074 	movhi	r4,4097
100041f4:	2106d984 	addi	r4,r4,7014
100041f8:	d9012c15 	stw	r4,1200(sp)
100041fc:	003c8e06 	br	10003438 <__alt_data_end+0xf8003438>
10004200:	5005883a 	mov	r2,r10
10004204:	003e6506 	br	10003b9c <__alt_data_end+0xf8003b9c>
10004208:	843fff84 	addi	r16,r16,-2
1000420c:	1d7fffc4 	addi	r21,r3,-1
10004210:	dd412615 	stw	r21,1176(sp)
10004214:	dc0122c5 	stb	r16,1163(sp)
10004218:	a8009216 	blt	r21,zero,10004464 <___vfprintf_internal_r+0x20a0>
1000421c:	00800ac4 	movi	r2,43
10004220:	d8812305 	stb	r2,1164(sp)
10004224:	00800244 	movi	r2,9
10004228:	1540660e 	bge	r2,r21,100043c4 <___vfprintf_internal_r+0x2000>
1000422c:	dcc122c4 	addi	r19,sp,1163
10004230:	dc012c15 	stw	r16,1200(sp)
10004234:	4023883a 	mov	r17,r8
10004238:	9821883a 	mov	r16,r19
1000423c:	a809883a 	mov	r4,r21
10004240:	01400284 	movi	r5,10
10004244:	000c2cc0 	call	1000c2cc <__modsi3>
10004248:	10800c04 	addi	r2,r2,48
1000424c:	843fffc4 	addi	r16,r16,-1
10004250:	a809883a 	mov	r4,r21
10004254:	01400284 	movi	r5,10
10004258:	80800005 	stb	r2,0(r16)
1000425c:	000c2780 	call	1000c278 <__divsi3>
10004260:	01000244 	movi	r4,9
10004264:	102b883a 	mov	r21,r2
10004268:	20bff416 	blt	r4,r2,1000423c <__alt_data_end+0xf800423c>
1000426c:	8811883a 	mov	r8,r17
10004270:	10800c04 	addi	r2,r2,48
10004274:	8023883a 	mov	r17,r16
10004278:	897fffc4 	addi	r5,r17,-1
1000427c:	88bfffc5 	stb	r2,-1(r17)
10004280:	dc012c17 	ldw	r16,1200(sp)
10004284:	2cc08a2e 	bgeu	r5,r19,100044b0 <___vfprintf_internal_r+0x20ec>
10004288:	d9812384 	addi	r6,sp,1166
1000428c:	344dc83a 	sub	r6,r6,r17
10004290:	d9012344 	addi	r4,sp,1165
10004294:	998d883a 	add	r6,r19,r6
10004298:	00000106 	br	100042a0 <___vfprintf_internal_r+0x1edc>
1000429c:	28800003 	ldbu	r2,0(r5)
100042a0:	20800005 	stb	r2,0(r4)
100042a4:	21000044 	addi	r4,r4,1
100042a8:	29400044 	addi	r5,r5,1
100042ac:	21bffb1e 	bne	r4,r6,1000429c <__alt_data_end+0xf800429c>
100042b0:	d8812304 	addi	r2,sp,1164
100042b4:	1445c83a 	sub	r2,r2,r17
100042b8:	d9412344 	addi	r5,sp,1165
100042bc:	2885883a 	add	r2,r5,r2
100042c0:	14e7c83a 	sub	r19,r2,r19
100042c4:	d8813317 	ldw	r2,1228(sp)
100042c8:	d8c13317 	ldw	r3,1228(sp)
100042cc:	dcc13a15 	stw	r19,1256(sp)
100042d0:	14e3883a 	add	r17,r2,r19
100042d4:	00800044 	movi	r2,1
100042d8:	10c0550e 	bge	r2,r3,10004430 <___vfprintf_internal_r+0x206c>
100042dc:	8c400044 	addi	r17,r17,1
100042e0:	8839883a 	mov	fp,r17
100042e4:	88005016 	blt	r17,zero,10004428 <___vfprintf_internal_r+0x2064>
100042e8:	d8013415 	stw	zero,1232(sp)
100042ec:	003e3f06 	br	10003bec <__alt_data_end+0xf8003bec>
100042f0:	da412b15 	stw	r9,1196(sp)
100042f4:	dcc12783 	ldbu	r19,1182(sp)
100042f8:	4823883a 	mov	r17,r9
100042fc:	dc812d15 	stw	r18,1204(sp)
10004300:	d8013215 	stw	zero,1224(sp)
10004304:	d8013415 	stw	zero,1232(sp)
10004308:	0039ae06 	br	100029c4 <__alt_data_end+0xf80029c4>
1000430c:	483de91e 	bne	r9,zero,10003ab4 <__alt_data_end+0xf8003ab4>
10004310:	8813883a 	mov	r9,r17
10004314:	003de706 	br	10003ab4 <__alt_data_end+0xf8003ab4>
10004318:	b809883a 	mov	r4,r23
1000431c:	b00b883a 	mov	r5,r22
10004320:	d9811e04 	addi	r6,sp,1144
10004324:	00098040 	call	10009804 <__sprint_r>
10004328:	10393e1e 	bne	r2,zero,10002824 <__alt_data_end+0xf8002824>
1000432c:	dc012617 	ldw	r16,1176(sp)
10004330:	d8c12017 	ldw	r3,1152(sp)
10004334:	d8811f17 	ldw	r2,1148(sp)
10004338:	da000404 	addi	r8,sp,16
1000433c:	003ea006 	br	10003dc0 <__alt_data_end+0xf8003dc0>
10004340:	00c00b44 	movi	r3,45
10004344:	2460003c 	xorhi	r17,r4,32768
10004348:	d8c12b05 	stb	r3,1196(sp)
1000434c:	003ddf06 	br	10003acc <__alt_data_end+0xf8003acc>
10004350:	02400184 	movi	r9,6
10004354:	003dd706 	br	10003ab4 <__alt_data_end+0xf8003ab4>
10004358:	4d400044 	addi	r21,r9,1
1000435c:	003de206 	br	10003ae8 <__alt_data_end+0xf8003ae8>
10004360:	d8c13417 	ldw	r3,1232(sp)
10004364:	00c0490e 	bge	zero,r3,1000448c <___vfprintf_internal_r+0x20c8>
10004368:	04400044 	movi	r17,1
1000436c:	d9013317 	ldw	r4,1228(sp)
10004370:	8923883a 	add	r17,r17,r4
10004374:	8839883a 	mov	fp,r17
10004378:	883e1c0e 	bge	r17,zero,10003bec <__alt_data_end+0xf8003bec>
1000437c:	0039883a 	mov	fp,zero
10004380:	003e1a06 	br	10003bec <__alt_data_end+0xf8003bec>
10004384:	00c03b0e 	bge	zero,r3,10004474 <___vfprintf_internal_r+0x20b0>
10004388:	4800021e 	bne	r9,zero,10004394 <___vfprintf_internal_r+0x1fd0>
1000438c:	e080004c 	andi	r2,fp,1
10004390:	10000626 	beq	r2,zero,100043ac <___vfprintf_internal_r+0x1fe8>
10004394:	d8c13417 	ldw	r3,1232(sp)
10004398:	4a400044 	addi	r9,r9,1
1000439c:	1a63883a 	add	r17,r3,r9
100043a0:	8839883a 	mov	fp,r17
100043a4:	883e110e 	bge	r17,zero,10003bec <__alt_data_end+0xf8003bec>
100043a8:	003ff406 	br	1000437c <__alt_data_end+0xf800437c>
100043ac:	1839883a 	mov	fp,r3
100043b0:	18004116 	blt	r3,zero,100044b8 <___vfprintf_internal_r+0x20f4>
100043b4:	dc413417 	ldw	r17,1232(sp)
100043b8:	003e0c06 	br	10003bec <__alt_data_end+0xf8003bec>
100043bc:	d8812117 	ldw	r2,1156(sp)
100043c0:	003df606 	br	10003b9c <__alt_data_end+0xf8003b9c>
100043c4:	00800c04 	movi	r2,48
100043c8:	a8c00c04 	addi	r3,r21,48
100043cc:	d8812345 	stb	r2,1165(sp)
100043d0:	d8c12385 	stb	r3,1166(sp)
100043d4:	d88123c4 	addi	r2,sp,1167
100043d8:	dcc122c4 	addi	r19,sp,1163
100043dc:	003fb806 	br	100042c0 <__alt_data_end+0xf80042c0>
100043e0:	d9013717 	ldw	r4,1244(sp)
100043e4:	880b883a 	mov	r5,r17
100043e8:	000d883a 	mov	r6,zero
100043ec:	000f883a 	mov	r7,zero
100043f0:	da013f15 	stw	r8,1276(sp)
100043f4:	da413e15 	stw	r9,1272(sp)
100043f8:	da813d15 	stw	r10,1268(sp)
100043fc:	000d57c0 	call	1000d57c <__eqdf2>
10004400:	da013f17 	ldw	r8,1276(sp)
10004404:	da413e17 	ldw	r9,1272(sp)
10004408:	da813d17 	ldw	r10,1268(sp)
1000440c:	103f1726 	beq	r2,zero,1000406c <__alt_data_end+0xf800406c>
10004410:	00800044 	movi	r2,1
10004414:	1547c83a 	sub	r3,r2,r21
10004418:	d8c12615 	stw	r3,1176(sp)
1000441c:	003f1406 	br	10004070 <__alt_data_end+0xf8004070>
10004420:	0005883a 	mov	r2,zero
10004424:	003f4c06 	br	10004158 <__alt_data_end+0xf8004158>
10004428:	0039883a 	mov	fp,zero
1000442c:	003fae06 	br	100042e8 <__alt_data_end+0xf80042e8>
10004430:	e084703a 	and	r2,fp,r2
10004434:	103faa26 	beq	r2,zero,100042e0 <__alt_data_end+0xf80042e0>
10004438:	003fa806 	br	100042dc <__alt_data_end+0xf80042dc>
1000443c:	d9412d17 	ldw	r5,1204(sp)
10004440:	2a400017 	ldw	r9,0(r5)
10004444:	28c00104 	addi	r3,r5,4
10004448:	d8c12d15 	stw	r3,1204(sp)
1000444c:	483ebc0e 	bge	r9,zero,10003f40 <__alt_data_end+0xf8003f40>
10004450:	027fffc4 	movi	r9,-1
10004454:	e4000047 	ldb	r16,1(fp)
10004458:	00384206 	br	10002564 <__alt_data_end+0xf8002564>
1000445c:	043fffc4 	movi	r16,-1
10004460:	0038ce06 	br	1000279c <__alt_data_end+0xf800279c>
10004464:	00800b44 	movi	r2,45
10004468:	056bc83a 	sub	r21,zero,r21
1000446c:	d8812305 	stb	r2,1164(sp)
10004470:	003f6c06 	br	10004224 <__alt_data_end+0xf8004224>
10004474:	4800081e 	bne	r9,zero,10004498 <___vfprintf_internal_r+0x20d4>
10004478:	e080004c 	andi	r2,fp,1
1000447c:	1000061e 	bne	r2,zero,10004498 <___vfprintf_internal_r+0x20d4>
10004480:	07000044 	movi	fp,1
10004484:	e023883a 	mov	r17,fp
10004488:	003dd806 	br	10003bec <__alt_data_end+0xf8003bec>
1000448c:	04400084 	movi	r17,2
10004490:	88e3c83a 	sub	r17,r17,r3
10004494:	003fb506 	br	1000436c <__alt_data_end+0xf800436c>
10004498:	4c400084 	addi	r17,r9,2
1000449c:	8839883a 	mov	fp,r17
100044a0:	883dd20e 	bge	r17,zero,10003bec <__alt_data_end+0xf8003bec>
100044a4:	003fb506 	br	1000437c <__alt_data_end+0xf800437c>
100044a8:	d8c12617 	ldw	r3,1176(sp)
100044ac:	003f5706 	br	1000420c <__alt_data_end+0xf800420c>
100044b0:	d8812344 	addi	r2,sp,1165
100044b4:	003f8206 	br	100042c0 <__alt_data_end+0xf80042c0>
100044b8:	0039883a 	mov	fp,zero
100044bc:	003fbd06 	br	100043b4 <__alt_data_end+0xf80043b4>

100044c0 <__vfprintf_internal>:
100044c0:	2007883a 	mov	r3,r4
100044c4:	01040074 	movhi	r4,4097
100044c8:	210e3404 	addi	r4,r4,14544
100044cc:	21000017 	ldw	r4,0(r4)
100044d0:	2805883a 	mov	r2,r5
100044d4:	300f883a 	mov	r7,r6
100044d8:	180b883a 	mov	r5,r3
100044dc:	100d883a 	mov	r6,r2
100044e0:	00023c41 	jmpi	100023c4 <___vfprintf_internal_r>

100044e4 <__swsetup_r>:
100044e4:	00840074 	movhi	r2,4097
100044e8:	defffd04 	addi	sp,sp,-12
100044ec:	108e3404 	addi	r2,r2,14544
100044f0:	dc400115 	stw	r17,4(sp)
100044f4:	2023883a 	mov	r17,r4
100044f8:	11000017 	ldw	r4,0(r2)
100044fc:	dc000015 	stw	r16,0(sp)
10004500:	dfc00215 	stw	ra,8(sp)
10004504:	2821883a 	mov	r16,r5
10004508:	20000226 	beq	r4,zero,10004514 <__swsetup_r+0x30>
1000450c:	20c00e17 	ldw	r3,56(r4)
10004510:	18002e26 	beq	r3,zero,100045cc <__swsetup_r+0xe8>
10004514:	8080030b 	ldhu	r2,12(r16)
10004518:	10c0020c 	andi	r3,r2,8
1000451c:	100d883a 	mov	r6,r2
10004520:	18000f26 	beq	r3,zero,10004560 <__swsetup_r+0x7c>
10004524:	80c00417 	ldw	r3,16(r16)
10004528:	18001526 	beq	r3,zero,10004580 <__swsetup_r+0x9c>
1000452c:	1100004c 	andi	r4,r2,1
10004530:	20001c1e 	bne	r4,zero,100045a4 <__swsetup_r+0xc0>
10004534:	1080008c 	andi	r2,r2,2
10004538:	1000261e 	bne	r2,zero,100045d4 <__swsetup_r+0xf0>
1000453c:	80800517 	ldw	r2,20(r16)
10004540:	80800215 	stw	r2,8(r16)
10004544:	18001c26 	beq	r3,zero,100045b8 <__swsetup_r+0xd4>
10004548:	0005883a 	mov	r2,zero
1000454c:	dfc00217 	ldw	ra,8(sp)
10004550:	dc400117 	ldw	r17,4(sp)
10004554:	dc000017 	ldw	r16,0(sp)
10004558:	dec00304 	addi	sp,sp,12
1000455c:	f800283a 	ret
10004560:	3080040c 	andi	r2,r6,16
10004564:	10001726 	beq	r2,zero,100045c4 <__swsetup_r+0xe0>
10004568:	3080010c 	andi	r2,r6,4
1000456c:	10001b1e 	bne	r2,zero,100045dc <__swsetup_r+0xf8>
10004570:	80c00417 	ldw	r3,16(r16)
10004574:	30800214 	ori	r2,r6,8
10004578:	8080030d 	sth	r2,12(r16)
1000457c:	183feb1e 	bne	r3,zero,1000452c <__alt_data_end+0xf800452c>
10004580:	1140a00c 	andi	r5,r2,640
10004584:	01008004 	movi	r4,512
10004588:	293fe826 	beq	r5,r4,1000452c <__alt_data_end+0xf800452c>
1000458c:	8809883a 	mov	r4,r17
10004590:	800b883a 	mov	r5,r16
10004594:	00070780 	call	10007078 <__smakebuf_r>
10004598:	8080030b 	ldhu	r2,12(r16)
1000459c:	80c00417 	ldw	r3,16(r16)
100045a0:	003fe206 	br	1000452c <__alt_data_end+0xf800452c>
100045a4:	80800517 	ldw	r2,20(r16)
100045a8:	80000215 	stw	zero,8(r16)
100045ac:	0085c83a 	sub	r2,zero,r2
100045b0:	80800615 	stw	r2,24(r16)
100045b4:	183fe41e 	bne	r3,zero,10004548 <__alt_data_end+0xf8004548>
100045b8:	8080030b 	ldhu	r2,12(r16)
100045bc:	1080200c 	andi	r2,r2,128
100045c0:	103fe226 	beq	r2,zero,1000454c <__alt_data_end+0xf800454c>
100045c4:	00bfffc4 	movi	r2,-1
100045c8:	003fe006 	br	1000454c <__alt_data_end+0xf800454c>
100045cc:	00065200 	call	10006520 <__sinit>
100045d0:	003fd006 	br	10004514 <__alt_data_end+0xf8004514>
100045d4:	0005883a 	mov	r2,zero
100045d8:	003fd906 	br	10004540 <__alt_data_end+0xf8004540>
100045dc:	81400c17 	ldw	r5,48(r16)
100045e0:	28000626 	beq	r5,zero,100045fc <__swsetup_r+0x118>
100045e4:	80801004 	addi	r2,r16,64
100045e8:	28800326 	beq	r5,r2,100045f8 <__swsetup_r+0x114>
100045ec:	8809883a 	mov	r4,r17
100045f0:	00066940 	call	10006694 <_free_r>
100045f4:	8180030b 	ldhu	r6,12(r16)
100045f8:	80000c15 	stw	zero,48(r16)
100045fc:	80c00417 	ldw	r3,16(r16)
10004600:	00bff6c4 	movi	r2,-37
10004604:	118c703a 	and	r6,r2,r6
10004608:	80000115 	stw	zero,4(r16)
1000460c:	80c00015 	stw	r3,0(r16)
10004610:	003fd806 	br	10004574 <__alt_data_end+0xf8004574>

10004614 <quorem>:
10004614:	defff204 	addi	sp,sp,-56
10004618:	ddc00b15 	stw	r23,44(sp)
1000461c:	20800417 	ldw	r2,16(r4)
10004620:	2dc00417 	ldw	r23,16(r5)
10004624:	dfc00d15 	stw	ra,52(sp)
10004628:	df000c15 	stw	fp,48(sp)
1000462c:	dd800a15 	stw	r22,40(sp)
10004630:	dd400915 	stw	r21,36(sp)
10004634:	dd000815 	stw	r20,32(sp)
10004638:	dcc00715 	stw	r19,28(sp)
1000463c:	dc800615 	stw	r18,24(sp)
10004640:	dc400515 	stw	r17,20(sp)
10004644:	dc000415 	stw	r16,16(sp)
10004648:	15c07a16 	blt	r2,r23,10004834 <quorem+0x220>
1000464c:	bdffffc4 	addi	r23,r23,-1
10004650:	bde9883a 	add	r20,r23,r23
10004654:	28c00504 	addi	r3,r5,20
10004658:	a529883a 	add	r20,r20,r20
1000465c:	1d39883a 	add	fp,r3,r20
10004660:	24c00504 	addi	r19,r4,20
10004664:	d9400215 	stw	r5,8(sp)
10004668:	9d29883a 	add	r20,r19,r20
1000466c:	e1400017 	ldw	r5,0(fp)
10004670:	d9000015 	stw	r4,0(sp)
10004674:	a1000017 	ldw	r4,0(r20)
10004678:	29400044 	addi	r5,r5,1
1000467c:	d8c00115 	stw	r3,4(sp)
10004680:	dd000315 	stw	r20,12(sp)
10004684:	000c3280 	call	1000c328 <__udivsi3>
10004688:	1025883a 	mov	r18,r2
1000468c:	10003026 	beq	r2,zero,10004750 <quorem+0x13c>
10004690:	dc400117 	ldw	r17,4(sp)
10004694:	9829883a 	mov	r20,r19
10004698:	002d883a 	mov	r22,zero
1000469c:	0021883a 	mov	r16,zero
100046a0:	8d400017 	ldw	r21,0(r17)
100046a4:	900b883a 	mov	r5,r18
100046a8:	8c400104 	addi	r17,r17,4
100046ac:	a93fffcc 	andi	r4,r21,65535
100046b0:	000c3380 	call	1000c338 <__mulsi3>
100046b4:	a808d43a 	srli	r4,r21,16
100046b8:	900b883a 	mov	r5,r18
100046bc:	b0ad883a 	add	r22,r22,r2
100046c0:	000c3380 	call	1000c338 <__mulsi3>
100046c4:	a1000017 	ldw	r4,0(r20)
100046c8:	b00cd43a 	srli	r6,r22,16
100046cc:	b0ffffcc 	andi	r3,r22,65535
100046d0:	217fffcc 	andi	r5,r4,65535
100046d4:	2c21883a 	add	r16,r5,r16
100046d8:	80c7c83a 	sub	r3,r16,r3
100046dc:	2008d43a 	srli	r4,r4,16
100046e0:	3085883a 	add	r2,r6,r2
100046e4:	1821d43a 	srai	r16,r3,16
100046e8:	117fffcc 	andi	r5,r2,65535
100046ec:	2149c83a 	sub	r4,r4,r5
100046f0:	2421883a 	add	r16,r4,r16
100046f4:	8008943a 	slli	r4,r16,16
100046f8:	18ffffcc 	andi	r3,r3,65535
100046fc:	102cd43a 	srli	r22,r2,16
10004700:	20c8b03a 	or	r4,r4,r3
10004704:	a1000015 	stw	r4,0(r20)
10004708:	8021d43a 	srai	r16,r16,16
1000470c:	a5000104 	addi	r20,r20,4
10004710:	e47fe32e 	bgeu	fp,r17,100046a0 <__alt_data_end+0xf80046a0>
10004714:	d8c00317 	ldw	r3,12(sp)
10004718:	18800017 	ldw	r2,0(r3)
1000471c:	10000c1e 	bne	r2,zero,10004750 <quorem+0x13c>
10004720:	18bfff04 	addi	r2,r3,-4
10004724:	9880082e 	bgeu	r19,r2,10004748 <quorem+0x134>
10004728:	18ffff17 	ldw	r3,-4(r3)
1000472c:	18000326 	beq	r3,zero,1000473c <quorem+0x128>
10004730:	00000506 	br	10004748 <quorem+0x134>
10004734:	10c00017 	ldw	r3,0(r2)
10004738:	1800031e 	bne	r3,zero,10004748 <quorem+0x134>
1000473c:	10bfff04 	addi	r2,r2,-4
10004740:	bdffffc4 	addi	r23,r23,-1
10004744:	98bffb36 	bltu	r19,r2,10004734 <__alt_data_end+0xf8004734>
10004748:	d8c00017 	ldw	r3,0(sp)
1000474c:	1dc00415 	stw	r23,16(r3)
10004750:	d9000017 	ldw	r4,0(sp)
10004754:	d9400217 	ldw	r5,8(sp)
10004758:	00087f40 	call	100087f4 <__mcmp>
1000475c:	10002816 	blt	r2,zero,10004800 <quorem+0x1ec>
10004760:	dc400117 	ldw	r17,4(sp)
10004764:	94800044 	addi	r18,r18,1
10004768:	980d883a 	mov	r6,r19
1000476c:	0007883a 	mov	r3,zero
10004770:	31000017 	ldw	r4,0(r6)
10004774:	89400017 	ldw	r5,0(r17)
10004778:	31800104 	addi	r6,r6,4
1000477c:	20bfffcc 	andi	r2,r4,65535
10004780:	10c7883a 	add	r3,r2,r3
10004784:	28bfffcc 	andi	r2,r5,65535
10004788:	1885c83a 	sub	r2,r3,r2
1000478c:	280ad43a 	srli	r5,r5,16
10004790:	2008d43a 	srli	r4,r4,16
10004794:	1007d43a 	srai	r3,r2,16
10004798:	10bfffcc 	andi	r2,r2,65535
1000479c:	2149c83a 	sub	r4,r4,r5
100047a0:	20c9883a 	add	r4,r4,r3
100047a4:	200a943a 	slli	r5,r4,16
100047a8:	8c400104 	addi	r17,r17,4
100047ac:	2007d43a 	srai	r3,r4,16
100047b0:	2884b03a 	or	r2,r5,r2
100047b4:	30bfff15 	stw	r2,-4(r6)
100047b8:	e47fed2e 	bgeu	fp,r17,10004770 <__alt_data_end+0xf8004770>
100047bc:	bdc5883a 	add	r2,r23,r23
100047c0:	1085883a 	add	r2,r2,r2
100047c4:	9887883a 	add	r3,r19,r2
100047c8:	18800017 	ldw	r2,0(r3)
100047cc:	10000c1e 	bne	r2,zero,10004800 <quorem+0x1ec>
100047d0:	18bfff04 	addi	r2,r3,-4
100047d4:	9880082e 	bgeu	r19,r2,100047f8 <quorem+0x1e4>
100047d8:	18ffff17 	ldw	r3,-4(r3)
100047dc:	18000326 	beq	r3,zero,100047ec <quorem+0x1d8>
100047e0:	00000506 	br	100047f8 <quorem+0x1e4>
100047e4:	10c00017 	ldw	r3,0(r2)
100047e8:	1800031e 	bne	r3,zero,100047f8 <quorem+0x1e4>
100047ec:	10bfff04 	addi	r2,r2,-4
100047f0:	bdffffc4 	addi	r23,r23,-1
100047f4:	98bffb36 	bltu	r19,r2,100047e4 <__alt_data_end+0xf80047e4>
100047f8:	d8c00017 	ldw	r3,0(sp)
100047fc:	1dc00415 	stw	r23,16(r3)
10004800:	9005883a 	mov	r2,r18
10004804:	dfc00d17 	ldw	ra,52(sp)
10004808:	df000c17 	ldw	fp,48(sp)
1000480c:	ddc00b17 	ldw	r23,44(sp)
10004810:	dd800a17 	ldw	r22,40(sp)
10004814:	dd400917 	ldw	r21,36(sp)
10004818:	dd000817 	ldw	r20,32(sp)
1000481c:	dcc00717 	ldw	r19,28(sp)
10004820:	dc800617 	ldw	r18,24(sp)
10004824:	dc400517 	ldw	r17,20(sp)
10004828:	dc000417 	ldw	r16,16(sp)
1000482c:	dec00e04 	addi	sp,sp,56
10004830:	f800283a 	ret
10004834:	0005883a 	mov	r2,zero
10004838:	003ff206 	br	10004804 <__alt_data_end+0xf8004804>

1000483c <_dtoa_r>:
1000483c:	20801017 	ldw	r2,64(r4)
10004840:	deffde04 	addi	sp,sp,-136
10004844:	dd401d15 	stw	r21,116(sp)
10004848:	dcc01b15 	stw	r19,108(sp)
1000484c:	dc801a15 	stw	r18,104(sp)
10004850:	dc401915 	stw	r17,100(sp)
10004854:	dc001815 	stw	r16,96(sp)
10004858:	dfc02115 	stw	ra,132(sp)
1000485c:	df002015 	stw	fp,128(sp)
10004860:	ddc01f15 	stw	r23,124(sp)
10004864:	dd801e15 	stw	r22,120(sp)
10004868:	dd001c15 	stw	r20,112(sp)
1000486c:	d9c00315 	stw	r7,12(sp)
10004870:	2021883a 	mov	r16,r4
10004874:	302b883a 	mov	r21,r6
10004878:	2825883a 	mov	r18,r5
1000487c:	dc402417 	ldw	r17,144(sp)
10004880:	3027883a 	mov	r19,r6
10004884:	10000826 	beq	r2,zero,100048a8 <_dtoa_r+0x6c>
10004888:	21801117 	ldw	r6,68(r4)
1000488c:	00c00044 	movi	r3,1
10004890:	100b883a 	mov	r5,r2
10004894:	1986983a 	sll	r3,r3,r6
10004898:	11800115 	stw	r6,4(r2)
1000489c:	10c00215 	stw	r3,8(r2)
100048a0:	0007f200 	call	10007f20 <_Bfree>
100048a4:	80001015 	stw	zero,64(r16)
100048a8:	a8002d16 	blt	r21,zero,10004960 <_dtoa_r+0x124>
100048ac:	88000015 	stw	zero,0(r17)
100048b0:	a8dffc2c 	andhi	r3,r21,32752
100048b4:	009ffc34 	movhi	r2,32752
100048b8:	18801b26 	beq	r3,r2,10004928 <_dtoa_r+0xec>
100048bc:	9009883a 	mov	r4,r18
100048c0:	980b883a 	mov	r5,r19
100048c4:	000d883a 	mov	r6,zero
100048c8:	000f883a 	mov	r7,zero
100048cc:	000d57c0 	call	1000d57c <__eqdf2>
100048d0:	10002a1e 	bne	r2,zero,1000497c <_dtoa_r+0x140>
100048d4:	d8c02317 	ldw	r3,140(sp)
100048d8:	d9002517 	ldw	r4,148(sp)
100048dc:	00800044 	movi	r2,1
100048e0:	18800015 	stw	r2,0(r3)
100048e4:	2001a226 	beq	r4,zero,10004f70 <_dtoa_r+0x734>
100048e8:	00840074 	movhi	r2,4097
100048ec:	1086d944 	addi	r2,r2,7013
100048f0:	20800015 	stw	r2,0(r4)
100048f4:	10bfffc4 	addi	r2,r2,-1
100048f8:	dfc02117 	ldw	ra,132(sp)
100048fc:	df002017 	ldw	fp,128(sp)
10004900:	ddc01f17 	ldw	r23,124(sp)
10004904:	dd801e17 	ldw	r22,120(sp)
10004908:	dd401d17 	ldw	r21,116(sp)
1000490c:	dd001c17 	ldw	r20,112(sp)
10004910:	dcc01b17 	ldw	r19,108(sp)
10004914:	dc801a17 	ldw	r18,104(sp)
10004918:	dc401917 	ldw	r17,100(sp)
1000491c:	dc001817 	ldw	r16,96(sp)
10004920:	dec02204 	addi	sp,sp,136
10004924:	f800283a 	ret
10004928:	d8c02317 	ldw	r3,140(sp)
1000492c:	0089c3c4 	movi	r2,9999
10004930:	18800015 	stw	r2,0(r3)
10004934:	90017c26 	beq	r18,zero,10004f28 <_dtoa_r+0x6ec>
10004938:	00840074 	movhi	r2,4097
1000493c:	1086e504 	addi	r2,r2,7060
10004940:	d9002517 	ldw	r4,148(sp)
10004944:	203fec26 	beq	r4,zero,100048f8 <__alt_data_end+0xf80048f8>
10004948:	10c000c7 	ldb	r3,3(r2)
1000494c:	18017d1e 	bne	r3,zero,10004f44 <_dtoa_r+0x708>
10004950:	10c000c4 	addi	r3,r2,3
10004954:	d9802517 	ldw	r6,148(sp)
10004958:	30c00015 	stw	r3,0(r6)
1000495c:	003fe606 	br	100048f8 <__alt_data_end+0xf80048f8>
10004960:	04e00034 	movhi	r19,32768
10004964:	9cffffc4 	addi	r19,r19,-1
10004968:	00800044 	movi	r2,1
1000496c:	ace6703a 	and	r19,r21,r19
10004970:	88800015 	stw	r2,0(r17)
10004974:	982b883a 	mov	r21,r19
10004978:	003fcd06 	br	100048b0 <__alt_data_end+0xf80048b0>
1000497c:	d8800204 	addi	r2,sp,8
10004980:	a822d53a 	srli	r17,r21,20
10004984:	d8800015 	stw	r2,0(sp)
10004988:	8009883a 	mov	r4,r16
1000498c:	900b883a 	mov	r5,r18
10004990:	980d883a 	mov	r6,r19
10004994:	d9c00104 	addi	r7,sp,4
10004998:	0008b680 	call	10008b68 <__d2b>
1000499c:	1039883a 	mov	fp,r2
100049a0:	88016a1e 	bne	r17,zero,10004f4c <_dtoa_r+0x710>
100049a4:	dd000217 	ldw	r20,8(sp)
100049a8:	dc400117 	ldw	r17,4(sp)
100049ac:	00befbc4 	movi	r2,-1041
100049b0:	a463883a 	add	r17,r20,r17
100049b4:	8882ea16 	blt	r17,r2,10005560 <_dtoa_r+0xd24>
100049b8:	00bf0384 	movi	r2,-1010
100049bc:	1445c83a 	sub	r2,r2,r17
100049c0:	89010484 	addi	r4,r17,1042
100049c4:	a8aa983a 	sll	r21,r21,r2
100049c8:	9108d83a 	srl	r4,r18,r4
100049cc:	a908b03a 	or	r4,r21,r4
100049d0:	000ea540 	call	1000ea54 <__floatunsidf>
100049d4:	017f8434 	movhi	r5,65040
100049d8:	01800044 	movi	r6,1
100049dc:	1009883a 	mov	r4,r2
100049e0:	194b883a 	add	r5,r3,r5
100049e4:	8c7fffc4 	addi	r17,r17,-1
100049e8:	d9800f15 	stw	r6,60(sp)
100049ec:	000d883a 	mov	r6,zero
100049f0:	01cffe34 	movhi	r7,16376
100049f4:	000e02c0 	call	1000e02c <__subdf3>
100049f8:	0198dbf4 	movhi	r6,25455
100049fc:	01cff4f4 	movhi	r7,16339
10004a00:	1009883a 	mov	r4,r2
10004a04:	180b883a 	mov	r5,r3
10004a08:	3190d844 	addi	r6,r6,17249
10004a0c:	39e1e9c4 	addi	r7,r7,-30809
10004a10:	000d7c00 	call	1000d7c0 <__muldf3>
10004a14:	01a2d874 	movhi	r6,35681
10004a18:	01cff1f4 	movhi	r7,16327
10004a1c:	180b883a 	mov	r5,r3
10004a20:	31b22cc4 	addi	r6,r6,-14157
10004a24:	39e28a04 	addi	r7,r7,-30168
10004a28:	1009883a 	mov	r4,r2
10004a2c:	000c3600 	call	1000c360 <__adddf3>
10004a30:	8809883a 	mov	r4,r17
10004a34:	102d883a 	mov	r22,r2
10004a38:	182b883a 	mov	r21,r3
10004a3c:	000e9840 	call	1000e984 <__floatsidf>
10004a40:	019427f4 	movhi	r6,20639
10004a44:	01cff4f4 	movhi	r7,16339
10004a48:	1009883a 	mov	r4,r2
10004a4c:	180b883a 	mov	r5,r3
10004a50:	319e7ec4 	addi	r6,r6,31227
10004a54:	39d104c4 	addi	r7,r7,17427
10004a58:	000d7c00 	call	1000d7c0 <__muldf3>
10004a5c:	b009883a 	mov	r4,r22
10004a60:	a80b883a 	mov	r5,r21
10004a64:	100d883a 	mov	r6,r2
10004a68:	180f883a 	mov	r7,r3
10004a6c:	000c3600 	call	1000c360 <__adddf3>
10004a70:	1009883a 	mov	r4,r2
10004a74:	180b883a 	mov	r5,r3
10004a78:	102d883a 	mov	r22,r2
10004a7c:	182b883a 	mov	r21,r3
10004a80:	000e8fc0 	call	1000e8fc <__fixdfsi>
10004a84:	b009883a 	mov	r4,r22
10004a88:	a80b883a 	mov	r5,r21
10004a8c:	000d883a 	mov	r6,zero
10004a90:	000f883a 	mov	r7,zero
10004a94:	d8800515 	stw	r2,20(sp)
10004a98:	000d6e00 	call	1000d6e0 <__ledf2>
10004a9c:	10023116 	blt	r2,zero,10005364 <_dtoa_r+0xb28>
10004aa0:	d8c00517 	ldw	r3,20(sp)
10004aa4:	00800584 	movi	r2,22
10004aa8:	10c21f36 	bltu	r2,r3,10005328 <_dtoa_r+0xaec>
10004aac:	180490fa 	slli	r2,r3,3
10004ab0:	00c40074 	movhi	r3,4097
10004ab4:	18c70104 	addi	r3,r3,7172
10004ab8:	1885883a 	add	r2,r3,r2
10004abc:	11000017 	ldw	r4,0(r2)
10004ac0:	11400117 	ldw	r5,4(r2)
10004ac4:	900d883a 	mov	r6,r18
10004ac8:	980f883a 	mov	r7,r19
10004acc:	000d6000 	call	1000d600 <__gedf2>
10004ad0:	0082a70e 	bge	zero,r2,10005570 <_dtoa_r+0xd34>
10004ad4:	d9000517 	ldw	r4,20(sp)
10004ad8:	d8000c15 	stw	zero,48(sp)
10004adc:	213fffc4 	addi	r4,r4,-1
10004ae0:	d9000515 	stw	r4,20(sp)
10004ae4:	a463c83a 	sub	r17,r20,r17
10004ae8:	8dbfffc4 	addi	r22,r17,-1
10004aec:	b0021916 	blt	r22,zero,10005354 <_dtoa_r+0xb18>
10004af0:	d8000815 	stw	zero,32(sp)
10004af4:	d8800517 	ldw	r2,20(sp)
10004af8:	10020e16 	blt	r2,zero,10005334 <_dtoa_r+0xaf8>
10004afc:	b0ad883a 	add	r22,r22,r2
10004b00:	d8800a15 	stw	r2,40(sp)
10004b04:	d8000915 	stw	zero,36(sp)
10004b08:	d8c00317 	ldw	r3,12(sp)
10004b0c:	00800244 	movi	r2,9
10004b10:	10c11a36 	bltu	r2,r3,10004f7c <_dtoa_r+0x740>
10004b14:	00800144 	movi	r2,5
10004b18:	10c4fc0e 	bge	r2,r3,10005f0c <_dtoa_r+0x16d0>
10004b1c:	18ffff04 	addi	r3,r3,-4
10004b20:	d8c00315 	stw	r3,12(sp)
10004b24:	0029883a 	mov	r20,zero
10004b28:	d9800317 	ldw	r6,12(sp)
10004b2c:	008000c4 	movi	r2,3
10004b30:	3083bd26 	beq	r6,r2,10005a28 <_dtoa_r+0x11ec>
10004b34:	1183670e 	bge	r2,r6,100058d4 <_dtoa_r+0x1098>
10004b38:	d8c00317 	ldw	r3,12(sp)
10004b3c:	00800104 	movi	r2,4
10004b40:	1882e726 	beq	r3,r2,100056e0 <_dtoa_r+0xea4>
10004b44:	00800144 	movi	r2,5
10004b48:	1884f21e 	bne	r3,r2,10005f14 <_dtoa_r+0x16d8>
10004b4c:	00800044 	movi	r2,1
10004b50:	d8800b15 	stw	r2,44(sp)
10004b54:	d8c02217 	ldw	r3,136(sp)
10004b58:	d9000517 	ldw	r4,20(sp)
10004b5c:	1907883a 	add	r3,r3,r4
10004b60:	19800044 	addi	r6,r3,1
10004b64:	d8c00d15 	stw	r3,52(sp)
10004b68:	d9800615 	stw	r6,24(sp)
10004b6c:	0183c30e 	bge	zero,r6,10005a7c <_dtoa_r+0x1240>
10004b70:	d9800617 	ldw	r6,24(sp)
10004b74:	3023883a 	mov	r17,r6
10004b78:	80001115 	stw	zero,68(r16)
10004b7c:	008005c4 	movi	r2,23
10004b80:	1184f62e 	bgeu	r2,r6,10005f5c <_dtoa_r+0x1720>
10004b84:	00c00044 	movi	r3,1
10004b88:	00800104 	movi	r2,4
10004b8c:	1085883a 	add	r2,r2,r2
10004b90:	11000504 	addi	r4,r2,20
10004b94:	180b883a 	mov	r5,r3
10004b98:	18c00044 	addi	r3,r3,1
10004b9c:	313ffb2e 	bgeu	r6,r4,10004b8c <__alt_data_end+0xf8004b8c>
10004ba0:	81401115 	stw	r5,68(r16)
10004ba4:	8009883a 	mov	r4,r16
10004ba8:	0007e780 	call	10007e78 <_Balloc>
10004bac:	d8800715 	stw	r2,28(sp)
10004bb0:	80801015 	stw	r2,64(r16)
10004bb4:	00800384 	movi	r2,14
10004bb8:	1440fd36 	bltu	r2,r17,10004fb0 <_dtoa_r+0x774>
10004bbc:	a000fc26 	beq	r20,zero,10004fb0 <_dtoa_r+0x774>
10004bc0:	d8800517 	ldw	r2,20(sp)
10004bc4:	0083b90e 	bge	zero,r2,10005aac <_dtoa_r+0x1270>
10004bc8:	d8c00517 	ldw	r3,20(sp)
10004bcc:	108003cc 	andi	r2,r2,15
10004bd0:	100490fa 	slli	r2,r2,3
10004bd4:	182fd13a 	srai	r23,r3,4
10004bd8:	00c40074 	movhi	r3,4097
10004bdc:	18c70104 	addi	r3,r3,7172
10004be0:	1885883a 	add	r2,r3,r2
10004be4:	b8c0040c 	andi	r3,r23,16
10004be8:	12c00017 	ldw	r11,0(r2)
10004bec:	12800117 	ldw	r10,4(r2)
10004bf0:	18039726 	beq	r3,zero,10005a50 <_dtoa_r+0x1214>
10004bf4:	00840074 	movhi	r2,4097
10004bf8:	1086f704 	addi	r2,r2,7132
10004bfc:	11800817 	ldw	r6,32(r2)
10004c00:	11c00917 	ldw	r7,36(r2)
10004c04:	9009883a 	mov	r4,r18
10004c08:	980b883a 	mov	r5,r19
10004c0c:	da801615 	stw	r10,88(sp)
10004c10:	dac01515 	stw	r11,84(sp)
10004c14:	000cbfc0 	call	1000cbfc <__divdf3>
10004c18:	da801617 	ldw	r10,88(sp)
10004c1c:	dac01517 	ldw	r11,84(sp)
10004c20:	bdc003cc 	andi	r23,r23,15
10004c24:	044000c4 	movi	r17,3
10004c28:	d8800e15 	stw	r2,56(sp)
10004c2c:	182b883a 	mov	r21,r3
10004c30:	b8001126 	beq	r23,zero,10004c78 <_dtoa_r+0x43c>
10004c34:	05040074 	movhi	r20,4097
10004c38:	a506f704 	addi	r20,r20,7132
10004c3c:	5805883a 	mov	r2,r11
10004c40:	5007883a 	mov	r3,r10
10004c44:	b980004c 	andi	r6,r23,1
10004c48:	1009883a 	mov	r4,r2
10004c4c:	b82fd07a 	srai	r23,r23,1
10004c50:	180b883a 	mov	r5,r3
10004c54:	30000426 	beq	r6,zero,10004c68 <_dtoa_r+0x42c>
10004c58:	a1800017 	ldw	r6,0(r20)
10004c5c:	a1c00117 	ldw	r7,4(r20)
10004c60:	8c400044 	addi	r17,r17,1
10004c64:	000d7c00 	call	1000d7c0 <__muldf3>
10004c68:	a5000204 	addi	r20,r20,8
10004c6c:	b83ff51e 	bne	r23,zero,10004c44 <__alt_data_end+0xf8004c44>
10004c70:	1017883a 	mov	r11,r2
10004c74:	1815883a 	mov	r10,r3
10004c78:	d9000e17 	ldw	r4,56(sp)
10004c7c:	a80b883a 	mov	r5,r21
10004c80:	580d883a 	mov	r6,r11
10004c84:	500f883a 	mov	r7,r10
10004c88:	000cbfc0 	call	1000cbfc <__divdf3>
10004c8c:	1029883a 	mov	r20,r2
10004c90:	182b883a 	mov	r21,r3
10004c94:	d9800c17 	ldw	r6,48(sp)
10004c98:	30000626 	beq	r6,zero,10004cb4 <_dtoa_r+0x478>
10004c9c:	a009883a 	mov	r4,r20
10004ca0:	a80b883a 	mov	r5,r21
10004ca4:	000d883a 	mov	r6,zero
10004ca8:	01cffc34 	movhi	r7,16368
10004cac:	000d6e00 	call	1000d6e0 <__ledf2>
10004cb0:	10043216 	blt	r2,zero,10005d7c <_dtoa_r+0x1540>
10004cb4:	8809883a 	mov	r4,r17
10004cb8:	000e9840 	call	1000e984 <__floatsidf>
10004cbc:	1009883a 	mov	r4,r2
10004cc0:	180b883a 	mov	r5,r3
10004cc4:	a00d883a 	mov	r6,r20
10004cc8:	a80f883a 	mov	r7,r21
10004ccc:	000d7c00 	call	1000d7c0 <__muldf3>
10004cd0:	000d883a 	mov	r6,zero
10004cd4:	1009883a 	mov	r4,r2
10004cd8:	180b883a 	mov	r5,r3
10004cdc:	01d00734 	movhi	r7,16412
10004ce0:	000c3600 	call	1000c360 <__adddf3>
10004ce4:	1023883a 	mov	r17,r2
10004ce8:	d9800617 	ldw	r6,24(sp)
10004cec:	00bf3034 	movhi	r2,64704
10004cf0:	1885883a 	add	r2,r3,r2
10004cf4:	d8800e15 	stw	r2,56(sp)
10004cf8:	30032e26 	beq	r6,zero,100059b4 <_dtoa_r+0x1178>
10004cfc:	d8c00517 	ldw	r3,20(sp)
10004d00:	da800617 	ldw	r10,24(sp)
10004d04:	d8c01215 	stw	r3,72(sp)
10004d08:	d9000b17 	ldw	r4,44(sp)
10004d0c:	2003b026 	beq	r4,zero,10005bd0 <_dtoa_r+0x1394>
10004d10:	50bfffc4 	addi	r2,r10,-1
10004d14:	100490fa 	slli	r2,r2,3
10004d18:	00c40074 	movhi	r3,4097
10004d1c:	18c70104 	addi	r3,r3,7172
10004d20:	1885883a 	add	r2,r3,r2
10004d24:	11800017 	ldw	r6,0(r2)
10004d28:	11c00117 	ldw	r7,4(r2)
10004d2c:	d8800717 	ldw	r2,28(sp)
10004d30:	0009883a 	mov	r4,zero
10004d34:	014ff834 	movhi	r5,16352
10004d38:	da801615 	stw	r10,88(sp)
10004d3c:	15c00044 	addi	r23,r2,1
10004d40:	000cbfc0 	call	1000cbfc <__divdf3>
10004d44:	d9c00e17 	ldw	r7,56(sp)
10004d48:	880d883a 	mov	r6,r17
10004d4c:	1009883a 	mov	r4,r2
10004d50:	180b883a 	mov	r5,r3
10004d54:	000e02c0 	call	1000e02c <__subdf3>
10004d58:	a80b883a 	mov	r5,r21
10004d5c:	a009883a 	mov	r4,r20
10004d60:	d8c01015 	stw	r3,64(sp)
10004d64:	d8800e15 	stw	r2,56(sp)
10004d68:	000e8fc0 	call	1000e8fc <__fixdfsi>
10004d6c:	1009883a 	mov	r4,r2
10004d70:	d8801715 	stw	r2,92(sp)
10004d74:	000e9840 	call	1000e984 <__floatsidf>
10004d78:	a009883a 	mov	r4,r20
10004d7c:	a80b883a 	mov	r5,r21
10004d80:	100d883a 	mov	r6,r2
10004d84:	180f883a 	mov	r7,r3
10004d88:	000e02c0 	call	1000e02c <__subdf3>
10004d8c:	da001717 	ldw	r8,92(sp)
10004d90:	1829883a 	mov	r20,r3
10004d94:	d8c00717 	ldw	r3,28(sp)
10004d98:	d9000e17 	ldw	r4,56(sp)
10004d9c:	d9401017 	ldw	r5,64(sp)
10004da0:	42000c04 	addi	r8,r8,48
10004da4:	1023883a 	mov	r17,r2
10004da8:	1a000005 	stb	r8,0(r3)
10004dac:	880d883a 	mov	r6,r17
10004db0:	a00f883a 	mov	r7,r20
10004db4:	402b883a 	mov	r21,r8
10004db8:	000d6000 	call	1000d600 <__gedf2>
10004dbc:	00844516 	blt	zero,r2,10005ed4 <_dtoa_r+0x1698>
10004dc0:	0009883a 	mov	r4,zero
10004dc4:	014ffc34 	movhi	r5,16368
10004dc8:	880d883a 	mov	r6,r17
10004dcc:	a00f883a 	mov	r7,r20
10004dd0:	000e02c0 	call	1000e02c <__subdf3>
10004dd4:	d9000e17 	ldw	r4,56(sp)
10004dd8:	d9401017 	ldw	r5,64(sp)
10004ddc:	100d883a 	mov	r6,r2
10004de0:	180f883a 	mov	r7,r3
10004de4:	000d6000 	call	1000d600 <__gedf2>
10004de8:	da801617 	ldw	r10,88(sp)
10004dec:	00843616 	blt	zero,r2,10005ec8 <_dtoa_r+0x168c>
10004df0:	00800044 	movi	r2,1
10004df4:	12806e0e 	bge	r2,r10,10004fb0 <_dtoa_r+0x774>
10004df8:	d9000717 	ldw	r4,28(sp)
10004dfc:	dd801315 	stw	r22,76(sp)
10004e00:	dc001115 	stw	r16,68(sp)
10004e04:	2295883a 	add	r10,r4,r10
10004e08:	dcc01415 	stw	r19,80(sp)
10004e0c:	502d883a 	mov	r22,r10
10004e10:	dcc01017 	ldw	r19,64(sp)
10004e14:	b821883a 	mov	r16,r23
10004e18:	dc801015 	stw	r18,64(sp)
10004e1c:	dc800e17 	ldw	r18,56(sp)
10004e20:	00000906 	br	10004e48 <_dtoa_r+0x60c>
10004e24:	000e02c0 	call	1000e02c <__subdf3>
10004e28:	1009883a 	mov	r4,r2
10004e2c:	180b883a 	mov	r5,r3
10004e30:	900d883a 	mov	r6,r18
10004e34:	980f883a 	mov	r7,r19
10004e38:	000d6e00 	call	1000d6e0 <__ledf2>
10004e3c:	10040e16 	blt	r2,zero,10005e78 <_dtoa_r+0x163c>
10004e40:	b821883a 	mov	r16,r23
10004e44:	bd841026 	beq	r23,r22,10005e88 <_dtoa_r+0x164c>
10004e48:	9009883a 	mov	r4,r18
10004e4c:	980b883a 	mov	r5,r19
10004e50:	000d883a 	mov	r6,zero
10004e54:	01d00934 	movhi	r7,16420
10004e58:	000d7c00 	call	1000d7c0 <__muldf3>
10004e5c:	000d883a 	mov	r6,zero
10004e60:	01d00934 	movhi	r7,16420
10004e64:	8809883a 	mov	r4,r17
10004e68:	a00b883a 	mov	r5,r20
10004e6c:	1025883a 	mov	r18,r2
10004e70:	1827883a 	mov	r19,r3
10004e74:	000d7c00 	call	1000d7c0 <__muldf3>
10004e78:	180b883a 	mov	r5,r3
10004e7c:	1009883a 	mov	r4,r2
10004e80:	1823883a 	mov	r17,r3
10004e84:	1029883a 	mov	r20,r2
10004e88:	000e8fc0 	call	1000e8fc <__fixdfsi>
10004e8c:	1009883a 	mov	r4,r2
10004e90:	102b883a 	mov	r21,r2
10004e94:	000e9840 	call	1000e984 <__floatsidf>
10004e98:	a009883a 	mov	r4,r20
10004e9c:	880b883a 	mov	r5,r17
10004ea0:	100d883a 	mov	r6,r2
10004ea4:	180f883a 	mov	r7,r3
10004ea8:	000e02c0 	call	1000e02c <__subdf3>
10004eac:	ad400c04 	addi	r21,r21,48
10004eb0:	1009883a 	mov	r4,r2
10004eb4:	180b883a 	mov	r5,r3
10004eb8:	900d883a 	mov	r6,r18
10004ebc:	980f883a 	mov	r7,r19
10004ec0:	85400005 	stb	r21,0(r16)
10004ec4:	1023883a 	mov	r17,r2
10004ec8:	1829883a 	mov	r20,r3
10004ecc:	000d6e00 	call	1000d6e0 <__ledf2>
10004ed0:	bdc00044 	addi	r23,r23,1
10004ed4:	0009883a 	mov	r4,zero
10004ed8:	014ffc34 	movhi	r5,16368
10004edc:	880d883a 	mov	r6,r17
10004ee0:	a00f883a 	mov	r7,r20
10004ee4:	103fcf0e 	bge	r2,zero,10004e24 <__alt_data_end+0xf8004e24>
10004ee8:	d9801217 	ldw	r6,72(sp)
10004eec:	dc001117 	ldw	r16,68(sp)
10004ef0:	d9800515 	stw	r6,20(sp)
10004ef4:	8009883a 	mov	r4,r16
10004ef8:	e00b883a 	mov	r5,fp
10004efc:	0007f200 	call	10007f20 <_Bfree>
10004f00:	d8c00517 	ldw	r3,20(sp)
10004f04:	d9002317 	ldw	r4,140(sp)
10004f08:	d9802517 	ldw	r6,148(sp)
10004f0c:	b8000005 	stb	zero,0(r23)
10004f10:	18800044 	addi	r2,r3,1
10004f14:	20800015 	stw	r2,0(r4)
10004f18:	30027226 	beq	r6,zero,100058e4 <_dtoa_r+0x10a8>
10004f1c:	35c00015 	stw	r23,0(r6)
10004f20:	d8800717 	ldw	r2,28(sp)
10004f24:	003e7406 	br	100048f8 <__alt_data_end+0xf80048f8>
10004f28:	00800434 	movhi	r2,16
10004f2c:	10bfffc4 	addi	r2,r2,-1
10004f30:	a8aa703a 	and	r21,r21,r2
10004f34:	a83e801e 	bne	r21,zero,10004938 <__alt_data_end+0xf8004938>
10004f38:	00840074 	movhi	r2,4097
10004f3c:	1086e204 	addi	r2,r2,7048
10004f40:	003e7f06 	br	10004940 <__alt_data_end+0xf8004940>
10004f44:	10c00204 	addi	r3,r2,8
10004f48:	003e8206 	br	10004954 <__alt_data_end+0xf8004954>
10004f4c:	01400434 	movhi	r5,16
10004f50:	297fffc4 	addi	r5,r5,-1
10004f54:	994a703a 	and	r5,r19,r5
10004f58:	9009883a 	mov	r4,r18
10004f5c:	8c7f0044 	addi	r17,r17,-1023
10004f60:	294ffc34 	orhi	r5,r5,16368
10004f64:	dd000217 	ldw	r20,8(sp)
10004f68:	d8000f15 	stw	zero,60(sp)
10004f6c:	003e9f06 	br	100049ec <__alt_data_end+0xf80049ec>
10004f70:	00840074 	movhi	r2,4097
10004f74:	1086d904 	addi	r2,r2,7012
10004f78:	003e5f06 	br	100048f8 <__alt_data_end+0xf80048f8>
10004f7c:	80001115 	stw	zero,68(r16)
10004f80:	8009883a 	mov	r4,r16
10004f84:	000b883a 	mov	r5,zero
10004f88:	0007e780 	call	10007e78 <_Balloc>
10004f8c:	01bfffc4 	movi	r6,-1
10004f90:	d8800715 	stw	r2,28(sp)
10004f94:	80801015 	stw	r2,64(r16)
10004f98:	00800044 	movi	r2,1
10004f9c:	d9800615 	stw	r6,24(sp)
10004fa0:	d8800b15 	stw	r2,44(sp)
10004fa4:	d8002215 	stw	zero,136(sp)
10004fa8:	d9800d15 	stw	r6,52(sp)
10004fac:	d8000315 	stw	zero,12(sp)
10004fb0:	d8800117 	ldw	r2,4(sp)
10004fb4:	10008e16 	blt	r2,zero,100051f0 <_dtoa_r+0x9b4>
10004fb8:	d9000517 	ldw	r4,20(sp)
10004fbc:	00c00384 	movi	r3,14
10004fc0:	19008b16 	blt	r3,r4,100051f0 <_dtoa_r+0x9b4>
10004fc4:	200490fa 	slli	r2,r4,3
10004fc8:	00c40074 	movhi	r3,4097
10004fcc:	d9802217 	ldw	r6,136(sp)
10004fd0:	18c70104 	addi	r3,r3,7172
10004fd4:	1885883a 	add	r2,r3,r2
10004fd8:	14400017 	ldw	r17,0(r2)
10004fdc:	15000117 	ldw	r20,4(r2)
10004fe0:	3001c716 	blt	r6,zero,10005700 <_dtoa_r+0xec4>
10004fe4:	880d883a 	mov	r6,r17
10004fe8:	a00f883a 	mov	r7,r20
10004fec:	9009883a 	mov	r4,r18
10004ff0:	980b883a 	mov	r5,r19
10004ff4:	000cbfc0 	call	1000cbfc <__divdf3>
10004ff8:	180b883a 	mov	r5,r3
10004ffc:	1009883a 	mov	r4,r2
10005000:	000e8fc0 	call	1000e8fc <__fixdfsi>
10005004:	1009883a 	mov	r4,r2
10005008:	102d883a 	mov	r22,r2
1000500c:	000e9840 	call	1000e984 <__floatsidf>
10005010:	1009883a 	mov	r4,r2
10005014:	180b883a 	mov	r5,r3
10005018:	880d883a 	mov	r6,r17
1000501c:	a00f883a 	mov	r7,r20
10005020:	000d7c00 	call	1000d7c0 <__muldf3>
10005024:	9009883a 	mov	r4,r18
10005028:	980b883a 	mov	r5,r19
1000502c:	100d883a 	mov	r6,r2
10005030:	180f883a 	mov	r7,r3
10005034:	000e02c0 	call	1000e02c <__subdf3>
10005038:	d9000717 	ldw	r4,28(sp)
1000503c:	d9800617 	ldw	r6,24(sp)
10005040:	180b883a 	mov	r5,r3
10005044:	b0c00c04 	addi	r3,r22,48
10005048:	20c00005 	stb	r3,0(r4)
1000504c:	25c00044 	addi	r23,r4,1
10005050:	01000044 	movi	r4,1
10005054:	1011883a 	mov	r8,r2
10005058:	2807883a 	mov	r3,r5
1000505c:	31003d26 	beq	r6,r4,10005154 <_dtoa_r+0x918>
10005060:	000d883a 	mov	r6,zero
10005064:	01d00934 	movhi	r7,16420
10005068:	1009883a 	mov	r4,r2
1000506c:	000d7c00 	call	1000d7c0 <__muldf3>
10005070:	1009883a 	mov	r4,r2
10005074:	180b883a 	mov	r5,r3
10005078:	000d883a 	mov	r6,zero
1000507c:	000f883a 	mov	r7,zero
10005080:	1027883a 	mov	r19,r2
10005084:	182b883a 	mov	r21,r3
10005088:	000d57c0 	call	1000d57c <__eqdf2>
1000508c:	103f9926 	beq	r2,zero,10004ef4 <__alt_data_end+0xf8004ef4>
10005090:	d8c00617 	ldw	r3,24(sp)
10005094:	d9000717 	ldw	r4,28(sp)
10005098:	b825883a 	mov	r18,r23
1000509c:	18bfffc4 	addi	r2,r3,-1
100050a0:	20ad883a 	add	r22,r4,r2
100050a4:	dc000315 	stw	r16,12(sp)
100050a8:	00000a06 	br	100050d4 <_dtoa_r+0x898>
100050ac:	000d7c00 	call	1000d7c0 <__muldf3>
100050b0:	1009883a 	mov	r4,r2
100050b4:	180b883a 	mov	r5,r3
100050b8:	000d883a 	mov	r6,zero
100050bc:	000f883a 	mov	r7,zero
100050c0:	1027883a 	mov	r19,r2
100050c4:	182b883a 	mov	r21,r3
100050c8:	b825883a 	mov	r18,r23
100050cc:	000d57c0 	call	1000d57c <__eqdf2>
100050d0:	10022626 	beq	r2,zero,1000596c <_dtoa_r+0x1130>
100050d4:	880d883a 	mov	r6,r17
100050d8:	a00f883a 	mov	r7,r20
100050dc:	9809883a 	mov	r4,r19
100050e0:	a80b883a 	mov	r5,r21
100050e4:	000cbfc0 	call	1000cbfc <__divdf3>
100050e8:	180b883a 	mov	r5,r3
100050ec:	1009883a 	mov	r4,r2
100050f0:	000e8fc0 	call	1000e8fc <__fixdfsi>
100050f4:	1009883a 	mov	r4,r2
100050f8:	1021883a 	mov	r16,r2
100050fc:	000e9840 	call	1000e984 <__floatsidf>
10005100:	1009883a 	mov	r4,r2
10005104:	180b883a 	mov	r5,r3
10005108:	880d883a 	mov	r6,r17
1000510c:	a00f883a 	mov	r7,r20
10005110:	000d7c00 	call	1000d7c0 <__muldf3>
10005114:	9809883a 	mov	r4,r19
10005118:	a80b883a 	mov	r5,r21
1000511c:	100d883a 	mov	r6,r2
10005120:	180f883a 	mov	r7,r3
10005124:	000e02c0 	call	1000e02c <__subdf3>
10005128:	82000c04 	addi	r8,r16,48
1000512c:	92000005 	stb	r8,0(r18)
10005130:	1009883a 	mov	r4,r2
10005134:	180b883a 	mov	r5,r3
10005138:	000d883a 	mov	r6,zero
1000513c:	01d00934 	movhi	r7,16420
10005140:	1011883a 	mov	r8,r2
10005144:	bdc00044 	addi	r23,r23,1
10005148:	95bfd81e 	bne	r18,r22,100050ac <__alt_data_end+0xf80050ac>
1000514c:	802d883a 	mov	r22,r16
10005150:	dc000317 	ldw	r16,12(sp)
10005154:	4009883a 	mov	r4,r8
10005158:	180b883a 	mov	r5,r3
1000515c:	400d883a 	mov	r6,r8
10005160:	180f883a 	mov	r7,r3
10005164:	000c3600 	call	1000c360 <__adddf3>
10005168:	8809883a 	mov	r4,r17
1000516c:	a00b883a 	mov	r5,r20
10005170:	100d883a 	mov	r6,r2
10005174:	180f883a 	mov	r7,r3
10005178:	1027883a 	mov	r19,r2
1000517c:	1825883a 	mov	r18,r3
10005180:	000d6e00 	call	1000d6e0 <__ledf2>
10005184:	10000816 	blt	r2,zero,100051a8 <_dtoa_r+0x96c>
10005188:	8809883a 	mov	r4,r17
1000518c:	a00b883a 	mov	r5,r20
10005190:	980d883a 	mov	r6,r19
10005194:	900f883a 	mov	r7,r18
10005198:	000d57c0 	call	1000d57c <__eqdf2>
1000519c:	103f551e 	bne	r2,zero,10004ef4 <__alt_data_end+0xf8004ef4>
100051a0:	b580004c 	andi	r22,r22,1
100051a4:	b03f5326 	beq	r22,zero,10004ef4 <__alt_data_end+0xf8004ef4>
100051a8:	bd7fffc3 	ldbu	r21,-1(r23)
100051ac:	b8bfffc4 	addi	r2,r23,-1
100051b0:	1007883a 	mov	r3,r2
100051b4:	01400e44 	movi	r5,57
100051b8:	d9800717 	ldw	r6,28(sp)
100051bc:	00000506 	br	100051d4 <_dtoa_r+0x998>
100051c0:	18ffffc4 	addi	r3,r3,-1
100051c4:	30825e26 	beq	r6,r2,10005b40 <_dtoa_r+0x1304>
100051c8:	1d400003 	ldbu	r21,0(r3)
100051cc:	102f883a 	mov	r23,r2
100051d0:	10bfffc4 	addi	r2,r2,-1
100051d4:	a9003fcc 	andi	r4,r21,255
100051d8:	2100201c 	xori	r4,r4,128
100051dc:	213fe004 	addi	r4,r4,-128
100051e0:	217ff726 	beq	r4,r5,100051c0 <__alt_data_end+0xf80051c0>
100051e4:	aa000044 	addi	r8,r21,1
100051e8:	12000005 	stb	r8,0(r2)
100051ec:	003f4106 	br	10004ef4 <__alt_data_end+0xf8004ef4>
100051f0:	d8c00b17 	ldw	r3,44(sp)
100051f4:	18006726 	beq	r3,zero,10005394 <_dtoa_r+0xb58>
100051f8:	d9000317 	ldw	r4,12(sp)
100051fc:	00c00044 	movi	r3,1
10005200:	19016a0e 	bge	r3,r4,100057ac <_dtoa_r+0xf70>
10005204:	d8800617 	ldw	r2,24(sp)
10005208:	d8c00917 	ldw	r3,36(sp)
1000520c:	157fffc4 	addi	r21,r2,-1
10005210:	1d420716 	blt	r3,r21,10005a30 <_dtoa_r+0x11f4>
10005214:	1d6bc83a 	sub	r21,r3,r21
10005218:	d8800617 	ldw	r2,24(sp)
1000521c:	1002c716 	blt	r2,zero,10005d3c <_dtoa_r+0x1500>
10005220:	dd000817 	ldw	r20,32(sp)
10005224:	d8800617 	ldw	r2,24(sp)
10005228:	d9800817 	ldw	r6,32(sp)
1000522c:	8009883a 	mov	r4,r16
10005230:	01400044 	movi	r5,1
10005234:	308d883a 	add	r6,r6,r2
10005238:	d9800815 	stw	r6,32(sp)
1000523c:	b0ad883a 	add	r22,r22,r2
10005240:	00082a00 	call	100082a0 <__i2b>
10005244:	1023883a 	mov	r17,r2
10005248:	a0000826 	beq	r20,zero,1000526c <_dtoa_r+0xa30>
1000524c:	0580070e 	bge	zero,r22,1000526c <_dtoa_r+0xa30>
10005250:	b005883a 	mov	r2,r22
10005254:	a5812016 	blt	r20,r22,100056d8 <_dtoa_r+0xe9c>
10005258:	d8c00817 	ldw	r3,32(sp)
1000525c:	a0a9c83a 	sub	r20,r20,r2
10005260:	b0adc83a 	sub	r22,r22,r2
10005264:	1887c83a 	sub	r3,r3,r2
10005268:	d8c00815 	stw	r3,32(sp)
1000526c:	d9000917 	ldw	r4,36(sp)
10005270:	0100140e 	bge	zero,r4,100052c4 <_dtoa_r+0xa88>
10005274:	d9800b17 	ldw	r6,44(sp)
10005278:	3001e526 	beq	r6,zero,10005a10 <_dtoa_r+0x11d4>
1000527c:	05400e0e 	bge	zero,r21,100052b8 <_dtoa_r+0xa7c>
10005280:	880b883a 	mov	r5,r17
10005284:	8009883a 	mov	r4,r16
10005288:	a80d883a 	mov	r6,r21
1000528c:	000856c0 	call	1000856c <__pow5mult>
10005290:	e00d883a 	mov	r6,fp
10005294:	8009883a 	mov	r4,r16
10005298:	100b883a 	mov	r5,r2
1000529c:	1023883a 	mov	r17,r2
100052a0:	00082dc0 	call	100082dc <__multiply>
100052a4:	102f883a 	mov	r23,r2
100052a8:	e00b883a 	mov	r5,fp
100052ac:	8009883a 	mov	r4,r16
100052b0:	0007f200 	call	10007f20 <_Bfree>
100052b4:	b839883a 	mov	fp,r23
100052b8:	d8800917 	ldw	r2,36(sp)
100052bc:	154dc83a 	sub	r6,r2,r21
100052c0:	3001281e 	bne	r6,zero,10005764 <_dtoa_r+0xf28>
100052c4:	05c00044 	movi	r23,1
100052c8:	8009883a 	mov	r4,r16
100052cc:	b80b883a 	mov	r5,r23
100052d0:	00082a00 	call	100082a0 <__i2b>
100052d4:	d8c00a17 	ldw	r3,40(sp)
100052d8:	102b883a 	mov	r21,r2
100052dc:	00c0310e 	bge	zero,r3,100053a4 <_dtoa_r+0xb68>
100052e0:	8009883a 	mov	r4,r16
100052e4:	100b883a 	mov	r5,r2
100052e8:	180d883a 	mov	r6,r3
100052ec:	000856c0 	call	1000856c <__pow5mult>
100052f0:	d9000317 	ldw	r4,12(sp)
100052f4:	102b883a 	mov	r21,r2
100052f8:	b9011f0e 	bge	r23,r4,10005778 <_dtoa_r+0xf3c>
100052fc:	0027883a 	mov	r19,zero
10005300:	a8800417 	ldw	r2,16(r21)
10005304:	10800104 	addi	r2,r2,4
10005308:	1085883a 	add	r2,r2,r2
1000530c:	1085883a 	add	r2,r2,r2
10005310:	a885883a 	add	r2,r21,r2
10005314:	11000017 	ldw	r4,0(r2)
10005318:	00081880 	call	10008188 <__hi0bits>
1000531c:	00c00804 	movi	r3,32
10005320:	1885c83a 	sub	r2,r3,r2
10005324:	00002506 	br	100053bc <_dtoa_r+0xb80>
10005328:	01800044 	movi	r6,1
1000532c:	d9800c15 	stw	r6,48(sp)
10005330:	003dec06 	br	10004ae4 <__alt_data_end+0xf8004ae4>
10005334:	d8c00817 	ldw	r3,32(sp)
10005338:	d9000517 	ldw	r4,20(sp)
1000533c:	d8000a15 	stw	zero,40(sp)
10005340:	1907c83a 	sub	r3,r3,r4
10005344:	010dc83a 	sub	r6,zero,r4
10005348:	d8c00815 	stw	r3,32(sp)
1000534c:	d9800915 	stw	r6,36(sp)
10005350:	003ded06 	br	10004b08 <__alt_data_end+0xf8004b08>
10005354:	05adc83a 	sub	r22,zero,r22
10005358:	dd800815 	stw	r22,32(sp)
1000535c:	002d883a 	mov	r22,zero
10005360:	003de406 	br	10004af4 <__alt_data_end+0xf8004af4>
10005364:	d9000517 	ldw	r4,20(sp)
10005368:	000e9840 	call	1000e984 <__floatsidf>
1000536c:	1009883a 	mov	r4,r2
10005370:	180b883a 	mov	r5,r3
10005374:	b00d883a 	mov	r6,r22
10005378:	a80f883a 	mov	r7,r21
1000537c:	000d57c0 	call	1000d57c <__eqdf2>
10005380:	103dc726 	beq	r2,zero,10004aa0 <__alt_data_end+0xf8004aa0>
10005384:	d8800517 	ldw	r2,20(sp)
10005388:	10bfffc4 	addi	r2,r2,-1
1000538c:	d8800515 	stw	r2,20(sp)
10005390:	003dc306 	br	10004aa0 <__alt_data_end+0xf8004aa0>
10005394:	dd400917 	ldw	r21,36(sp)
10005398:	dd000817 	ldw	r20,32(sp)
1000539c:	0023883a 	mov	r17,zero
100053a0:	003fa906 	br	10005248 <__alt_data_end+0xf8005248>
100053a4:	d9800317 	ldw	r6,12(sp)
100053a8:	b981670e 	bge	r23,r6,10005948 <_dtoa_r+0x110c>
100053ac:	0027883a 	mov	r19,zero
100053b0:	d8c00a17 	ldw	r3,40(sp)
100053b4:	183fd21e 	bne	r3,zero,10005300 <__alt_data_end+0xf8005300>
100053b8:	00800044 	movi	r2,1
100053bc:	1585883a 	add	r2,r2,r22
100053c0:	108007cc 	andi	r2,r2,31
100053c4:	10005f26 	beq	r2,zero,10005544 <_dtoa_r+0xd08>
100053c8:	00c00804 	movi	r3,32
100053cc:	1887c83a 	sub	r3,r3,r2
100053d0:	01000104 	movi	r4,4
100053d4:	20c2dd0e 	bge	r4,r3,10005f4c <_dtoa_r+0x1710>
100053d8:	d9000817 	ldw	r4,32(sp)
100053dc:	00c00704 	movi	r3,28
100053e0:	1885c83a 	sub	r2,r3,r2
100053e4:	2089883a 	add	r4,r4,r2
100053e8:	d9000815 	stw	r4,32(sp)
100053ec:	a0a9883a 	add	r20,r20,r2
100053f0:	b0ad883a 	add	r22,r22,r2
100053f4:	d8800817 	ldw	r2,32(sp)
100053f8:	0080050e 	bge	zero,r2,10005410 <_dtoa_r+0xbd4>
100053fc:	e00b883a 	mov	r5,fp
10005400:	8009883a 	mov	r4,r16
10005404:	100d883a 	mov	r6,r2
10005408:	00086ac0 	call	100086ac <__lshift>
1000540c:	1039883a 	mov	fp,r2
10005410:	0580050e 	bge	zero,r22,10005428 <_dtoa_r+0xbec>
10005414:	a80b883a 	mov	r5,r21
10005418:	8009883a 	mov	r4,r16
1000541c:	b00d883a 	mov	r6,r22
10005420:	00086ac0 	call	100086ac <__lshift>
10005424:	102b883a 	mov	r21,r2
10005428:	d8c00c17 	ldw	r3,48(sp)
1000542c:	1801161e 	bne	r3,zero,10005888 <_dtoa_r+0x104c>
10005430:	d8c00617 	ldw	r3,24(sp)
10005434:	00c12d0e 	bge	zero,r3,100058ec <_dtoa_r+0x10b0>
10005438:	d8c00b17 	ldw	r3,44(sp)
1000543c:	1800571e 	bne	r3,zero,1000559c <_dtoa_r+0xd60>
10005440:	dc800717 	ldw	r18,28(sp)
10005444:	dcc00617 	ldw	r19,24(sp)
10005448:	9029883a 	mov	r20,r18
1000544c:	00000206 	br	10005458 <_dtoa_r+0xc1c>
10005450:	0007f480 	call	10007f48 <__multadd>
10005454:	1039883a 	mov	fp,r2
10005458:	e009883a 	mov	r4,fp
1000545c:	a80b883a 	mov	r5,r21
10005460:	00046140 	call	10004614 <quorem>
10005464:	10800c04 	addi	r2,r2,48
10005468:	90800005 	stb	r2,0(r18)
1000546c:	94800044 	addi	r18,r18,1
10005470:	9507c83a 	sub	r3,r18,r20
10005474:	8009883a 	mov	r4,r16
10005478:	e00b883a 	mov	r5,fp
1000547c:	01800284 	movi	r6,10
10005480:	000f883a 	mov	r7,zero
10005484:	1cfff216 	blt	r3,r19,10005450 <__alt_data_end+0xf8005450>
10005488:	1011883a 	mov	r8,r2
1000548c:	d8800617 	ldw	r2,24(sp)
10005490:	00822e0e 	bge	zero,r2,10005d4c <_dtoa_r+0x1510>
10005494:	d9000717 	ldw	r4,28(sp)
10005498:	0025883a 	mov	r18,zero
1000549c:	20af883a 	add	r23,r4,r2
100054a0:	e00b883a 	mov	r5,fp
100054a4:	01800044 	movi	r6,1
100054a8:	8009883a 	mov	r4,r16
100054ac:	da001715 	stw	r8,92(sp)
100054b0:	00086ac0 	call	100086ac <__lshift>
100054b4:	1009883a 	mov	r4,r2
100054b8:	a80b883a 	mov	r5,r21
100054bc:	1039883a 	mov	fp,r2
100054c0:	00087f40 	call	100087f4 <__mcmp>
100054c4:	da001717 	ldw	r8,92(sp)
100054c8:	00816e0e 	bge	zero,r2,10005a84 <_dtoa_r+0x1248>
100054cc:	b93fffc3 	ldbu	r4,-1(r23)
100054d0:	b8bfffc4 	addi	r2,r23,-1
100054d4:	1007883a 	mov	r3,r2
100054d8:	01800e44 	movi	r6,57
100054dc:	d9c00717 	ldw	r7,28(sp)
100054e0:	00000506 	br	100054f8 <_dtoa_r+0xcbc>
100054e4:	18ffffc4 	addi	r3,r3,-1
100054e8:	38811926 	beq	r7,r2,10005950 <_dtoa_r+0x1114>
100054ec:	19000003 	ldbu	r4,0(r3)
100054f0:	102f883a 	mov	r23,r2
100054f4:	10bfffc4 	addi	r2,r2,-1
100054f8:	21403fcc 	andi	r5,r4,255
100054fc:	2940201c 	xori	r5,r5,128
10005500:	297fe004 	addi	r5,r5,-128
10005504:	29bff726 	beq	r5,r6,100054e4 <__alt_data_end+0xf80054e4>
10005508:	21000044 	addi	r4,r4,1
1000550c:	11000005 	stb	r4,0(r2)
10005510:	8009883a 	mov	r4,r16
10005514:	a80b883a 	mov	r5,r21
10005518:	0007f200 	call	10007f20 <_Bfree>
1000551c:	883e7526 	beq	r17,zero,10004ef4 <__alt_data_end+0xf8004ef4>
10005520:	90000426 	beq	r18,zero,10005534 <_dtoa_r+0xcf8>
10005524:	94400326 	beq	r18,r17,10005534 <_dtoa_r+0xcf8>
10005528:	8009883a 	mov	r4,r16
1000552c:	900b883a 	mov	r5,r18
10005530:	0007f200 	call	10007f20 <_Bfree>
10005534:	8009883a 	mov	r4,r16
10005538:	880b883a 	mov	r5,r17
1000553c:	0007f200 	call	10007f20 <_Bfree>
10005540:	003e6c06 	br	10004ef4 <__alt_data_end+0xf8004ef4>
10005544:	00800704 	movi	r2,28
10005548:	d9800817 	ldw	r6,32(sp)
1000554c:	a0a9883a 	add	r20,r20,r2
10005550:	b0ad883a 	add	r22,r22,r2
10005554:	308d883a 	add	r6,r6,r2
10005558:	d9800815 	stw	r6,32(sp)
1000555c:	003fa506 	br	100053f4 <__alt_data_end+0xf80053f4>
10005560:	013efb84 	movi	r4,-1042
10005564:	246bc83a 	sub	r21,r4,r17
10005568:	9548983a 	sll	r4,r18,r21
1000556c:	003d1806 	br	100049d0 <__alt_data_end+0xf80049d0>
10005570:	d8000c15 	stw	zero,48(sp)
10005574:	003d5b06 	br	10004ae4 <__alt_data_end+0xf8004ae4>
10005578:	880b883a 	mov	r5,r17
1000557c:	8009883a 	mov	r4,r16
10005580:	01800284 	movi	r6,10
10005584:	000f883a 	mov	r7,zero
10005588:	0007f480 	call	10007f48 <__multadd>
1000558c:	1023883a 	mov	r17,r2
10005590:	d8800d17 	ldw	r2,52(sp)
10005594:	0082550e 	bge	zero,r2,10005eec <_dtoa_r+0x16b0>
10005598:	d8800615 	stw	r2,24(sp)
1000559c:	0500050e 	bge	zero,r20,100055b4 <_dtoa_r+0xd78>
100055a0:	880b883a 	mov	r5,r17
100055a4:	8009883a 	mov	r4,r16
100055a8:	a00d883a 	mov	r6,r20
100055ac:	00086ac0 	call	100086ac <__lshift>
100055b0:	1023883a 	mov	r17,r2
100055b4:	98016a1e 	bne	r19,zero,10005b60 <_dtoa_r+0x1324>
100055b8:	8829883a 	mov	r20,r17
100055bc:	d9000617 	ldw	r4,24(sp)
100055c0:	dcc00717 	ldw	r19,28(sp)
100055c4:	9480004c 	andi	r18,r18,1
100055c8:	20bfffc4 	addi	r2,r4,-1
100055cc:	9885883a 	add	r2,r19,r2
100055d0:	d8800415 	stw	r2,16(sp)
100055d4:	dc800615 	stw	r18,24(sp)
100055d8:	e009883a 	mov	r4,fp
100055dc:	a80b883a 	mov	r5,r21
100055e0:	00046140 	call	10004614 <quorem>
100055e4:	e009883a 	mov	r4,fp
100055e8:	880b883a 	mov	r5,r17
100055ec:	102f883a 	mov	r23,r2
100055f0:	00087f40 	call	100087f4 <__mcmp>
100055f4:	8009883a 	mov	r4,r16
100055f8:	a80b883a 	mov	r5,r21
100055fc:	a00d883a 	mov	r6,r20
10005600:	102d883a 	mov	r22,r2
10005604:	00088540 	call	10008854 <__mdiff>
10005608:	1007883a 	mov	r3,r2
1000560c:	10800317 	ldw	r2,12(r2)
10005610:	bc800c04 	addi	r18,r23,48
10005614:	1000971e 	bne	r2,zero,10005874 <_dtoa_r+0x1038>
10005618:	180b883a 	mov	r5,r3
1000561c:	e009883a 	mov	r4,fp
10005620:	d8c01515 	stw	r3,84(sp)
10005624:	00087f40 	call	100087f4 <__mcmp>
10005628:	d8c01517 	ldw	r3,84(sp)
1000562c:	8009883a 	mov	r4,r16
10005630:	d8801515 	stw	r2,84(sp)
10005634:	180b883a 	mov	r5,r3
10005638:	0007f200 	call	10007f20 <_Bfree>
1000563c:	d8801517 	ldw	r2,84(sp)
10005640:	1000041e 	bne	r2,zero,10005654 <_dtoa_r+0xe18>
10005644:	d9800317 	ldw	r6,12(sp)
10005648:	3000021e 	bne	r6,zero,10005654 <_dtoa_r+0xe18>
1000564c:	d8c00617 	ldw	r3,24(sp)
10005650:	18007626 	beq	r3,zero,1000582c <_dtoa_r+0xff0>
10005654:	b0005b16 	blt	r22,zero,100057c4 <_dtoa_r+0xf88>
10005658:	b000041e 	bne	r22,zero,1000566c <_dtoa_r+0xe30>
1000565c:	d9000317 	ldw	r4,12(sp)
10005660:	2000021e 	bne	r4,zero,1000566c <_dtoa_r+0xe30>
10005664:	d8c00617 	ldw	r3,24(sp)
10005668:	18005626 	beq	r3,zero,100057c4 <_dtoa_r+0xf88>
1000566c:	00814d16 	blt	zero,r2,10005ba4 <_dtoa_r+0x1368>
10005670:	d8c00417 	ldw	r3,16(sp)
10005674:	9d800044 	addi	r22,r19,1
10005678:	9c800005 	stb	r18,0(r19)
1000567c:	b02f883a 	mov	r23,r22
10005680:	98c14c26 	beq	r19,r3,10005bb4 <_dtoa_r+0x1378>
10005684:	e00b883a 	mov	r5,fp
10005688:	8009883a 	mov	r4,r16
1000568c:	01800284 	movi	r6,10
10005690:	000f883a 	mov	r7,zero
10005694:	0007f480 	call	10007f48 <__multadd>
10005698:	1039883a 	mov	fp,r2
1000569c:	8d006d26 	beq	r17,r20,10005854 <_dtoa_r+0x1018>
100056a0:	880b883a 	mov	r5,r17
100056a4:	01800284 	movi	r6,10
100056a8:	000f883a 	mov	r7,zero
100056ac:	8009883a 	mov	r4,r16
100056b0:	0007f480 	call	10007f48 <__multadd>
100056b4:	a00b883a 	mov	r5,r20
100056b8:	8009883a 	mov	r4,r16
100056bc:	01800284 	movi	r6,10
100056c0:	000f883a 	mov	r7,zero
100056c4:	1023883a 	mov	r17,r2
100056c8:	0007f480 	call	10007f48 <__multadd>
100056cc:	1029883a 	mov	r20,r2
100056d0:	b027883a 	mov	r19,r22
100056d4:	003fc006 	br	100055d8 <__alt_data_end+0xf80055d8>
100056d8:	a005883a 	mov	r2,r20
100056dc:	003ede06 	br	10005258 <__alt_data_end+0xf8005258>
100056e0:	01000044 	movi	r4,1
100056e4:	d9000b15 	stw	r4,44(sp)
100056e8:	d9802217 	ldw	r6,136(sp)
100056ec:	0180dc0e 	bge	zero,r6,10005a60 <_dtoa_r+0x1224>
100056f0:	3023883a 	mov	r17,r6
100056f4:	d9800d15 	stw	r6,52(sp)
100056f8:	d9800615 	stw	r6,24(sp)
100056fc:	003d1e06 	br	10004b78 <__alt_data_end+0xf8004b78>
10005700:	d8800617 	ldw	r2,24(sp)
10005704:	00be3716 	blt	zero,r2,10004fe4 <__alt_data_end+0xf8004fe4>
10005708:	1000be1e 	bne	r2,zero,10005a04 <_dtoa_r+0x11c8>
1000570c:	8809883a 	mov	r4,r17
10005710:	a00b883a 	mov	r5,r20
10005714:	000d883a 	mov	r6,zero
10005718:	01d00534 	movhi	r7,16404
1000571c:	000d7c00 	call	1000d7c0 <__muldf3>
10005720:	1009883a 	mov	r4,r2
10005724:	180b883a 	mov	r5,r3
10005728:	900d883a 	mov	r6,r18
1000572c:	980f883a 	mov	r7,r19
10005730:	000d6000 	call	1000d600 <__gedf2>
10005734:	002b883a 	mov	r21,zero
10005738:	0023883a 	mov	r17,zero
1000573c:	10007a16 	blt	r2,zero,10005928 <_dtoa_r+0x10ec>
10005740:	d9002217 	ldw	r4,136(sp)
10005744:	ddc00717 	ldw	r23,28(sp)
10005748:	0108303a 	nor	r4,zero,r4
1000574c:	d9000515 	stw	r4,20(sp)
10005750:	8009883a 	mov	r4,r16
10005754:	a80b883a 	mov	r5,r21
10005758:	0007f200 	call	10007f20 <_Bfree>
1000575c:	883f751e 	bne	r17,zero,10005534 <__alt_data_end+0xf8005534>
10005760:	003de406 	br	10004ef4 <__alt_data_end+0xf8004ef4>
10005764:	e00b883a 	mov	r5,fp
10005768:	8009883a 	mov	r4,r16
1000576c:	000856c0 	call	1000856c <__pow5mult>
10005770:	1039883a 	mov	fp,r2
10005774:	003ed306 	br	100052c4 <__alt_data_end+0xf80052c4>
10005778:	903ee01e 	bne	r18,zero,100052fc <__alt_data_end+0xf80052fc>
1000577c:	00800434 	movhi	r2,16
10005780:	10bfffc4 	addi	r2,r2,-1
10005784:	9884703a 	and	r2,r19,r2
10005788:	103f081e 	bne	r2,zero,100053ac <__alt_data_end+0xf80053ac>
1000578c:	9cdffc2c 	andhi	r19,r19,32752
10005790:	983f0626 	beq	r19,zero,100053ac <__alt_data_end+0xf80053ac>
10005794:	d8800817 	ldw	r2,32(sp)
10005798:	b5800044 	addi	r22,r22,1
1000579c:	04c00044 	movi	r19,1
100057a0:	10800044 	addi	r2,r2,1
100057a4:	d8800815 	stw	r2,32(sp)
100057a8:	003f0106 	br	100053b0 <__alt_data_end+0xf80053b0>
100057ac:	d9800f17 	ldw	r6,60(sp)
100057b0:	30016826 	beq	r6,zero,10005d54 <_dtoa_r+0x1518>
100057b4:	10810cc4 	addi	r2,r2,1075
100057b8:	dd400917 	ldw	r21,36(sp)
100057bc:	dd000817 	ldw	r20,32(sp)
100057c0:	003e9906 	br	10005228 <__alt_data_end+0xf8005228>
100057c4:	9011883a 	mov	r8,r18
100057c8:	4007883a 	mov	r3,r8
100057cc:	e02d883a 	mov	r22,fp
100057d0:	0080100e 	bge	zero,r2,10005814 <_dtoa_r+0xfd8>
100057d4:	01800044 	movi	r6,1
100057d8:	8009883a 	mov	r4,r16
100057dc:	e00b883a 	mov	r5,fp
100057e0:	da001515 	stw	r8,84(sp)
100057e4:	da001715 	stw	r8,92(sp)
100057e8:	00086ac0 	call	100086ac <__lshift>
100057ec:	1009883a 	mov	r4,r2
100057f0:	a80b883a 	mov	r5,r21
100057f4:	102d883a 	mov	r22,r2
100057f8:	00087f40 	call	100087f4 <__mcmp>
100057fc:	d8c01517 	ldw	r3,84(sp)
10005800:	da001717 	ldw	r8,92(sp)
10005804:	0081a50e 	bge	zero,r2,10005e9c <_dtoa_r+0x1660>
10005808:	00800e44 	movi	r2,57
1000580c:	40817b26 	beq	r8,r2,10005dfc <_dtoa_r+0x15c0>
10005810:	40c00044 	addi	r3,r8,1
10005814:	8825883a 	mov	r18,r17
10005818:	9dc00044 	addi	r23,r19,1
1000581c:	98c00005 	stb	r3,0(r19)
10005820:	a023883a 	mov	r17,r20
10005824:	b039883a 	mov	fp,r22
10005828:	003f3906 	br	10005510 <__alt_data_end+0xf8005510>
1000582c:	00800e44 	movi	r2,57
10005830:	9011883a 	mov	r8,r18
10005834:	90817226 	beq	r18,r2,10005e00 <_dtoa_r+0x15c4>
10005838:	0580010e 	bge	zero,r22,10005840 <_dtoa_r+0x1004>
1000583c:	ba000c44 	addi	r8,r23,49
10005840:	8825883a 	mov	r18,r17
10005844:	9dc00044 	addi	r23,r19,1
10005848:	9a000005 	stb	r8,0(r19)
1000584c:	a023883a 	mov	r17,r20
10005850:	003f2f06 	br	10005510 <__alt_data_end+0xf8005510>
10005854:	880b883a 	mov	r5,r17
10005858:	8009883a 	mov	r4,r16
1000585c:	01800284 	movi	r6,10
10005860:	000f883a 	mov	r7,zero
10005864:	0007f480 	call	10007f48 <__multadd>
10005868:	1023883a 	mov	r17,r2
1000586c:	1029883a 	mov	r20,r2
10005870:	003f9706 	br	100056d0 <__alt_data_end+0xf80056d0>
10005874:	8009883a 	mov	r4,r16
10005878:	180b883a 	mov	r5,r3
1000587c:	0007f200 	call	10007f20 <_Bfree>
10005880:	00800044 	movi	r2,1
10005884:	003f7306 	br	10005654 <__alt_data_end+0xf8005654>
10005888:	e009883a 	mov	r4,fp
1000588c:	a80b883a 	mov	r5,r21
10005890:	00087f40 	call	100087f4 <__mcmp>
10005894:	103ee60e 	bge	r2,zero,10005430 <__alt_data_end+0xf8005430>
10005898:	8009883a 	mov	r4,r16
1000589c:	e00b883a 	mov	r5,fp
100058a0:	01800284 	movi	r6,10
100058a4:	000f883a 	mov	r7,zero
100058a8:	0007f480 	call	10007f48 <__multadd>
100058ac:	d9000517 	ldw	r4,20(sp)
100058b0:	d9800b17 	ldw	r6,44(sp)
100058b4:	1039883a 	mov	fp,r2
100058b8:	213fffc4 	addi	r4,r4,-1
100058bc:	d9000515 	stw	r4,20(sp)
100058c0:	303f2d1e 	bne	r6,zero,10005578 <__alt_data_end+0xf8005578>
100058c4:	d9000d17 	ldw	r4,52(sp)
100058c8:	0101780e 	bge	zero,r4,10005eac <_dtoa_r+0x1670>
100058cc:	d9000615 	stw	r4,24(sp)
100058d0:	003edb06 	br	10005440 <__alt_data_end+0xf8005440>
100058d4:	00800084 	movi	r2,2
100058d8:	30818e1e 	bne	r6,r2,10005f14 <_dtoa_r+0x16d8>
100058dc:	d8000b15 	stw	zero,44(sp)
100058e0:	003f8106 	br	100056e8 <__alt_data_end+0xf80056e8>
100058e4:	d8800717 	ldw	r2,28(sp)
100058e8:	003c0306 	br	100048f8 <__alt_data_end+0xf80048f8>
100058ec:	d9000317 	ldw	r4,12(sp)
100058f0:	00800084 	movi	r2,2
100058f4:	113ed00e 	bge	r2,r4,10005438 <__alt_data_end+0xf8005438>
100058f8:	d8c00617 	ldw	r3,24(sp)
100058fc:	183f901e 	bne	r3,zero,10005740 <__alt_data_end+0xf8005740>
10005900:	a80b883a 	mov	r5,r21
10005904:	8009883a 	mov	r4,r16
10005908:	01800144 	movi	r6,5
1000590c:	000f883a 	mov	r7,zero
10005910:	0007f480 	call	10007f48 <__multadd>
10005914:	e009883a 	mov	r4,fp
10005918:	100b883a 	mov	r5,r2
1000591c:	102b883a 	mov	r21,r2
10005920:	00087f40 	call	100087f4 <__mcmp>
10005924:	00bf860e 	bge	zero,r2,10005740 <__alt_data_end+0xf8005740>
10005928:	d9800717 	ldw	r6,28(sp)
1000592c:	00800c44 	movi	r2,49
10005930:	30800005 	stb	r2,0(r6)
10005934:	d8800517 	ldw	r2,20(sp)
10005938:	35c00044 	addi	r23,r6,1
1000593c:	10800044 	addi	r2,r2,1
10005940:	d8800515 	stw	r2,20(sp)
10005944:	003f8206 	br	10005750 <__alt_data_end+0xf8005750>
10005948:	903e981e 	bne	r18,zero,100053ac <__alt_data_end+0xf80053ac>
1000594c:	003f8b06 	br	1000577c <__alt_data_end+0xf800577c>
10005950:	d9800517 	ldw	r6,20(sp)
10005954:	d8c00717 	ldw	r3,28(sp)
10005958:	00800c44 	movi	r2,49
1000595c:	31800044 	addi	r6,r6,1
10005960:	d9800515 	stw	r6,20(sp)
10005964:	18800005 	stb	r2,0(r3)
10005968:	003ee906 	br	10005510 <__alt_data_end+0xf8005510>
1000596c:	dc000317 	ldw	r16,12(sp)
10005970:	003d6006 	br	10004ef4 <__alt_data_end+0xf8004ef4>
10005974:	8809883a 	mov	r4,r17
10005978:	000e9840 	call	1000e984 <__floatsidf>
1000597c:	a009883a 	mov	r4,r20
10005980:	a80b883a 	mov	r5,r21
10005984:	100d883a 	mov	r6,r2
10005988:	180f883a 	mov	r7,r3
1000598c:	000d7c00 	call	1000d7c0 <__muldf3>
10005990:	1009883a 	mov	r4,r2
10005994:	180b883a 	mov	r5,r3
10005998:	000d883a 	mov	r6,zero
1000599c:	01d00734 	movhi	r7,16412
100059a0:	000c3600 	call	1000c360 <__adddf3>
100059a4:	1023883a 	mov	r17,r2
100059a8:	00bf3034 	movhi	r2,64704
100059ac:	1885883a 	add	r2,r3,r2
100059b0:	d8800e15 	stw	r2,56(sp)
100059b4:	a009883a 	mov	r4,r20
100059b8:	a80b883a 	mov	r5,r21
100059bc:	000d883a 	mov	r6,zero
100059c0:	01d00534 	movhi	r7,16404
100059c4:	000e02c0 	call	1000e02c <__subdf3>
100059c8:	d9c00e17 	ldw	r7,56(sp)
100059cc:	1009883a 	mov	r4,r2
100059d0:	180b883a 	mov	r5,r3
100059d4:	880d883a 	mov	r6,r17
100059d8:	102b883a 	mov	r21,r2
100059dc:	1829883a 	mov	r20,r3
100059e0:	000d6000 	call	1000d600 <__gedf2>
100059e4:	00807716 	blt	zero,r2,10005bc4 <_dtoa_r+0x1388>
100059e8:	d8800e17 	ldw	r2,56(sp)
100059ec:	a809883a 	mov	r4,r21
100059f0:	a00b883a 	mov	r5,r20
100059f4:	11e0003c 	xorhi	r7,r2,32768
100059f8:	880d883a 	mov	r6,r17
100059fc:	000d6e00 	call	1000d6e0 <__ledf2>
10005a00:	103d6b0e 	bge	r2,zero,10004fb0 <__alt_data_end+0xf8004fb0>
10005a04:	002b883a 	mov	r21,zero
10005a08:	0023883a 	mov	r17,zero
10005a0c:	003f4c06 	br	10005740 <__alt_data_end+0xf8005740>
10005a10:	d9800917 	ldw	r6,36(sp)
10005a14:	e00b883a 	mov	r5,fp
10005a18:	8009883a 	mov	r4,r16
10005a1c:	000856c0 	call	1000856c <__pow5mult>
10005a20:	1039883a 	mov	fp,r2
10005a24:	003e2706 	br	100052c4 <__alt_data_end+0xf80052c4>
10005a28:	d8000b15 	stw	zero,44(sp)
10005a2c:	003c4906 	br	10004b54 <__alt_data_end+0xf8004b54>
10005a30:	d9000917 	ldw	r4,36(sp)
10005a34:	d9800a17 	ldw	r6,40(sp)
10005a38:	dd400915 	stw	r21,36(sp)
10005a3c:	a905c83a 	sub	r2,r21,r4
10005a40:	308d883a 	add	r6,r6,r2
10005a44:	d9800a15 	stw	r6,40(sp)
10005a48:	002b883a 	mov	r21,zero
10005a4c:	003df206 	br	10005218 <__alt_data_end+0xf8005218>
10005a50:	dc800e15 	stw	r18,56(sp)
10005a54:	982b883a 	mov	r21,r19
10005a58:	04400084 	movi	r17,2
10005a5c:	003c7406 	br	10004c30 <__alt_data_end+0xf8004c30>
10005a60:	04400044 	movi	r17,1
10005a64:	dc400d15 	stw	r17,52(sp)
10005a68:	dc400615 	stw	r17,24(sp)
10005a6c:	dc402215 	stw	r17,136(sp)
10005a70:	80001115 	stw	zero,68(r16)
10005a74:	000b883a 	mov	r5,zero
10005a78:	003c4a06 	br	10004ba4 <__alt_data_end+0xf8004ba4>
10005a7c:	3023883a 	mov	r17,r6
10005a80:	003ffb06 	br	10005a70 <__alt_data_end+0xf8005a70>
10005a84:	1000021e 	bne	r2,zero,10005a90 <_dtoa_r+0x1254>
10005a88:	4200004c 	andi	r8,r8,1
10005a8c:	403e8f1e 	bne	r8,zero,100054cc <__alt_data_end+0xf80054cc>
10005a90:	01000c04 	movi	r4,48
10005a94:	00000106 	br	10005a9c <_dtoa_r+0x1260>
10005a98:	102f883a 	mov	r23,r2
10005a9c:	b8bfffc4 	addi	r2,r23,-1
10005aa0:	10c00007 	ldb	r3,0(r2)
10005aa4:	193ffc26 	beq	r3,r4,10005a98 <__alt_data_end+0xf8005a98>
10005aa8:	003e9906 	br	10005510 <__alt_data_end+0xf8005510>
10005aac:	d9000517 	ldw	r4,20(sp)
10005ab0:	012fc83a 	sub	r23,zero,r4
10005ab4:	b800ad26 	beq	r23,zero,10005d6c <_dtoa_r+0x1530>
10005ab8:	b88003cc 	andi	r2,r23,15
10005abc:	100490fa 	slli	r2,r2,3
10005ac0:	00c40074 	movhi	r3,4097
10005ac4:	18c70104 	addi	r3,r3,7172
10005ac8:	1885883a 	add	r2,r3,r2
10005acc:	11800017 	ldw	r6,0(r2)
10005ad0:	11c00117 	ldw	r7,4(r2)
10005ad4:	b82fd13a 	srai	r23,r23,4
10005ad8:	9009883a 	mov	r4,r18
10005adc:	980b883a 	mov	r5,r19
10005ae0:	000d7c00 	call	1000d7c0 <__muldf3>
10005ae4:	1029883a 	mov	r20,r2
10005ae8:	182b883a 	mov	r21,r3
10005aec:	b800f426 	beq	r23,zero,10005ec0 <_dtoa_r+0x1684>
10005af0:	02040074 	movhi	r8,4097
10005af4:	4206f704 	addi	r8,r8,7132
10005af8:	8029883a 	mov	r20,r16
10005afc:	04400084 	movi	r17,2
10005b00:	4021883a 	mov	r16,r8
10005b04:	b980004c 	andi	r6,r23,1
10005b08:	1009883a 	mov	r4,r2
10005b0c:	b82fd07a 	srai	r23,r23,1
10005b10:	180b883a 	mov	r5,r3
10005b14:	30000426 	beq	r6,zero,10005b28 <_dtoa_r+0x12ec>
10005b18:	81800017 	ldw	r6,0(r16)
10005b1c:	81c00117 	ldw	r7,4(r16)
10005b20:	8c400044 	addi	r17,r17,1
10005b24:	000d7c00 	call	1000d7c0 <__muldf3>
10005b28:	84000204 	addi	r16,r16,8
10005b2c:	b83ff51e 	bne	r23,zero,10005b04 <__alt_data_end+0xf8005b04>
10005b30:	a021883a 	mov	r16,r20
10005b34:	182b883a 	mov	r21,r3
10005b38:	1029883a 	mov	r20,r2
10005b3c:	003c5506 	br	10004c94 <__alt_data_end+0xf8004c94>
10005b40:	d9800517 	ldw	r6,20(sp)
10005b44:	d9000717 	ldw	r4,28(sp)
10005b48:	00c00c04 	movi	r3,48
10005b4c:	31800044 	addi	r6,r6,1
10005b50:	d9800515 	stw	r6,20(sp)
10005b54:	20c00005 	stb	r3,0(r4)
10005b58:	02000c44 	movi	r8,49
10005b5c:	003da206 	br	100051e8 <__alt_data_end+0xf80051e8>
10005b60:	89400117 	ldw	r5,4(r17)
10005b64:	8009883a 	mov	r4,r16
10005b68:	0007e780 	call	10007e78 <_Balloc>
10005b6c:	89800417 	ldw	r6,16(r17)
10005b70:	11000304 	addi	r4,r2,12
10005b74:	89400304 	addi	r5,r17,12
10005b78:	31800084 	addi	r6,r6,2
10005b7c:	318d883a 	add	r6,r6,r6
10005b80:	318d883a 	add	r6,r6,r6
10005b84:	1027883a 	mov	r19,r2
10005b88:	0007ac00 	call	10007ac0 <memcpy>
10005b8c:	8009883a 	mov	r4,r16
10005b90:	980b883a 	mov	r5,r19
10005b94:	01800044 	movi	r6,1
10005b98:	00086ac0 	call	100086ac <__lshift>
10005b9c:	1029883a 	mov	r20,r2
10005ba0:	003e8606 	br	100055bc <__alt_data_end+0xf80055bc>
10005ba4:	00800e44 	movi	r2,57
10005ba8:	90809526 	beq	r18,r2,10005e00 <_dtoa_r+0x15c4>
10005bac:	92000044 	addi	r8,r18,1
10005bb0:	003f2306 	br	10005840 <__alt_data_end+0xf8005840>
10005bb4:	9011883a 	mov	r8,r18
10005bb8:	8825883a 	mov	r18,r17
10005bbc:	a023883a 	mov	r17,r20
10005bc0:	003e3706 	br	100054a0 <__alt_data_end+0xf80054a0>
10005bc4:	002b883a 	mov	r21,zero
10005bc8:	0023883a 	mov	r17,zero
10005bcc:	003f5606 	br	10005928 <__alt_data_end+0xf8005928>
10005bd0:	51bfffc4 	addi	r6,r10,-1
10005bd4:	300490fa 	slli	r2,r6,3
10005bd8:	00c40074 	movhi	r3,4097
10005bdc:	18c70104 	addi	r3,r3,7172
10005be0:	1885883a 	add	r2,r3,r2
10005be4:	d9c00e17 	ldw	r7,56(sp)
10005be8:	11000017 	ldw	r4,0(r2)
10005bec:	11400117 	ldw	r5,4(r2)
10005bf0:	d8800717 	ldw	r2,28(sp)
10005bf4:	d9801015 	stw	r6,64(sp)
10005bf8:	880d883a 	mov	r6,r17
10005bfc:	da801615 	stw	r10,88(sp)
10005c00:	15c00044 	addi	r23,r2,1
10005c04:	000d7c00 	call	1000d7c0 <__muldf3>
10005c08:	a80b883a 	mov	r5,r21
10005c0c:	a009883a 	mov	r4,r20
10005c10:	d8c01115 	stw	r3,68(sp)
10005c14:	d8800e15 	stw	r2,56(sp)
10005c18:	000e8fc0 	call	1000e8fc <__fixdfsi>
10005c1c:	1009883a 	mov	r4,r2
10005c20:	1023883a 	mov	r17,r2
10005c24:	000e9840 	call	1000e984 <__floatsidf>
10005c28:	a009883a 	mov	r4,r20
10005c2c:	a80b883a 	mov	r5,r21
10005c30:	100d883a 	mov	r6,r2
10005c34:	180f883a 	mov	r7,r3
10005c38:	000e02c0 	call	1000e02c <__subdf3>
10005c3c:	1813883a 	mov	r9,r3
10005c40:	d8c00717 	ldw	r3,28(sp)
10005c44:	8c400c04 	addi	r17,r17,48
10005c48:	1011883a 	mov	r8,r2
10005c4c:	1c400005 	stb	r17,0(r3)
10005c50:	da801617 	ldw	r10,88(sp)
10005c54:	00800044 	movi	r2,1
10005c58:	50802326 	beq	r10,r2,10005ce8 <_dtoa_r+0x14ac>
10005c5c:	d8800717 	ldw	r2,28(sp)
10005c60:	b82b883a 	mov	r21,r23
10005c64:	dc001315 	stw	r16,76(sp)
10005c68:	12a9883a 	add	r20,r2,r10
10005c6c:	4807883a 	mov	r3,r9
10005c70:	4005883a 	mov	r2,r8
10005c74:	dc801415 	stw	r18,80(sp)
10005c78:	000d883a 	mov	r6,zero
10005c7c:	01d00934 	movhi	r7,16420
10005c80:	1009883a 	mov	r4,r2
10005c84:	180b883a 	mov	r5,r3
10005c88:	000d7c00 	call	1000d7c0 <__muldf3>
10005c8c:	180b883a 	mov	r5,r3
10005c90:	1009883a 	mov	r4,r2
10005c94:	1821883a 	mov	r16,r3
10005c98:	1025883a 	mov	r18,r2
10005c9c:	000e8fc0 	call	1000e8fc <__fixdfsi>
10005ca0:	1009883a 	mov	r4,r2
10005ca4:	1023883a 	mov	r17,r2
10005ca8:	000e9840 	call	1000e984 <__floatsidf>
10005cac:	9009883a 	mov	r4,r18
10005cb0:	800b883a 	mov	r5,r16
10005cb4:	100d883a 	mov	r6,r2
10005cb8:	180f883a 	mov	r7,r3
10005cbc:	8c400c04 	addi	r17,r17,48
10005cc0:	000e02c0 	call	1000e02c <__subdf3>
10005cc4:	ad400044 	addi	r21,r21,1
10005cc8:	ac7fffc5 	stb	r17,-1(r21)
10005ccc:	ad3fea1e 	bne	r21,r20,10005c78 <__alt_data_end+0xf8005c78>
10005cd0:	1813883a 	mov	r9,r3
10005cd4:	d8c01017 	ldw	r3,64(sp)
10005cd8:	dc001317 	ldw	r16,76(sp)
10005cdc:	dc801417 	ldw	r18,80(sp)
10005ce0:	1011883a 	mov	r8,r2
10005ce4:	b8ef883a 	add	r23,r23,r3
10005ce8:	d9000e17 	ldw	r4,56(sp)
10005cec:	d9401117 	ldw	r5,68(sp)
10005cf0:	000d883a 	mov	r6,zero
10005cf4:	01cff834 	movhi	r7,16352
10005cf8:	da001715 	stw	r8,92(sp)
10005cfc:	da401515 	stw	r9,84(sp)
10005d00:	000c3600 	call	1000c360 <__adddf3>
10005d04:	da001717 	ldw	r8,92(sp)
10005d08:	da401517 	ldw	r9,84(sp)
10005d0c:	1009883a 	mov	r4,r2
10005d10:	400d883a 	mov	r6,r8
10005d14:	480f883a 	mov	r7,r9
10005d18:	180b883a 	mov	r5,r3
10005d1c:	000d6e00 	call	1000d6e0 <__ledf2>
10005d20:	da001717 	ldw	r8,92(sp)
10005d24:	da401517 	ldw	r9,84(sp)
10005d28:	10003b0e 	bge	r2,zero,10005e18 <_dtoa_r+0x15dc>
10005d2c:	d9001217 	ldw	r4,72(sp)
10005d30:	bd7fffc3 	ldbu	r21,-1(r23)
10005d34:	d9000515 	stw	r4,20(sp)
10005d38:	003d1c06 	br	100051ac <__alt_data_end+0xf80051ac>
10005d3c:	d8c00817 	ldw	r3,32(sp)
10005d40:	18a9c83a 	sub	r20,r3,r2
10005d44:	0005883a 	mov	r2,zero
10005d48:	003d3706 	br	10005228 <__alt_data_end+0xf8005228>
10005d4c:	00800044 	movi	r2,1
10005d50:	003dd006 	br	10005494 <__alt_data_end+0xf8005494>
10005d54:	d8c00217 	ldw	r3,8(sp)
10005d58:	00800d84 	movi	r2,54
10005d5c:	dd400917 	ldw	r21,36(sp)
10005d60:	10c5c83a 	sub	r2,r2,r3
10005d64:	dd000817 	ldw	r20,32(sp)
10005d68:	003d2f06 	br	10005228 <__alt_data_end+0xf8005228>
10005d6c:	9029883a 	mov	r20,r18
10005d70:	982b883a 	mov	r21,r19
10005d74:	04400084 	movi	r17,2
10005d78:	003bc606 	br	10004c94 <__alt_data_end+0xf8004c94>
10005d7c:	d8800617 	ldw	r2,24(sp)
10005d80:	103efc26 	beq	r2,zero,10005974 <__alt_data_end+0xf8005974>
10005d84:	d8c00d17 	ldw	r3,52(sp)
10005d88:	00fc890e 	bge	zero,r3,10004fb0 <__alt_data_end+0xf8004fb0>
10005d8c:	a80b883a 	mov	r5,r21
10005d90:	a009883a 	mov	r4,r20
10005d94:	000d883a 	mov	r6,zero
10005d98:	01d00934 	movhi	r7,16420
10005d9c:	000d7c00 	call	1000d7c0 <__muldf3>
10005da0:	89000044 	addi	r4,r17,1
10005da4:	1029883a 	mov	r20,r2
10005da8:	182b883a 	mov	r21,r3
10005dac:	000e9840 	call	1000e984 <__floatsidf>
10005db0:	a009883a 	mov	r4,r20
10005db4:	a80b883a 	mov	r5,r21
10005db8:	100d883a 	mov	r6,r2
10005dbc:	180f883a 	mov	r7,r3
10005dc0:	000d7c00 	call	1000d7c0 <__muldf3>
10005dc4:	1009883a 	mov	r4,r2
10005dc8:	180b883a 	mov	r5,r3
10005dcc:	000d883a 	mov	r6,zero
10005dd0:	01d00734 	movhi	r7,16412
10005dd4:	000c3600 	call	1000c360 <__adddf3>
10005dd8:	d9000517 	ldw	r4,20(sp)
10005ddc:	1023883a 	mov	r17,r2
10005de0:	00bf3034 	movhi	r2,64704
10005de4:	213fffc4 	addi	r4,r4,-1
10005de8:	1885883a 	add	r2,r3,r2
10005dec:	d9001215 	stw	r4,72(sp)
10005df0:	d8800e15 	stw	r2,56(sp)
10005df4:	da800d17 	ldw	r10,52(sp)
10005df8:	003bc306 	br	10004d08 <__alt_data_end+0xf8004d08>
10005dfc:	b039883a 	mov	fp,r22
10005e00:	01000e44 	movi	r4,57
10005e04:	8825883a 	mov	r18,r17
10005e08:	9dc00044 	addi	r23,r19,1
10005e0c:	99000005 	stb	r4,0(r19)
10005e10:	a023883a 	mov	r17,r20
10005e14:	003dae06 	br	100054d0 <__alt_data_end+0xf80054d0>
10005e18:	d9800e17 	ldw	r6,56(sp)
10005e1c:	d9c01117 	ldw	r7,68(sp)
10005e20:	0009883a 	mov	r4,zero
10005e24:	014ff834 	movhi	r5,16352
10005e28:	da001715 	stw	r8,92(sp)
10005e2c:	da401515 	stw	r9,84(sp)
10005e30:	000e02c0 	call	1000e02c <__subdf3>
10005e34:	da001717 	ldw	r8,92(sp)
10005e38:	da401517 	ldw	r9,84(sp)
10005e3c:	1009883a 	mov	r4,r2
10005e40:	180b883a 	mov	r5,r3
10005e44:	400d883a 	mov	r6,r8
10005e48:	480f883a 	mov	r7,r9
10005e4c:	000d6000 	call	1000d600 <__gedf2>
10005e50:	00bc570e 	bge	zero,r2,10004fb0 <__alt_data_end+0xf8004fb0>
10005e54:	01000c04 	movi	r4,48
10005e58:	00000106 	br	10005e60 <_dtoa_r+0x1624>
10005e5c:	102f883a 	mov	r23,r2
10005e60:	b8bfffc4 	addi	r2,r23,-1
10005e64:	10c00007 	ldb	r3,0(r2)
10005e68:	193ffc26 	beq	r3,r4,10005e5c <__alt_data_end+0xf8005e5c>
10005e6c:	d9801217 	ldw	r6,72(sp)
10005e70:	d9800515 	stw	r6,20(sp)
10005e74:	003c1f06 	br	10004ef4 <__alt_data_end+0xf8004ef4>
10005e78:	d8801217 	ldw	r2,72(sp)
10005e7c:	dc001117 	ldw	r16,68(sp)
10005e80:	d8800515 	stw	r2,20(sp)
10005e84:	003cc906 	br	100051ac <__alt_data_end+0xf80051ac>
10005e88:	dd801317 	ldw	r22,76(sp)
10005e8c:	dc001117 	ldw	r16,68(sp)
10005e90:	dcc01417 	ldw	r19,80(sp)
10005e94:	dc801017 	ldw	r18,64(sp)
10005e98:	003c4506 	br	10004fb0 <__alt_data_end+0xf8004fb0>
10005e9c:	103e5d1e 	bne	r2,zero,10005814 <__alt_data_end+0xf8005814>
10005ea0:	4080004c 	andi	r2,r8,1
10005ea4:	103e5b26 	beq	r2,zero,10005814 <__alt_data_end+0xf8005814>
10005ea8:	003e5706 	br	10005808 <__alt_data_end+0xf8005808>
10005eac:	d8c00317 	ldw	r3,12(sp)
10005eb0:	00800084 	movi	r2,2
10005eb4:	10c00a16 	blt	r2,r3,10005ee0 <_dtoa_r+0x16a4>
10005eb8:	d9000d17 	ldw	r4,52(sp)
10005ebc:	003e8306 	br	100058cc <__alt_data_end+0xf80058cc>
10005ec0:	04400084 	movi	r17,2
10005ec4:	003b7306 	br	10004c94 <__alt_data_end+0xf8004c94>
10005ec8:	d9801217 	ldw	r6,72(sp)
10005ecc:	d9800515 	stw	r6,20(sp)
10005ed0:	003cb606 	br	100051ac <__alt_data_end+0xf80051ac>
10005ed4:	d9001217 	ldw	r4,72(sp)
10005ed8:	d9000515 	stw	r4,20(sp)
10005edc:	003c0506 	br	10004ef4 <__alt_data_end+0xf8004ef4>
10005ee0:	d9800d17 	ldw	r6,52(sp)
10005ee4:	d9800615 	stw	r6,24(sp)
10005ee8:	003e8306 	br	100058f8 <__alt_data_end+0xf80058f8>
10005eec:	d9800317 	ldw	r6,12(sp)
10005ef0:	00800084 	movi	r2,2
10005ef4:	11800216 	blt	r2,r6,10005f00 <_dtoa_r+0x16c4>
10005ef8:	d8800d17 	ldw	r2,52(sp)
10005efc:	003da606 	br	10005598 <__alt_data_end+0xf8005598>
10005f00:	d8800d17 	ldw	r2,52(sp)
10005f04:	d8800615 	stw	r2,24(sp)
10005f08:	003e7b06 	br	100058f8 <__alt_data_end+0xf80058f8>
10005f0c:	05000044 	movi	r20,1
10005f10:	003b0506 	br	10004b28 <__alt_data_end+0xf8004b28>
10005f14:	8009883a 	mov	r4,r16
10005f18:	80001115 	stw	zero,68(r16)
10005f1c:	000b883a 	mov	r5,zero
10005f20:	0007e780 	call	10007e78 <_Balloc>
10005f24:	d8800715 	stw	r2,28(sp)
10005f28:	d8c00717 	ldw	r3,28(sp)
10005f2c:	00bfffc4 	movi	r2,-1
10005f30:	01000044 	movi	r4,1
10005f34:	d8800615 	stw	r2,24(sp)
10005f38:	80c01015 	stw	r3,64(r16)
10005f3c:	d9000b15 	stw	r4,44(sp)
10005f40:	d8002215 	stw	zero,136(sp)
10005f44:	d8800d15 	stw	r2,52(sp)
10005f48:	003c1906 	br	10004fb0 <__alt_data_end+0xf8004fb0>
10005f4c:	193d2926 	beq	r3,r4,100053f4 <__alt_data_end+0xf80053f4>
10005f50:	00c00f04 	movi	r3,60
10005f54:	1885c83a 	sub	r2,r3,r2
10005f58:	003d7b06 	br	10005548 <__alt_data_end+0xf8005548>
10005f5c:	000b883a 	mov	r5,zero
10005f60:	003b1006 	br	10004ba4 <__alt_data_end+0xf8004ba4>

10005f64 <_fflush_r>:
10005f64:	defffb04 	addi	sp,sp,-20
10005f68:	dcc00315 	stw	r19,12(sp)
10005f6c:	dc000015 	stw	r16,0(sp)
10005f70:	dfc00415 	stw	ra,16(sp)
10005f74:	dc800215 	stw	r18,8(sp)
10005f78:	dc400115 	stw	r17,4(sp)
10005f7c:	2027883a 	mov	r19,r4
10005f80:	2821883a 	mov	r16,r5
10005f84:	20000226 	beq	r4,zero,10005f90 <_fflush_r+0x2c>
10005f88:	20800e17 	ldw	r2,56(r4)
10005f8c:	10005326 	beq	r2,zero,100060dc <_fflush_r+0x178>
10005f90:	8080030b 	ldhu	r2,12(r16)
10005f94:	10ffffcc 	andi	r3,r2,65535
10005f98:	18e0001c 	xori	r3,r3,32768
10005f9c:	18e00004 	addi	r3,r3,-32768
10005fa0:	18002c26 	beq	r3,zero,10006054 <_fflush_r+0xf0>
10005fa4:	10c0020c 	andi	r3,r2,8
10005fa8:	1800321e 	bne	r3,zero,10006074 <_fflush_r+0x110>
10005fac:	80c00117 	ldw	r3,4(r16)
10005fb0:	10820014 	ori	r2,r2,2048
10005fb4:	8080030d 	sth	r2,12(r16)
10005fb8:	00c0570e 	bge	zero,r3,10006118 <_fflush_r+0x1b4>
10005fbc:	82000a17 	ldw	r8,40(r16)
10005fc0:	40002426 	beq	r8,zero,10006054 <_fflush_r+0xf0>
10005fc4:	9c400017 	ldw	r17,0(r19)
10005fc8:	10c4000c 	andi	r3,r2,4096
10005fcc:	98000015 	stw	zero,0(r19)
10005fd0:	18004626 	beq	r3,zero,100060ec <_fflush_r+0x188>
10005fd4:	81801417 	ldw	r6,80(r16)
10005fd8:	10c0010c 	andi	r3,r2,4
10005fdc:	18000626 	beq	r3,zero,10005ff8 <_fflush_r+0x94>
10005fe0:	80c00117 	ldw	r3,4(r16)
10005fe4:	80800c17 	ldw	r2,48(r16)
10005fe8:	30cdc83a 	sub	r6,r6,r3
10005fec:	10000226 	beq	r2,zero,10005ff8 <_fflush_r+0x94>
10005ff0:	80800f17 	ldw	r2,60(r16)
10005ff4:	308dc83a 	sub	r6,r6,r2
10005ff8:	81400717 	ldw	r5,28(r16)
10005ffc:	9809883a 	mov	r4,r19
10006000:	000f883a 	mov	r7,zero
10006004:	403ee83a 	callr	r8
10006008:	00ffffc4 	movi	r3,-1
1000600c:	10c04526 	beq	r2,r3,10006124 <_fflush_r+0x1c0>
10006010:	80c0030b 	ldhu	r3,12(r16)
10006014:	81000417 	ldw	r4,16(r16)
10006018:	80000115 	stw	zero,4(r16)
1000601c:	197dffcc 	andi	r5,r3,63487
10006020:	8140030d 	sth	r5,12(r16)
10006024:	81000015 	stw	r4,0(r16)
10006028:	18c4000c 	andi	r3,r3,4096
1000602c:	18000126 	beq	r3,zero,10006034 <_fflush_r+0xd0>
10006030:	80801415 	stw	r2,80(r16)
10006034:	81400c17 	ldw	r5,48(r16)
10006038:	9c400015 	stw	r17,0(r19)
1000603c:	28000526 	beq	r5,zero,10006054 <_fflush_r+0xf0>
10006040:	80801004 	addi	r2,r16,64
10006044:	28800226 	beq	r5,r2,10006050 <_fflush_r+0xec>
10006048:	9809883a 	mov	r4,r19
1000604c:	00066940 	call	10006694 <_free_r>
10006050:	80000c15 	stw	zero,48(r16)
10006054:	0005883a 	mov	r2,zero
10006058:	dfc00417 	ldw	ra,16(sp)
1000605c:	dcc00317 	ldw	r19,12(sp)
10006060:	dc800217 	ldw	r18,8(sp)
10006064:	dc400117 	ldw	r17,4(sp)
10006068:	dc000017 	ldw	r16,0(sp)
1000606c:	dec00504 	addi	sp,sp,20
10006070:	f800283a 	ret
10006074:	84800417 	ldw	r18,16(r16)
10006078:	903ff626 	beq	r18,zero,10006054 <__alt_data_end+0xf8006054>
1000607c:	84400017 	ldw	r17,0(r16)
10006080:	108000cc 	andi	r2,r2,3
10006084:	84800015 	stw	r18,0(r16)
10006088:	8ca3c83a 	sub	r17,r17,r18
1000608c:	10001526 	beq	r2,zero,100060e4 <_fflush_r+0x180>
10006090:	0005883a 	mov	r2,zero
10006094:	80800215 	stw	r2,8(r16)
10006098:	04400316 	blt	zero,r17,100060a8 <_fflush_r+0x144>
1000609c:	003fed06 	br	10006054 <__alt_data_end+0xf8006054>
100060a0:	90a5883a 	add	r18,r18,r2
100060a4:	047feb0e 	bge	zero,r17,10006054 <__alt_data_end+0xf8006054>
100060a8:	80800917 	ldw	r2,36(r16)
100060ac:	81400717 	ldw	r5,28(r16)
100060b0:	880f883a 	mov	r7,r17
100060b4:	900d883a 	mov	r6,r18
100060b8:	9809883a 	mov	r4,r19
100060bc:	103ee83a 	callr	r2
100060c0:	88a3c83a 	sub	r17,r17,r2
100060c4:	00bff616 	blt	zero,r2,100060a0 <__alt_data_end+0xf80060a0>
100060c8:	80c0030b 	ldhu	r3,12(r16)
100060cc:	00bfffc4 	movi	r2,-1
100060d0:	18c01014 	ori	r3,r3,64
100060d4:	80c0030d 	sth	r3,12(r16)
100060d8:	003fdf06 	br	10006058 <__alt_data_end+0xf8006058>
100060dc:	00065200 	call	10006520 <__sinit>
100060e0:	003fab06 	br	10005f90 <__alt_data_end+0xf8005f90>
100060e4:	80800517 	ldw	r2,20(r16)
100060e8:	003fea06 	br	10006094 <__alt_data_end+0xf8006094>
100060ec:	81400717 	ldw	r5,28(r16)
100060f0:	000d883a 	mov	r6,zero
100060f4:	9809883a 	mov	r4,r19
100060f8:	01c00044 	movi	r7,1
100060fc:	403ee83a 	callr	r8
10006100:	100d883a 	mov	r6,r2
10006104:	00bfffc4 	movi	r2,-1
10006108:	30801326 	beq	r6,r2,10006158 <_fflush_r+0x1f4>
1000610c:	8080030b 	ldhu	r2,12(r16)
10006110:	82000a17 	ldw	r8,40(r16)
10006114:	003fb006 	br	10005fd8 <__alt_data_end+0xf8005fd8>
10006118:	80c00f17 	ldw	r3,60(r16)
1000611c:	00ffa716 	blt	zero,r3,10005fbc <__alt_data_end+0xf8005fbc>
10006120:	003fcc06 	br	10006054 <__alt_data_end+0xf8006054>
10006124:	98c00017 	ldw	r3,0(r19)
10006128:	183fb926 	beq	r3,zero,10006010 <__alt_data_end+0xf8006010>
1000612c:	01000744 	movi	r4,29
10006130:	19000226 	beq	r3,r4,1000613c <_fflush_r+0x1d8>
10006134:	01000584 	movi	r4,22
10006138:	1900101e 	bne	r3,r4,1000617c <_fflush_r+0x218>
1000613c:	8080030b 	ldhu	r2,12(r16)
10006140:	80c00417 	ldw	r3,16(r16)
10006144:	80000115 	stw	zero,4(r16)
10006148:	10bdffcc 	andi	r2,r2,63487
1000614c:	8080030d 	sth	r2,12(r16)
10006150:	80c00015 	stw	r3,0(r16)
10006154:	003fb706 	br	10006034 <__alt_data_end+0xf8006034>
10006158:	98800017 	ldw	r2,0(r19)
1000615c:	103feb26 	beq	r2,zero,1000610c <__alt_data_end+0xf800610c>
10006160:	00c00744 	movi	r3,29
10006164:	10c00226 	beq	r2,r3,10006170 <_fflush_r+0x20c>
10006168:	00c00584 	movi	r3,22
1000616c:	10ffd61e 	bne	r2,r3,100060c8 <__alt_data_end+0xf80060c8>
10006170:	9c400015 	stw	r17,0(r19)
10006174:	0005883a 	mov	r2,zero
10006178:	003fb706 	br	10006058 <__alt_data_end+0xf8006058>
1000617c:	80c0030b 	ldhu	r3,12(r16)
10006180:	18c01014 	ori	r3,r3,64
10006184:	80c0030d 	sth	r3,12(r16)
10006188:	003fb306 	br	10006058 <__alt_data_end+0xf8006058>

1000618c <fflush>:
1000618c:	20000526 	beq	r4,zero,100061a4 <fflush+0x18>
10006190:	00840074 	movhi	r2,4097
10006194:	108e3404 	addi	r2,r2,14544
10006198:	200b883a 	mov	r5,r4
1000619c:	11000017 	ldw	r4,0(r2)
100061a0:	0005f641 	jmpi	10005f64 <_fflush_r>
100061a4:	00840074 	movhi	r2,4097
100061a8:	108e3304 	addi	r2,r2,14540
100061ac:	11000017 	ldw	r4,0(r2)
100061b0:	01440034 	movhi	r5,4096
100061b4:	2957d904 	addi	r5,r5,24420
100061b8:	0006ee01 	jmpi	10006ee0 <_fwalk_reent>

100061bc <__fp_lock>:
100061bc:	0005883a 	mov	r2,zero
100061c0:	f800283a 	ret

100061c4 <__fp_unlock>:
100061c4:	0005883a 	mov	r2,zero
100061c8:	f800283a 	ret

100061cc <_cleanup_r>:
100061cc:	01440074 	movhi	r5,4097
100061d0:	296bbb04 	addi	r5,r5,-20756
100061d4:	0006e281 	jmpi	10006e28 <_fwalk>

100061d8 <__sinit.part.1>:
100061d8:	defff604 	addi	sp,sp,-40
100061dc:	00c40034 	movhi	r3,4096
100061e0:	dfc00915 	stw	ra,36(sp)
100061e4:	df000815 	stw	fp,32(sp)
100061e8:	ddc00715 	stw	r23,28(sp)
100061ec:	dd800615 	stw	r22,24(sp)
100061f0:	dd400515 	stw	r21,20(sp)
100061f4:	dd000415 	stw	r20,16(sp)
100061f8:	dcc00315 	stw	r19,12(sp)
100061fc:	dc800215 	stw	r18,8(sp)
10006200:	dc400115 	stw	r17,4(sp)
10006204:	dc000015 	stw	r16,0(sp)
10006208:	18d87304 	addi	r3,r3,25036
1000620c:	24000117 	ldw	r16,4(r4)
10006210:	20c00f15 	stw	r3,60(r4)
10006214:	07000044 	movi	fp,1
10006218:	00c000c4 	movi	r3,3
1000621c:	2080bb04 	addi	r2,r4,748
10006220:	20c0b915 	stw	r3,740(r4)
10006224:	27000e15 	stw	fp,56(r4)
10006228:	2080ba15 	stw	r2,744(r4)
1000622c:	2000b815 	stw	zero,736(r4)
10006230:	05c00204 	movi	r23,8
10006234:	00800104 	movi	r2,4
10006238:	2025883a 	mov	r18,r4
1000623c:	b80d883a 	mov	r6,r23
10006240:	81001704 	addi	r4,r16,92
10006244:	000b883a 	mov	r5,zero
10006248:	80000015 	stw	zero,0(r16)
1000624c:	80000115 	stw	zero,4(r16)
10006250:	80000215 	stw	zero,8(r16)
10006254:	8080030d 	sth	r2,12(r16)
10006258:	80001915 	stw	zero,100(r16)
1000625c:	8000038d 	sth	zero,14(r16)
10006260:	80000415 	stw	zero,16(r16)
10006264:	80000515 	stw	zero,20(r16)
10006268:	80000615 	stw	zero,24(r16)
1000626c:	0007d540 	call	10007d54 <memset>
10006270:	05840074 	movhi	r22,4097
10006274:	94400217 	ldw	r17,8(r18)
10006278:	05440074 	movhi	r21,4097
1000627c:	05040074 	movhi	r20,4097
10006280:	04c40074 	movhi	r19,4097
10006284:	b5a54a04 	addi	r22,r22,-27352
10006288:	ad656104 	addi	r21,r21,-27260
1000628c:	a5258004 	addi	r20,r20,-27136
10006290:	9ce59704 	addi	r19,r19,-27044
10006294:	85800815 	stw	r22,32(r16)
10006298:	85400915 	stw	r21,36(r16)
1000629c:	85000a15 	stw	r20,40(r16)
100062a0:	84c00b15 	stw	r19,44(r16)
100062a4:	84000715 	stw	r16,28(r16)
100062a8:	00800284 	movi	r2,10
100062ac:	89001704 	addi	r4,r17,92
100062b0:	b80d883a 	mov	r6,r23
100062b4:	000b883a 	mov	r5,zero
100062b8:	88000015 	stw	zero,0(r17)
100062bc:	88000115 	stw	zero,4(r17)
100062c0:	88000215 	stw	zero,8(r17)
100062c4:	8880030d 	sth	r2,12(r17)
100062c8:	88001915 	stw	zero,100(r17)
100062cc:	8f00038d 	sth	fp,14(r17)
100062d0:	88000415 	stw	zero,16(r17)
100062d4:	88000515 	stw	zero,20(r17)
100062d8:	88000615 	stw	zero,24(r17)
100062dc:	0007d540 	call	10007d54 <memset>
100062e0:	94000317 	ldw	r16,12(r18)
100062e4:	00800484 	movi	r2,18
100062e8:	8c400715 	stw	r17,28(r17)
100062ec:	8d800815 	stw	r22,32(r17)
100062f0:	8d400915 	stw	r21,36(r17)
100062f4:	8d000a15 	stw	r20,40(r17)
100062f8:	8cc00b15 	stw	r19,44(r17)
100062fc:	8080030d 	sth	r2,12(r16)
10006300:	00800084 	movi	r2,2
10006304:	80000015 	stw	zero,0(r16)
10006308:	80000115 	stw	zero,4(r16)
1000630c:	80000215 	stw	zero,8(r16)
10006310:	80001915 	stw	zero,100(r16)
10006314:	8080038d 	sth	r2,14(r16)
10006318:	80000415 	stw	zero,16(r16)
1000631c:	80000515 	stw	zero,20(r16)
10006320:	80000615 	stw	zero,24(r16)
10006324:	81001704 	addi	r4,r16,92
10006328:	000b883a 	mov	r5,zero
1000632c:	b80d883a 	mov	r6,r23
10006330:	0007d540 	call	10007d54 <memset>
10006334:	84000715 	stw	r16,28(r16)
10006338:	85800815 	stw	r22,32(r16)
1000633c:	85400915 	stw	r21,36(r16)
10006340:	85000a15 	stw	r20,40(r16)
10006344:	84c00b15 	stw	r19,44(r16)
10006348:	dfc00917 	ldw	ra,36(sp)
1000634c:	df000817 	ldw	fp,32(sp)
10006350:	ddc00717 	ldw	r23,28(sp)
10006354:	dd800617 	ldw	r22,24(sp)
10006358:	dd400517 	ldw	r21,20(sp)
1000635c:	dd000417 	ldw	r20,16(sp)
10006360:	dcc00317 	ldw	r19,12(sp)
10006364:	dc800217 	ldw	r18,8(sp)
10006368:	dc400117 	ldw	r17,4(sp)
1000636c:	dc000017 	ldw	r16,0(sp)
10006370:	dec00a04 	addi	sp,sp,40
10006374:	f800283a 	ret

10006378 <__sfmoreglue>:
10006378:	defffc04 	addi	sp,sp,-16
1000637c:	dc800215 	stw	r18,8(sp)
10006380:	2825883a 	mov	r18,r5
10006384:	dc000015 	stw	r16,0(sp)
10006388:	01401a04 	movi	r5,104
1000638c:	2021883a 	mov	r16,r4
10006390:	9009883a 	mov	r4,r18
10006394:	dfc00315 	stw	ra,12(sp)
10006398:	dc400115 	stw	r17,4(sp)
1000639c:	000c3380 	call	1000c338 <__mulsi3>
100063a0:	8009883a 	mov	r4,r16
100063a4:	11400304 	addi	r5,r2,12
100063a8:	1023883a 	mov	r17,r2
100063ac:	00072300 	call	10007230 <_malloc_r>
100063b0:	1021883a 	mov	r16,r2
100063b4:	10000726 	beq	r2,zero,100063d4 <__sfmoreglue+0x5c>
100063b8:	11000304 	addi	r4,r2,12
100063bc:	10000015 	stw	zero,0(r2)
100063c0:	14800115 	stw	r18,4(r2)
100063c4:	11000215 	stw	r4,8(r2)
100063c8:	000b883a 	mov	r5,zero
100063cc:	880d883a 	mov	r6,r17
100063d0:	0007d540 	call	10007d54 <memset>
100063d4:	8005883a 	mov	r2,r16
100063d8:	dfc00317 	ldw	ra,12(sp)
100063dc:	dc800217 	ldw	r18,8(sp)
100063e0:	dc400117 	ldw	r17,4(sp)
100063e4:	dc000017 	ldw	r16,0(sp)
100063e8:	dec00404 	addi	sp,sp,16
100063ec:	f800283a 	ret

100063f0 <__sfp>:
100063f0:	00840074 	movhi	r2,4097
100063f4:	defffb04 	addi	sp,sp,-20
100063f8:	108e3304 	addi	r2,r2,14540
100063fc:	dc800215 	stw	r18,8(sp)
10006400:	14800017 	ldw	r18,0(r2)
10006404:	dcc00315 	stw	r19,12(sp)
10006408:	dfc00415 	stw	ra,16(sp)
1000640c:	90800e17 	ldw	r2,56(r18)
10006410:	dc400115 	stw	r17,4(sp)
10006414:	dc000015 	stw	r16,0(sp)
10006418:	2027883a 	mov	r19,r4
1000641c:	1000021e 	bne	r2,zero,10006428 <__sfp+0x38>
10006420:	9009883a 	mov	r4,r18
10006424:	00061d80 	call	100061d8 <__sinit.part.1>
10006428:	9480b804 	addi	r18,r18,736
1000642c:	047fffc4 	movi	r17,-1
10006430:	91400117 	ldw	r5,4(r18)
10006434:	94000217 	ldw	r16,8(r18)
10006438:	297fffc4 	addi	r5,r5,-1
1000643c:	28000a16 	blt	r5,zero,10006468 <__sfp+0x78>
10006440:	8080030f 	ldh	r2,12(r16)
10006444:	10000c26 	beq	r2,zero,10006478 <__sfp+0x88>
10006448:	80c01d04 	addi	r3,r16,116
1000644c:	00000206 	br	10006458 <__sfp+0x68>
10006450:	18bfe60f 	ldh	r2,-104(r3)
10006454:	10000826 	beq	r2,zero,10006478 <__sfp+0x88>
10006458:	297fffc4 	addi	r5,r5,-1
1000645c:	1c3ffd04 	addi	r16,r3,-12
10006460:	18c01a04 	addi	r3,r3,104
10006464:	2c7ffa1e 	bne	r5,r17,10006450 <__alt_data_end+0xf8006450>
10006468:	90800017 	ldw	r2,0(r18)
1000646c:	10001d26 	beq	r2,zero,100064e4 <__sfp+0xf4>
10006470:	1025883a 	mov	r18,r2
10006474:	003fee06 	br	10006430 <__alt_data_end+0xf8006430>
10006478:	00bfffc4 	movi	r2,-1
1000647c:	8080038d 	sth	r2,14(r16)
10006480:	00800044 	movi	r2,1
10006484:	8080030d 	sth	r2,12(r16)
10006488:	80001915 	stw	zero,100(r16)
1000648c:	80000015 	stw	zero,0(r16)
10006490:	80000215 	stw	zero,8(r16)
10006494:	80000115 	stw	zero,4(r16)
10006498:	80000415 	stw	zero,16(r16)
1000649c:	80000515 	stw	zero,20(r16)
100064a0:	80000615 	stw	zero,24(r16)
100064a4:	81001704 	addi	r4,r16,92
100064a8:	000b883a 	mov	r5,zero
100064ac:	01800204 	movi	r6,8
100064b0:	0007d540 	call	10007d54 <memset>
100064b4:	8005883a 	mov	r2,r16
100064b8:	80000c15 	stw	zero,48(r16)
100064bc:	80000d15 	stw	zero,52(r16)
100064c0:	80001115 	stw	zero,68(r16)
100064c4:	80001215 	stw	zero,72(r16)
100064c8:	dfc00417 	ldw	ra,16(sp)
100064cc:	dcc00317 	ldw	r19,12(sp)
100064d0:	dc800217 	ldw	r18,8(sp)
100064d4:	dc400117 	ldw	r17,4(sp)
100064d8:	dc000017 	ldw	r16,0(sp)
100064dc:	dec00504 	addi	sp,sp,20
100064e0:	f800283a 	ret
100064e4:	9809883a 	mov	r4,r19
100064e8:	01400104 	movi	r5,4
100064ec:	00063780 	call	10006378 <__sfmoreglue>
100064f0:	90800015 	stw	r2,0(r18)
100064f4:	103fde1e 	bne	r2,zero,10006470 <__alt_data_end+0xf8006470>
100064f8:	00800304 	movi	r2,12
100064fc:	98800015 	stw	r2,0(r19)
10006500:	0005883a 	mov	r2,zero
10006504:	003ff006 	br	100064c8 <__alt_data_end+0xf80064c8>

10006508 <_cleanup>:
10006508:	00840074 	movhi	r2,4097
1000650c:	108e3304 	addi	r2,r2,14540
10006510:	11000017 	ldw	r4,0(r2)
10006514:	01440074 	movhi	r5,4097
10006518:	296bbb04 	addi	r5,r5,-20756
1000651c:	0006e281 	jmpi	10006e28 <_fwalk>

10006520 <__sinit>:
10006520:	20800e17 	ldw	r2,56(r4)
10006524:	10000126 	beq	r2,zero,1000652c <__sinit+0xc>
10006528:	f800283a 	ret
1000652c:	00061d81 	jmpi	100061d8 <__sinit.part.1>

10006530 <__sfp_lock_acquire>:
10006530:	f800283a 	ret

10006534 <__sfp_lock_release>:
10006534:	f800283a 	ret

10006538 <__sinit_lock_acquire>:
10006538:	f800283a 	ret

1000653c <__sinit_lock_release>:
1000653c:	f800283a 	ret

10006540 <__fp_lock_all>:
10006540:	00840074 	movhi	r2,4097
10006544:	108e3404 	addi	r2,r2,14544
10006548:	11000017 	ldw	r4,0(r2)
1000654c:	01440034 	movhi	r5,4096
10006550:	29586f04 	addi	r5,r5,25020
10006554:	0006e281 	jmpi	10006e28 <_fwalk>

10006558 <__fp_unlock_all>:
10006558:	00840074 	movhi	r2,4097
1000655c:	108e3404 	addi	r2,r2,14544
10006560:	11000017 	ldw	r4,0(r2)
10006564:	01440034 	movhi	r5,4096
10006568:	29587104 	addi	r5,r5,25028
1000656c:	0006e281 	jmpi	10006e28 <_fwalk>

10006570 <_malloc_trim_r>:
10006570:	defffb04 	addi	sp,sp,-20
10006574:	dcc00315 	stw	r19,12(sp)
10006578:	04c40074 	movhi	r19,4097
1000657c:	dc800215 	stw	r18,8(sp)
10006580:	dc400115 	stw	r17,4(sp)
10006584:	dc000015 	stw	r16,0(sp)
10006588:	dfc00415 	stw	ra,16(sp)
1000658c:	2821883a 	mov	r16,r5
10006590:	9cc8af04 	addi	r19,r19,8892
10006594:	2025883a 	mov	r18,r4
10006598:	000f13c0 	call	1000f13c <__malloc_lock>
1000659c:	98800217 	ldw	r2,8(r19)
100065a0:	14400117 	ldw	r17,4(r2)
100065a4:	00bfff04 	movi	r2,-4
100065a8:	88a2703a 	and	r17,r17,r2
100065ac:	8c21c83a 	sub	r16,r17,r16
100065b0:	8403fbc4 	addi	r16,r16,4079
100065b4:	8020d33a 	srli	r16,r16,12
100065b8:	0083ffc4 	movi	r2,4095
100065bc:	843fffc4 	addi	r16,r16,-1
100065c0:	8020933a 	slli	r16,r16,12
100065c4:	1400060e 	bge	r2,r16,100065e0 <_malloc_trim_r+0x70>
100065c8:	9009883a 	mov	r4,r18
100065cc:	000b883a 	mov	r5,zero
100065d0:	00094d40 	call	100094d4 <_sbrk_r>
100065d4:	98c00217 	ldw	r3,8(r19)
100065d8:	1c47883a 	add	r3,r3,r17
100065dc:	10c00a26 	beq	r2,r3,10006608 <_malloc_trim_r+0x98>
100065e0:	9009883a 	mov	r4,r18
100065e4:	000f15c0 	call	1000f15c <__malloc_unlock>
100065e8:	0005883a 	mov	r2,zero
100065ec:	dfc00417 	ldw	ra,16(sp)
100065f0:	dcc00317 	ldw	r19,12(sp)
100065f4:	dc800217 	ldw	r18,8(sp)
100065f8:	dc400117 	ldw	r17,4(sp)
100065fc:	dc000017 	ldw	r16,0(sp)
10006600:	dec00504 	addi	sp,sp,20
10006604:	f800283a 	ret
10006608:	9009883a 	mov	r4,r18
1000660c:	040bc83a 	sub	r5,zero,r16
10006610:	00094d40 	call	100094d4 <_sbrk_r>
10006614:	00ffffc4 	movi	r3,-1
10006618:	10c00d26 	beq	r2,r3,10006650 <_malloc_trim_r+0xe0>
1000661c:	00c40074 	movhi	r3,4097
10006620:	18d50c04 	addi	r3,r3,21552
10006624:	18800017 	ldw	r2,0(r3)
10006628:	99000217 	ldw	r4,8(r19)
1000662c:	8c23c83a 	sub	r17,r17,r16
10006630:	8c400054 	ori	r17,r17,1
10006634:	1421c83a 	sub	r16,r2,r16
10006638:	24400115 	stw	r17,4(r4)
1000663c:	9009883a 	mov	r4,r18
10006640:	1c000015 	stw	r16,0(r3)
10006644:	000f15c0 	call	1000f15c <__malloc_unlock>
10006648:	00800044 	movi	r2,1
1000664c:	003fe706 	br	100065ec <__alt_data_end+0xf80065ec>
10006650:	9009883a 	mov	r4,r18
10006654:	000b883a 	mov	r5,zero
10006658:	00094d40 	call	100094d4 <_sbrk_r>
1000665c:	99000217 	ldw	r4,8(r19)
10006660:	014003c4 	movi	r5,15
10006664:	1107c83a 	sub	r3,r2,r4
10006668:	28ffdd0e 	bge	r5,r3,100065e0 <__alt_data_end+0xf80065e0>
1000666c:	01440074 	movhi	r5,4097
10006670:	294e3604 	addi	r5,r5,14552
10006674:	29400017 	ldw	r5,0(r5)
10006678:	18c00054 	ori	r3,r3,1
1000667c:	20c00115 	stw	r3,4(r4)
10006680:	00c40074 	movhi	r3,4097
10006684:	1145c83a 	sub	r2,r2,r5
10006688:	18d50c04 	addi	r3,r3,21552
1000668c:	18800015 	stw	r2,0(r3)
10006690:	003fd306 	br	100065e0 <__alt_data_end+0xf80065e0>

10006694 <_free_r>:
10006694:	28004c26 	beq	r5,zero,100067c8 <_free_r+0x134>
10006698:	defffd04 	addi	sp,sp,-12
1000669c:	dc400115 	stw	r17,4(sp)
100066a0:	dc000015 	stw	r16,0(sp)
100066a4:	2023883a 	mov	r17,r4
100066a8:	2821883a 	mov	r16,r5
100066ac:	dfc00215 	stw	ra,8(sp)
100066b0:	000f13c0 	call	1000f13c <__malloc_lock>
100066b4:	813fff17 	ldw	r4,-4(r16)
100066b8:	00bfff84 	movi	r2,-2
100066bc:	02440074 	movhi	r9,4097
100066c0:	81bffe04 	addi	r6,r16,-8
100066c4:	2084703a 	and	r2,r4,r2
100066c8:	4a48af04 	addi	r9,r9,8892
100066cc:	308b883a 	add	r5,r6,r2
100066d0:	2a000117 	ldw	r8,4(r5)
100066d4:	49c00217 	ldw	r7,8(r9)
100066d8:	00ffff04 	movi	r3,-4
100066dc:	40c6703a 	and	r3,r8,r3
100066e0:	39405326 	beq	r7,r5,10006830 <_free_r+0x19c>
100066e4:	28c00115 	stw	r3,4(r5)
100066e8:	2100004c 	andi	r4,r4,1
100066ec:	2000091e 	bne	r4,zero,10006714 <_free_r+0x80>
100066f0:	81fffe17 	ldw	r7,-8(r16)
100066f4:	4a000204 	addi	r8,r9,8
100066f8:	31cdc83a 	sub	r6,r6,r7
100066fc:	31000217 	ldw	r4,8(r6)
10006700:	11c5883a 	add	r2,r2,r7
10006704:	22006126 	beq	r4,r8,1000688c <_free_r+0x1f8>
10006708:	31c00317 	ldw	r7,12(r6)
1000670c:	21c00315 	stw	r7,12(r4)
10006710:	39000215 	stw	r4,8(r7)
10006714:	28c9883a 	add	r4,r5,r3
10006718:	21c00117 	ldw	r7,4(r4)
1000671c:	39c0004c 	andi	r7,r7,1
10006720:	38000d1e 	bne	r7,zero,10006758 <_free_r+0xc4>
10006724:	29000217 	ldw	r4,8(r5)
10006728:	10c5883a 	add	r2,r2,r3
1000672c:	00c40074 	movhi	r3,4097
10006730:	18c8b104 	addi	r3,r3,8900
10006734:	20c07526 	beq	r4,r3,1000690c <_free_r+0x278>
10006738:	29c00317 	ldw	r7,12(r5)
1000673c:	11400054 	ori	r5,r2,1
10006740:	3087883a 	add	r3,r6,r2
10006744:	21c00315 	stw	r7,12(r4)
10006748:	39000215 	stw	r4,8(r7)
1000674c:	31400115 	stw	r5,4(r6)
10006750:	18800015 	stw	r2,0(r3)
10006754:	00000406 	br	10006768 <_free_r+0xd4>
10006758:	10c00054 	ori	r3,r2,1
1000675c:	30c00115 	stw	r3,4(r6)
10006760:	3087883a 	add	r3,r6,r2
10006764:	18800015 	stw	r2,0(r3)
10006768:	00c07fc4 	movi	r3,511
1000676c:	18801736 	bltu	r3,r2,100067cc <_free_r+0x138>
10006770:	1004d0fa 	srli	r2,r2,3
10006774:	01400044 	movi	r5,1
10006778:	49000117 	ldw	r4,4(r9)
1000677c:	1087883a 	add	r3,r2,r2
10006780:	18c7883a 	add	r3,r3,r3
10006784:	1005d0ba 	srai	r2,r2,2
10006788:	18c7883a 	add	r3,r3,r3
1000678c:	1a47883a 	add	r3,r3,r9
10006790:	19c00217 	ldw	r7,8(r3)
10006794:	2884983a 	sll	r2,r5,r2
10006798:	30c00315 	stw	r3,12(r6)
1000679c:	31c00215 	stw	r7,8(r6)
100067a0:	1104b03a 	or	r2,r2,r4
100067a4:	19800215 	stw	r6,8(r3)
100067a8:	48800115 	stw	r2,4(r9)
100067ac:	39800315 	stw	r6,12(r7)
100067b0:	8809883a 	mov	r4,r17
100067b4:	dfc00217 	ldw	ra,8(sp)
100067b8:	dc400117 	ldw	r17,4(sp)
100067bc:	dc000017 	ldw	r16,0(sp)
100067c0:	dec00304 	addi	sp,sp,12
100067c4:	000f15c1 	jmpi	1000f15c <__malloc_unlock>
100067c8:	f800283a 	ret
100067cc:	1006d27a 	srli	r3,r2,9
100067d0:	01000104 	movi	r4,4
100067d4:	20c04036 	bltu	r4,r3,100068d8 <_free_r+0x244>
100067d8:	1006d1ba 	srli	r3,r2,6
100067dc:	19400e04 	addi	r5,r3,56
100067e0:	2947883a 	add	r3,r5,r5
100067e4:	18c7883a 	add	r3,r3,r3
100067e8:	18c7883a 	add	r3,r3,r3
100067ec:	1a49883a 	add	r4,r3,r9
100067f0:	20c00217 	ldw	r3,8(r4)
100067f4:	01c40074 	movhi	r7,4097
100067f8:	39c8af04 	addi	r7,r7,8892
100067fc:	19003b26 	beq	r3,r4,100068ec <_free_r+0x258>
10006800:	01ffff04 	movi	r7,-4
10006804:	19400117 	ldw	r5,4(r3)
10006808:	29ca703a 	and	r5,r5,r7
1000680c:	1140022e 	bgeu	r2,r5,10006818 <_free_r+0x184>
10006810:	18c00217 	ldw	r3,8(r3)
10006814:	20fffb1e 	bne	r4,r3,10006804 <__alt_data_end+0xf8006804>
10006818:	18800317 	ldw	r2,12(r3)
1000681c:	30800315 	stw	r2,12(r6)
10006820:	30c00215 	stw	r3,8(r6)
10006824:	11800215 	stw	r6,8(r2)
10006828:	19800315 	stw	r6,12(r3)
1000682c:	003fe006 	br	100067b0 <__alt_data_end+0xf80067b0>
10006830:	2100004c 	andi	r4,r4,1
10006834:	1885883a 	add	r2,r3,r2
10006838:	2000071e 	bne	r4,zero,10006858 <_free_r+0x1c4>
1000683c:	817ffe17 	ldw	r5,-8(r16)
10006840:	314dc83a 	sub	r6,r6,r5
10006844:	30c00317 	ldw	r3,12(r6)
10006848:	31000217 	ldw	r4,8(r6)
1000684c:	1145883a 	add	r2,r2,r5
10006850:	20c00315 	stw	r3,12(r4)
10006854:	19000215 	stw	r4,8(r3)
10006858:	10c00054 	ori	r3,r2,1
1000685c:	30c00115 	stw	r3,4(r6)
10006860:	00c40074 	movhi	r3,4097
10006864:	18ce3704 	addi	r3,r3,14556
10006868:	18c00017 	ldw	r3,0(r3)
1000686c:	49800215 	stw	r6,8(r9)
10006870:	10ffcf36 	bltu	r2,r3,100067b0 <__alt_data_end+0xf80067b0>
10006874:	00840074 	movhi	r2,4097
10006878:	10950404 	addi	r2,r2,21520
1000687c:	11400017 	ldw	r5,0(r2)
10006880:	8809883a 	mov	r4,r17
10006884:	00065700 	call	10006570 <_malloc_trim_r>
10006888:	003fc906 	br	100067b0 <__alt_data_end+0xf80067b0>
1000688c:	28c9883a 	add	r4,r5,r3
10006890:	21000117 	ldw	r4,4(r4)
10006894:	2100004c 	andi	r4,r4,1
10006898:	20000a1e 	bne	r4,zero,100068c4 <_free_r+0x230>
1000689c:	29000317 	ldw	r4,12(r5)
100068a0:	29400217 	ldw	r5,8(r5)
100068a4:	10c5883a 	add	r2,r2,r3
100068a8:	10c00054 	ori	r3,r2,1
100068ac:	29000315 	stw	r4,12(r5)
100068b0:	21400215 	stw	r5,8(r4)
100068b4:	30c00115 	stw	r3,4(r6)
100068b8:	308d883a 	add	r6,r6,r2
100068bc:	30800015 	stw	r2,0(r6)
100068c0:	003fbb06 	br	100067b0 <__alt_data_end+0xf80067b0>
100068c4:	10c00054 	ori	r3,r2,1
100068c8:	30c00115 	stw	r3,4(r6)
100068cc:	308d883a 	add	r6,r6,r2
100068d0:	30800015 	stw	r2,0(r6)
100068d4:	003fb606 	br	100067b0 <__alt_data_end+0xf80067b0>
100068d8:	01000504 	movi	r4,20
100068dc:	20c01436 	bltu	r4,r3,10006930 <_free_r+0x29c>
100068e0:	194016c4 	addi	r5,r3,91
100068e4:	2947883a 	add	r3,r5,r5
100068e8:	003fbe06 	br	100067e4 <__alt_data_end+0xf80067e4>
100068ec:	280bd0ba 	srai	r5,r5,2
100068f0:	00800044 	movi	r2,1
100068f4:	39000117 	ldw	r4,4(r7)
100068f8:	114a983a 	sll	r5,r2,r5
100068fc:	1805883a 	mov	r2,r3
10006900:	2908b03a 	or	r4,r5,r4
10006904:	39000115 	stw	r4,4(r7)
10006908:	003fc406 	br	1000681c <__alt_data_end+0xf800681c>
1000690c:	49800515 	stw	r6,20(r9)
10006910:	49800415 	stw	r6,16(r9)
10006914:	10c00054 	ori	r3,r2,1
10006918:	31000315 	stw	r4,12(r6)
1000691c:	31000215 	stw	r4,8(r6)
10006920:	30c00115 	stw	r3,4(r6)
10006924:	308d883a 	add	r6,r6,r2
10006928:	30800015 	stw	r2,0(r6)
1000692c:	003fa006 	br	100067b0 <__alt_data_end+0xf80067b0>
10006930:	01001504 	movi	r4,84
10006934:	20c00436 	bltu	r4,r3,10006948 <_free_r+0x2b4>
10006938:	1006d33a 	srli	r3,r2,12
1000693c:	19401b84 	addi	r5,r3,110
10006940:	2947883a 	add	r3,r5,r5
10006944:	003fa706 	br	100067e4 <__alt_data_end+0xf80067e4>
10006948:	01005504 	movi	r4,340
1000694c:	20c00436 	bltu	r4,r3,10006960 <_free_r+0x2cc>
10006950:	1006d3fa 	srli	r3,r2,15
10006954:	19401dc4 	addi	r5,r3,119
10006958:	2947883a 	add	r3,r5,r5
1000695c:	003fa106 	br	100067e4 <__alt_data_end+0xf80067e4>
10006960:	01015504 	movi	r4,1364
10006964:	20c00436 	bltu	r4,r3,10006978 <_free_r+0x2e4>
10006968:	1006d4ba 	srli	r3,r2,18
1000696c:	19401f04 	addi	r5,r3,124
10006970:	2947883a 	add	r3,r5,r5
10006974:	003f9b06 	br	100067e4 <__alt_data_end+0xf80067e4>
10006978:	00c03f04 	movi	r3,252
1000697c:	01401f84 	movi	r5,126
10006980:	003f9806 	br	100067e4 <__alt_data_end+0xf80067e4>

10006984 <__sfvwrite_r>:
10006984:	30800217 	ldw	r2,8(r6)
10006988:	10004526 	beq	r2,zero,10006aa0 <__sfvwrite_r+0x11c>
1000698c:	28c0030b 	ldhu	r3,12(r5)
10006990:	defff404 	addi	sp,sp,-48
10006994:	dd400715 	stw	r21,28(sp)
10006998:	dcc00515 	stw	r19,20(sp)
1000699c:	dc000215 	stw	r16,8(sp)
100069a0:	dfc00b15 	stw	ra,44(sp)
100069a4:	df000a15 	stw	fp,40(sp)
100069a8:	ddc00915 	stw	r23,36(sp)
100069ac:	dd800815 	stw	r22,32(sp)
100069b0:	dd000615 	stw	r20,24(sp)
100069b4:	dc800415 	stw	r18,16(sp)
100069b8:	dc400315 	stw	r17,12(sp)
100069bc:	1880020c 	andi	r2,r3,8
100069c0:	2821883a 	mov	r16,r5
100069c4:	202b883a 	mov	r21,r4
100069c8:	3027883a 	mov	r19,r6
100069cc:	10002526 	beq	r2,zero,10006a64 <__sfvwrite_r+0xe0>
100069d0:	28800417 	ldw	r2,16(r5)
100069d4:	10002326 	beq	r2,zero,10006a64 <__sfvwrite_r+0xe0>
100069d8:	1880008c 	andi	r2,r3,2
100069dc:	9c400017 	ldw	r17,0(r19)
100069e0:	10003126 	beq	r2,zero,10006aa8 <__sfvwrite_r+0x124>
100069e4:	0029883a 	mov	r20,zero
100069e8:	0025883a 	mov	r18,zero
100069ec:	05810004 	movi	r22,1024
100069f0:	a00d883a 	mov	r6,r20
100069f4:	a809883a 	mov	r4,r21
100069f8:	90002526 	beq	r18,zero,10006a90 <__sfvwrite_r+0x10c>
100069fc:	900f883a 	mov	r7,r18
10006a00:	81400717 	ldw	r5,28(r16)
10006a04:	b480012e 	bgeu	r22,r18,10006a0c <__sfvwrite_r+0x88>
10006a08:	01c10004 	movi	r7,1024
10006a0c:	80800917 	ldw	r2,36(r16)
10006a10:	103ee83a 	callr	r2
10006a14:	0080510e 	bge	zero,r2,10006b5c <__sfvwrite_r+0x1d8>
10006a18:	98c00217 	ldw	r3,8(r19)
10006a1c:	a0a9883a 	add	r20,r20,r2
10006a20:	90a5c83a 	sub	r18,r18,r2
10006a24:	1885c83a 	sub	r2,r3,r2
10006a28:	98800215 	stw	r2,8(r19)
10006a2c:	103ff01e 	bne	r2,zero,100069f0 <__alt_data_end+0xf80069f0>
10006a30:	0005883a 	mov	r2,zero
10006a34:	dfc00b17 	ldw	ra,44(sp)
10006a38:	df000a17 	ldw	fp,40(sp)
10006a3c:	ddc00917 	ldw	r23,36(sp)
10006a40:	dd800817 	ldw	r22,32(sp)
10006a44:	dd400717 	ldw	r21,28(sp)
10006a48:	dd000617 	ldw	r20,24(sp)
10006a4c:	dcc00517 	ldw	r19,20(sp)
10006a50:	dc800417 	ldw	r18,16(sp)
10006a54:	dc400317 	ldw	r17,12(sp)
10006a58:	dc000217 	ldw	r16,8(sp)
10006a5c:	dec00c04 	addi	sp,sp,48
10006a60:	f800283a 	ret
10006a64:	a809883a 	mov	r4,r21
10006a68:	800b883a 	mov	r5,r16
10006a6c:	00044e40 	call	100044e4 <__swsetup_r>
10006a70:	80c0030b 	ldhu	r3,12(r16)
10006a74:	103fd826 	beq	r2,zero,100069d8 <__alt_data_end+0xf80069d8>
10006a78:	18c01014 	ori	r3,r3,64
10006a7c:	80c0030d 	sth	r3,12(r16)
10006a80:	00c00244 	movi	r3,9
10006a84:	00bfffc4 	movi	r2,-1
10006a88:	a8c00015 	stw	r3,0(r21)
10006a8c:	003fe906 	br	10006a34 <__alt_data_end+0xf8006a34>
10006a90:	8d000017 	ldw	r20,0(r17)
10006a94:	8c800117 	ldw	r18,4(r17)
10006a98:	8c400204 	addi	r17,r17,8
10006a9c:	003fd406 	br	100069f0 <__alt_data_end+0xf80069f0>
10006aa0:	0005883a 	mov	r2,zero
10006aa4:	f800283a 	ret
10006aa8:	1880004c 	andi	r2,r3,1
10006aac:	1000301e 	bne	r2,zero,10006b70 <__sfvwrite_r+0x1ec>
10006ab0:	002f883a 	mov	r23,zero
10006ab4:	0025883a 	mov	r18,zero
10006ab8:	90001c26 	beq	r18,zero,10006b2c <__sfvwrite_r+0x1a8>
10006abc:	1880800c 	andi	r2,r3,512
10006ac0:	85000217 	ldw	r20,8(r16)
10006ac4:	10006c26 	beq	r2,zero,10006c78 <__sfvwrite_r+0x2f4>
10006ac8:	a02d883a 	mov	r22,r20
10006acc:	95008536 	bltu	r18,r20,10006ce4 <__sfvwrite_r+0x360>
10006ad0:	1881200c 	andi	r2,r3,1152
10006ad4:	10009d1e 	bne	r2,zero,10006d4c <__sfvwrite_r+0x3c8>
10006ad8:	81000017 	ldw	r4,0(r16)
10006adc:	a039883a 	mov	fp,r20
10006ae0:	9029883a 	mov	r20,r18
10006ae4:	b80b883a 	mov	r5,r23
10006ae8:	b00d883a 	mov	r6,r22
10006aec:	0007bf80 	call	10007bf8 <memmove>
10006af0:	80c00217 	ldw	r3,8(r16)
10006af4:	81000017 	ldw	r4,0(r16)
10006af8:	9005883a 	mov	r2,r18
10006afc:	1f39c83a 	sub	fp,r3,fp
10006b00:	258f883a 	add	r7,r4,r22
10006b04:	87000215 	stw	fp,8(r16)
10006b08:	81c00015 	stw	r7,0(r16)
10006b0c:	98c00217 	ldw	r3,8(r19)
10006b10:	b8af883a 	add	r23,r23,r2
10006b14:	90a5c83a 	sub	r18,r18,r2
10006b18:	1d05c83a 	sub	r2,r3,r20
10006b1c:	98800215 	stw	r2,8(r19)
10006b20:	103fc326 	beq	r2,zero,10006a30 <__alt_data_end+0xf8006a30>
10006b24:	80c0030b 	ldhu	r3,12(r16)
10006b28:	903fe41e 	bne	r18,zero,10006abc <__alt_data_end+0xf8006abc>
10006b2c:	8dc00017 	ldw	r23,0(r17)
10006b30:	8c800117 	ldw	r18,4(r17)
10006b34:	8c400204 	addi	r17,r17,8
10006b38:	003fdf06 	br	10006ab8 <__alt_data_end+0xf8006ab8>
10006b3c:	0008ec00 	call	10008ec0 <_realloc_r>
10006b40:	102d883a 	mov	r22,r2
10006b44:	1000a01e 	bne	r2,zero,10006dc8 <__sfvwrite_r+0x444>
10006b48:	81400417 	ldw	r5,16(r16)
10006b4c:	a809883a 	mov	r4,r21
10006b50:	00066940 	call	10006694 <_free_r>
10006b54:	00800304 	movi	r2,12
10006b58:	a8800015 	stw	r2,0(r21)
10006b5c:	80c0030b 	ldhu	r3,12(r16)
10006b60:	00bfffc4 	movi	r2,-1
10006b64:	18c01014 	ori	r3,r3,64
10006b68:	80c0030d 	sth	r3,12(r16)
10006b6c:	003fb106 	br	10006a34 <__alt_data_end+0xf8006a34>
10006b70:	0029883a 	mov	r20,zero
10006b74:	0011883a 	mov	r8,zero
10006b78:	0039883a 	mov	fp,zero
10006b7c:	0025883a 	mov	r18,zero
10006b80:	90001f26 	beq	r18,zero,10006c00 <__sfvwrite_r+0x27c>
10006b84:	40006826 	beq	r8,zero,10006d28 <__sfvwrite_r+0x3a4>
10006b88:	a02f883a 	mov	r23,r20
10006b8c:	9500012e 	bgeu	r18,r20,10006b94 <__sfvwrite_r+0x210>
10006b90:	902f883a 	mov	r23,r18
10006b94:	81000017 	ldw	r4,0(r16)
10006b98:	80800417 	ldw	r2,16(r16)
10006b9c:	b82d883a 	mov	r22,r23
10006ba0:	81800217 	ldw	r6,8(r16)
10006ba4:	81c00517 	ldw	r7,20(r16)
10006ba8:	1100022e 	bgeu	r2,r4,10006bb4 <__sfvwrite_r+0x230>
10006bac:	31c7883a 	add	r3,r6,r7
10006bb0:	1dc01816 	blt	r3,r23,10006c14 <__sfvwrite_r+0x290>
10006bb4:	b9c03f16 	blt	r23,r7,10006cb4 <__sfvwrite_r+0x330>
10006bb8:	80800917 	ldw	r2,36(r16)
10006bbc:	81400717 	ldw	r5,28(r16)
10006bc0:	a809883a 	mov	r4,r21
10006bc4:	da000115 	stw	r8,4(sp)
10006bc8:	e00d883a 	mov	r6,fp
10006bcc:	103ee83a 	callr	r2
10006bd0:	102d883a 	mov	r22,r2
10006bd4:	da000117 	ldw	r8,4(sp)
10006bd8:	00bfe00e 	bge	zero,r2,10006b5c <__alt_data_end+0xf8006b5c>
10006bdc:	a5a9c83a 	sub	r20,r20,r22
10006be0:	a0001f26 	beq	r20,zero,10006c60 <__sfvwrite_r+0x2dc>
10006be4:	98800217 	ldw	r2,8(r19)
10006be8:	e5b9883a 	add	fp,fp,r22
10006bec:	95a5c83a 	sub	r18,r18,r22
10006bf0:	15adc83a 	sub	r22,r2,r22
10006bf4:	9d800215 	stw	r22,8(r19)
10006bf8:	b03f8d26 	beq	r22,zero,10006a30 <__alt_data_end+0xf8006a30>
10006bfc:	903fe11e 	bne	r18,zero,10006b84 <__alt_data_end+0xf8006b84>
10006c00:	8f000017 	ldw	fp,0(r17)
10006c04:	8c800117 	ldw	r18,4(r17)
10006c08:	0011883a 	mov	r8,zero
10006c0c:	8c400204 	addi	r17,r17,8
10006c10:	003fdb06 	br	10006b80 <__alt_data_end+0xf8006b80>
10006c14:	180d883a 	mov	r6,r3
10006c18:	e00b883a 	mov	r5,fp
10006c1c:	da000115 	stw	r8,4(sp)
10006c20:	d8c00015 	stw	r3,0(sp)
10006c24:	0007bf80 	call	10007bf8 <memmove>
10006c28:	d8c00017 	ldw	r3,0(sp)
10006c2c:	80800017 	ldw	r2,0(r16)
10006c30:	a809883a 	mov	r4,r21
10006c34:	800b883a 	mov	r5,r16
10006c38:	10c5883a 	add	r2,r2,r3
10006c3c:	80800015 	stw	r2,0(r16)
10006c40:	d8c00015 	stw	r3,0(sp)
10006c44:	0005f640 	call	10005f64 <_fflush_r>
10006c48:	d8c00017 	ldw	r3,0(sp)
10006c4c:	da000117 	ldw	r8,4(sp)
10006c50:	103fc21e 	bne	r2,zero,10006b5c <__alt_data_end+0xf8006b5c>
10006c54:	182d883a 	mov	r22,r3
10006c58:	a5a9c83a 	sub	r20,r20,r22
10006c5c:	a03fe11e 	bne	r20,zero,10006be4 <__alt_data_end+0xf8006be4>
10006c60:	a809883a 	mov	r4,r21
10006c64:	800b883a 	mov	r5,r16
10006c68:	0005f640 	call	10005f64 <_fflush_r>
10006c6c:	103fbb1e 	bne	r2,zero,10006b5c <__alt_data_end+0xf8006b5c>
10006c70:	0011883a 	mov	r8,zero
10006c74:	003fdb06 	br	10006be4 <__alt_data_end+0xf8006be4>
10006c78:	81000017 	ldw	r4,0(r16)
10006c7c:	80800417 	ldw	r2,16(r16)
10006c80:	1100012e 	bgeu	r2,r4,10006c88 <__sfvwrite_r+0x304>
10006c84:	a4805a36 	bltu	r20,r18,10006df0 <__sfvwrite_r+0x46c>
10006c88:	81c00517 	ldw	r7,20(r16)
10006c8c:	91c01a36 	bltu	r18,r7,10006cf8 <__sfvwrite_r+0x374>
10006c90:	80800917 	ldw	r2,36(r16)
10006c94:	81400717 	ldw	r5,28(r16)
10006c98:	a809883a 	mov	r4,r21
10006c9c:	b80d883a 	mov	r6,r23
10006ca0:	103ee83a 	callr	r2
10006ca4:	1029883a 	mov	r20,r2
10006ca8:	00bfac0e 	bge	zero,r2,10006b5c <__alt_data_end+0xf8006b5c>
10006cac:	a005883a 	mov	r2,r20
10006cb0:	003f9606 	br	10006b0c <__alt_data_end+0xf8006b0c>
10006cb4:	b80d883a 	mov	r6,r23
10006cb8:	e00b883a 	mov	r5,fp
10006cbc:	da000115 	stw	r8,4(sp)
10006cc0:	0007bf80 	call	10007bf8 <memmove>
10006cc4:	80800217 	ldw	r2,8(r16)
10006cc8:	80c00017 	ldw	r3,0(r16)
10006ccc:	da000117 	ldw	r8,4(sp)
10006cd0:	15c5c83a 	sub	r2,r2,r23
10006cd4:	1def883a 	add	r23,r3,r23
10006cd8:	80800215 	stw	r2,8(r16)
10006cdc:	85c00015 	stw	r23,0(r16)
10006ce0:	003fbe06 	br	10006bdc <__alt_data_end+0xf8006bdc>
10006ce4:	81000017 	ldw	r4,0(r16)
10006ce8:	9039883a 	mov	fp,r18
10006cec:	9029883a 	mov	r20,r18
10006cf0:	902d883a 	mov	r22,r18
10006cf4:	003f7b06 	br	10006ae4 <__alt_data_end+0xf8006ae4>
10006cf8:	b80b883a 	mov	r5,r23
10006cfc:	900d883a 	mov	r6,r18
10006d00:	0007bf80 	call	10007bf8 <memmove>
10006d04:	80c00217 	ldw	r3,8(r16)
10006d08:	80800017 	ldw	r2,0(r16)
10006d0c:	9029883a 	mov	r20,r18
10006d10:	1c87c83a 	sub	r3,r3,r18
10006d14:	1485883a 	add	r2,r2,r18
10006d18:	80800015 	stw	r2,0(r16)
10006d1c:	80c00215 	stw	r3,8(r16)
10006d20:	9005883a 	mov	r2,r18
10006d24:	003f7906 	br	10006b0c <__alt_data_end+0xf8006b0c>
10006d28:	e009883a 	mov	r4,fp
10006d2c:	01400284 	movi	r5,10
10006d30:	900d883a 	mov	r6,r18
10006d34:	00079d80 	call	100079d8 <memchr>
10006d38:	10003826 	beq	r2,zero,10006e1c <__sfvwrite_r+0x498>
10006d3c:	10800044 	addi	r2,r2,1
10006d40:	1729c83a 	sub	r20,r2,fp
10006d44:	02000044 	movi	r8,1
10006d48:	003f8f06 	br	10006b88 <__alt_data_end+0xf8006b88>
10006d4c:	80800517 	ldw	r2,20(r16)
10006d50:	81400417 	ldw	r5,16(r16)
10006d54:	87000017 	ldw	fp,0(r16)
10006d58:	10a9883a 	add	r20,r2,r2
10006d5c:	a085883a 	add	r2,r20,r2
10006d60:	1028d7fa 	srli	r20,r2,31
10006d64:	e179c83a 	sub	fp,fp,r5
10006d68:	e1000044 	addi	r4,fp,1
10006d6c:	a085883a 	add	r2,r20,r2
10006d70:	1029d07a 	srai	r20,r2,1
10006d74:	2485883a 	add	r2,r4,r18
10006d78:	a00d883a 	mov	r6,r20
10006d7c:	a080022e 	bgeu	r20,r2,10006d88 <__sfvwrite_r+0x404>
10006d80:	1029883a 	mov	r20,r2
10006d84:	100d883a 	mov	r6,r2
10006d88:	18c1000c 	andi	r3,r3,1024
10006d8c:	a809883a 	mov	r4,r21
10006d90:	183f6a26 	beq	r3,zero,10006b3c <__alt_data_end+0xf8006b3c>
10006d94:	300b883a 	mov	r5,r6
10006d98:	00072300 	call	10007230 <_malloc_r>
10006d9c:	102d883a 	mov	r22,r2
10006da0:	103f6c26 	beq	r2,zero,10006b54 <__alt_data_end+0xf8006b54>
10006da4:	81400417 	ldw	r5,16(r16)
10006da8:	1009883a 	mov	r4,r2
10006dac:	e00d883a 	mov	r6,fp
10006db0:	0007ac00 	call	10007ac0 <memcpy>
10006db4:	8080030b 	ldhu	r2,12(r16)
10006db8:	00fedfc4 	movi	r3,-1153
10006dbc:	10c4703a 	and	r2,r2,r3
10006dc0:	10802014 	ori	r2,r2,128
10006dc4:	8080030d 	sth	r2,12(r16)
10006dc8:	b709883a 	add	r4,r22,fp
10006dcc:	a707c83a 	sub	r3,r20,fp
10006dd0:	85800415 	stw	r22,16(r16)
10006dd4:	85000515 	stw	r20,20(r16)
10006dd8:	81000015 	stw	r4,0(r16)
10006ddc:	9039883a 	mov	fp,r18
10006de0:	80c00215 	stw	r3,8(r16)
10006de4:	9029883a 	mov	r20,r18
10006de8:	902d883a 	mov	r22,r18
10006dec:	003f3d06 	br	10006ae4 <__alt_data_end+0xf8006ae4>
10006df0:	b80b883a 	mov	r5,r23
10006df4:	a00d883a 	mov	r6,r20
10006df8:	0007bf80 	call	10007bf8 <memmove>
10006dfc:	80800017 	ldw	r2,0(r16)
10006e00:	a809883a 	mov	r4,r21
10006e04:	800b883a 	mov	r5,r16
10006e08:	1505883a 	add	r2,r2,r20
10006e0c:	80800015 	stw	r2,0(r16)
10006e10:	0005f640 	call	10005f64 <_fflush_r>
10006e14:	103fa526 	beq	r2,zero,10006cac <__alt_data_end+0xf8006cac>
10006e18:	003f5006 	br	10006b5c <__alt_data_end+0xf8006b5c>
10006e1c:	95000044 	addi	r20,r18,1
10006e20:	02000044 	movi	r8,1
10006e24:	003f5806 	br	10006b88 <__alt_data_end+0xf8006b88>

10006e28 <_fwalk>:
10006e28:	defff804 	addi	sp,sp,-32
10006e2c:	dd400515 	stw	r21,20(sp)
10006e30:	2540b804 	addi	r21,r4,736
10006e34:	dd800615 	stw	r22,24(sp)
10006e38:	dd000415 	stw	r20,16(sp)
10006e3c:	dfc00715 	stw	ra,28(sp)
10006e40:	dcc00315 	stw	r19,12(sp)
10006e44:	dc800215 	stw	r18,8(sp)
10006e48:	dc400115 	stw	r17,4(sp)
10006e4c:	dc000015 	stw	r16,0(sp)
10006e50:	2829883a 	mov	r20,r5
10006e54:	002d883a 	mov	r22,zero
10006e58:	00065300 	call	10006530 <__sfp_lock_acquire>
10006e5c:	a8001426 	beq	r21,zero,10006eb0 <_fwalk+0x88>
10006e60:	04ffffc4 	movi	r19,-1
10006e64:	ac400117 	ldw	r17,4(r21)
10006e68:	ac800217 	ldw	r18,8(r21)
10006e6c:	8c7fffc4 	addi	r17,r17,-1
10006e70:	88000d16 	blt	r17,zero,10006ea8 <_fwalk+0x80>
10006e74:	94000304 	addi	r16,r18,12
10006e78:	94800384 	addi	r18,r18,14
10006e7c:	80c0000f 	ldh	r3,0(r16)
10006e80:	8c7fffc4 	addi	r17,r17,-1
10006e84:	813ffd04 	addi	r4,r16,-12
10006e88:	18000426 	beq	r3,zero,10006e9c <_fwalk+0x74>
10006e8c:	90c0000f 	ldh	r3,0(r18)
10006e90:	1cc00226 	beq	r3,r19,10006e9c <_fwalk+0x74>
10006e94:	a03ee83a 	callr	r20
10006e98:	b0acb03a 	or	r22,r22,r2
10006e9c:	84001a04 	addi	r16,r16,104
10006ea0:	94801a04 	addi	r18,r18,104
10006ea4:	8cfff51e 	bne	r17,r19,10006e7c <__alt_data_end+0xf8006e7c>
10006ea8:	ad400017 	ldw	r21,0(r21)
10006eac:	a83fed1e 	bne	r21,zero,10006e64 <__alt_data_end+0xf8006e64>
10006eb0:	00065340 	call	10006534 <__sfp_lock_release>
10006eb4:	b005883a 	mov	r2,r22
10006eb8:	dfc00717 	ldw	ra,28(sp)
10006ebc:	dd800617 	ldw	r22,24(sp)
10006ec0:	dd400517 	ldw	r21,20(sp)
10006ec4:	dd000417 	ldw	r20,16(sp)
10006ec8:	dcc00317 	ldw	r19,12(sp)
10006ecc:	dc800217 	ldw	r18,8(sp)
10006ed0:	dc400117 	ldw	r17,4(sp)
10006ed4:	dc000017 	ldw	r16,0(sp)
10006ed8:	dec00804 	addi	sp,sp,32
10006edc:	f800283a 	ret

10006ee0 <_fwalk_reent>:
10006ee0:	defff804 	addi	sp,sp,-32
10006ee4:	dd400515 	stw	r21,20(sp)
10006ee8:	2540b804 	addi	r21,r4,736
10006eec:	dd800615 	stw	r22,24(sp)
10006ef0:	dd000415 	stw	r20,16(sp)
10006ef4:	dcc00315 	stw	r19,12(sp)
10006ef8:	dfc00715 	stw	ra,28(sp)
10006efc:	dc800215 	stw	r18,8(sp)
10006f00:	dc400115 	stw	r17,4(sp)
10006f04:	dc000015 	stw	r16,0(sp)
10006f08:	2027883a 	mov	r19,r4
10006f0c:	2829883a 	mov	r20,r5
10006f10:	002d883a 	mov	r22,zero
10006f14:	00065300 	call	10006530 <__sfp_lock_acquire>
10006f18:	a8001326 	beq	r21,zero,10006f68 <_fwalk_reent+0x88>
10006f1c:	04bfffc4 	movi	r18,-1
10006f20:	ac400117 	ldw	r17,4(r21)
10006f24:	ac000217 	ldw	r16,8(r21)
10006f28:	8c7fffc4 	addi	r17,r17,-1
10006f2c:	88000c16 	blt	r17,zero,10006f60 <_fwalk_reent+0x80>
10006f30:	84000304 	addi	r16,r16,12
10006f34:	80c0000f 	ldh	r3,0(r16)
10006f38:	8c7fffc4 	addi	r17,r17,-1
10006f3c:	817ffd04 	addi	r5,r16,-12
10006f40:	18000526 	beq	r3,zero,10006f58 <_fwalk_reent+0x78>
10006f44:	80c0008f 	ldh	r3,2(r16)
10006f48:	9809883a 	mov	r4,r19
10006f4c:	1c800226 	beq	r3,r18,10006f58 <_fwalk_reent+0x78>
10006f50:	a03ee83a 	callr	r20
10006f54:	b0acb03a 	or	r22,r22,r2
10006f58:	84001a04 	addi	r16,r16,104
10006f5c:	8cbff51e 	bne	r17,r18,10006f34 <__alt_data_end+0xf8006f34>
10006f60:	ad400017 	ldw	r21,0(r21)
10006f64:	a83fee1e 	bne	r21,zero,10006f20 <__alt_data_end+0xf8006f20>
10006f68:	00065340 	call	10006534 <__sfp_lock_release>
10006f6c:	b005883a 	mov	r2,r22
10006f70:	dfc00717 	ldw	ra,28(sp)
10006f74:	dd800617 	ldw	r22,24(sp)
10006f78:	dd400517 	ldw	r21,20(sp)
10006f7c:	dd000417 	ldw	r20,16(sp)
10006f80:	dcc00317 	ldw	r19,12(sp)
10006f84:	dc800217 	ldw	r18,8(sp)
10006f88:	dc400117 	ldw	r17,4(sp)
10006f8c:	dc000017 	ldw	r16,0(sp)
10006f90:	dec00804 	addi	sp,sp,32
10006f94:	f800283a 	ret

10006f98 <_setlocale_r>:
10006f98:	30001b26 	beq	r6,zero,10007008 <_setlocale_r+0x70>
10006f9c:	01440074 	movhi	r5,4097
10006fa0:	defffe04 	addi	sp,sp,-8
10006fa4:	2946e704 	addi	r5,r5,7068
10006fa8:	3009883a 	mov	r4,r6
10006fac:	dc000015 	stw	r16,0(sp)
10006fb0:	dfc00115 	stw	ra,4(sp)
10006fb4:	3021883a 	mov	r16,r6
10006fb8:	00096640 	call	10009664 <strcmp>
10006fbc:	1000061e 	bne	r2,zero,10006fd8 <_setlocale_r+0x40>
10006fc0:	00840074 	movhi	r2,4097
10006fc4:	1086e604 	addi	r2,r2,7064
10006fc8:	dfc00117 	ldw	ra,4(sp)
10006fcc:	dc000017 	ldw	r16,0(sp)
10006fd0:	dec00204 	addi	sp,sp,8
10006fd4:	f800283a 	ret
10006fd8:	01440074 	movhi	r5,4097
10006fdc:	2946e604 	addi	r5,r5,7064
10006fe0:	8009883a 	mov	r4,r16
10006fe4:	00096640 	call	10009664 <strcmp>
10006fe8:	103ff526 	beq	r2,zero,10006fc0 <__alt_data_end+0xf8006fc0>
10006fec:	01440074 	movhi	r5,4097
10006ff0:	2946d104 	addi	r5,r5,6980
10006ff4:	8009883a 	mov	r4,r16
10006ff8:	00096640 	call	10009664 <strcmp>
10006ffc:	103ff026 	beq	r2,zero,10006fc0 <__alt_data_end+0xf8006fc0>
10007000:	0005883a 	mov	r2,zero
10007004:	003ff006 	br	10006fc8 <__alt_data_end+0xf8006fc8>
10007008:	00840074 	movhi	r2,4097
1000700c:	1086e604 	addi	r2,r2,7064
10007010:	f800283a 	ret

10007014 <__locale_charset>:
10007014:	00840074 	movhi	r2,4097
10007018:	10889904 	addi	r2,r2,8804
1000701c:	f800283a 	ret

10007020 <__locale_mb_cur_max>:
10007020:	00840074 	movhi	r2,4097
10007024:	108e3504 	addi	r2,r2,14548
10007028:	10800017 	ldw	r2,0(r2)
1000702c:	f800283a 	ret

10007030 <__locale_msgcharset>:
10007030:	00840074 	movhi	r2,4097
10007034:	10889104 	addi	r2,r2,8772
10007038:	f800283a 	ret

1000703c <__locale_cjk_lang>:
1000703c:	0005883a 	mov	r2,zero
10007040:	f800283a 	ret

10007044 <_localeconv_r>:
10007044:	00840074 	movhi	r2,4097
10007048:	1088a104 	addi	r2,r2,8836
1000704c:	f800283a 	ret

10007050 <setlocale>:
10007050:	00c40074 	movhi	r3,4097
10007054:	18ce3404 	addi	r3,r3,14544
10007058:	2005883a 	mov	r2,r4
1000705c:	19000017 	ldw	r4,0(r3)
10007060:	280d883a 	mov	r6,r5
10007064:	100b883a 	mov	r5,r2
10007068:	0006f981 	jmpi	10006f98 <_setlocale_r>

1000706c <localeconv>:
1000706c:	00840074 	movhi	r2,4097
10007070:	1088a104 	addi	r2,r2,8836
10007074:	f800283a 	ret

10007078 <__smakebuf_r>:
10007078:	2880030b 	ldhu	r2,12(r5)
1000707c:	10c0008c 	andi	r3,r2,2
10007080:	1800401e 	bne	r3,zero,10007184 <__smakebuf_r+0x10c>
10007084:	deffec04 	addi	sp,sp,-80
10007088:	dc000f15 	stw	r16,60(sp)
1000708c:	2821883a 	mov	r16,r5
10007090:	2940038f 	ldh	r5,14(r5)
10007094:	dc401015 	stw	r17,64(sp)
10007098:	dfc01315 	stw	ra,76(sp)
1000709c:	dcc01215 	stw	r19,72(sp)
100070a0:	dc801115 	stw	r18,68(sp)
100070a4:	2023883a 	mov	r17,r4
100070a8:	28001b16 	blt	r5,zero,10007118 <__smakebuf_r+0xa0>
100070ac:	d80d883a 	mov	r6,sp
100070b0:	000b0dc0 	call	1000b0dc <_fstat_r>
100070b4:	10001716 	blt	r2,zero,10007114 <__smakebuf_r+0x9c>
100070b8:	d8800117 	ldw	r2,4(sp)
100070bc:	00e00014 	movui	r3,32768
100070c0:	10bc000c 	andi	r2,r2,61440
100070c4:	10c03726 	beq	r2,r3,100071a4 <__smakebuf_r+0x12c>
100070c8:	80c0030b 	ldhu	r3,12(r16)
100070cc:	18c20014 	ori	r3,r3,2048
100070d0:	80c0030d 	sth	r3,12(r16)
100070d4:	00c80004 	movi	r3,8192
100070d8:	10c03c1e 	bne	r2,r3,100071cc <__smakebuf_r+0x154>
100070dc:	8140038f 	ldh	r5,14(r16)
100070e0:	8809883a 	mov	r4,r17
100070e4:	000b1340 	call	1000b134 <_isatty_r>
100070e8:	10004e26 	beq	r2,zero,10007224 <__smakebuf_r+0x1ac>
100070ec:	8080030b 	ldhu	r2,12(r16)
100070f0:	04c00044 	movi	r19,1
100070f4:	80c010c4 	addi	r3,r16,67
100070f8:	14c4b03a 	or	r2,r2,r19
100070fc:	8080030d 	sth	r2,12(r16)
10007100:	80c00015 	stw	r3,0(r16)
10007104:	80c00415 	stw	r3,16(r16)
10007108:	84c00515 	stw	r19,20(r16)
1000710c:	04810004 	movi	r18,1024
10007110:	00000706 	br	10007130 <__smakebuf_r+0xb8>
10007114:	8080030b 	ldhu	r2,12(r16)
10007118:	10c0200c 	andi	r3,r2,128
1000711c:	18001f1e 	bne	r3,zero,1000719c <__smakebuf_r+0x124>
10007120:	04810004 	movi	r18,1024
10007124:	10820014 	ori	r2,r2,2048
10007128:	8080030d 	sth	r2,12(r16)
1000712c:	0027883a 	mov	r19,zero
10007130:	8809883a 	mov	r4,r17
10007134:	900b883a 	mov	r5,r18
10007138:	00072300 	call	10007230 <_malloc_r>
1000713c:	10002e26 	beq	r2,zero,100071f8 <__smakebuf_r+0x180>
10007140:	80c0030b 	ldhu	r3,12(r16)
10007144:	01040034 	movhi	r4,4096
10007148:	21187304 	addi	r4,r4,25036
1000714c:	89000f15 	stw	r4,60(r17)
10007150:	18c02014 	ori	r3,r3,128
10007154:	80c0030d 	sth	r3,12(r16)
10007158:	80800015 	stw	r2,0(r16)
1000715c:	80800415 	stw	r2,16(r16)
10007160:	84800515 	stw	r18,20(r16)
10007164:	98001c1e 	bne	r19,zero,100071d8 <__smakebuf_r+0x160>
10007168:	dfc01317 	ldw	ra,76(sp)
1000716c:	dcc01217 	ldw	r19,72(sp)
10007170:	dc801117 	ldw	r18,68(sp)
10007174:	dc401017 	ldw	r17,64(sp)
10007178:	dc000f17 	ldw	r16,60(sp)
1000717c:	dec01404 	addi	sp,sp,80
10007180:	f800283a 	ret
10007184:	288010c4 	addi	r2,r5,67
10007188:	28800015 	stw	r2,0(r5)
1000718c:	28800415 	stw	r2,16(r5)
10007190:	00800044 	movi	r2,1
10007194:	28800515 	stw	r2,20(r5)
10007198:	f800283a 	ret
1000719c:	04801004 	movi	r18,64
100071a0:	003fe006 	br	10007124 <__alt_data_end+0xf8007124>
100071a4:	81000a17 	ldw	r4,40(r16)
100071a8:	00c40074 	movhi	r3,4097
100071ac:	18e58004 	addi	r3,r3,-27136
100071b0:	20ffc51e 	bne	r4,r3,100070c8 <__alt_data_end+0xf80070c8>
100071b4:	80c0030b 	ldhu	r3,12(r16)
100071b8:	01010004 	movi	r4,1024
100071bc:	81001315 	stw	r4,76(r16)
100071c0:	1906b03a 	or	r3,r3,r4
100071c4:	80c0030d 	sth	r3,12(r16)
100071c8:	003fc206 	br	100070d4 <__alt_data_end+0xf80070d4>
100071cc:	0027883a 	mov	r19,zero
100071d0:	04810004 	movi	r18,1024
100071d4:	003fd606 	br	10007130 <__alt_data_end+0xf8007130>
100071d8:	8140038f 	ldh	r5,14(r16)
100071dc:	8809883a 	mov	r4,r17
100071e0:	000b1340 	call	1000b134 <_isatty_r>
100071e4:	103fe026 	beq	r2,zero,10007168 <__alt_data_end+0xf8007168>
100071e8:	8080030b 	ldhu	r2,12(r16)
100071ec:	10800054 	ori	r2,r2,1
100071f0:	8080030d 	sth	r2,12(r16)
100071f4:	003fdc06 	br	10007168 <__alt_data_end+0xf8007168>
100071f8:	8080030b 	ldhu	r2,12(r16)
100071fc:	10c0800c 	andi	r3,r2,512
10007200:	183fd91e 	bne	r3,zero,10007168 <__alt_data_end+0xf8007168>
10007204:	10800094 	ori	r2,r2,2
10007208:	80c010c4 	addi	r3,r16,67
1000720c:	8080030d 	sth	r2,12(r16)
10007210:	00800044 	movi	r2,1
10007214:	80c00015 	stw	r3,0(r16)
10007218:	80c00415 	stw	r3,16(r16)
1000721c:	80800515 	stw	r2,20(r16)
10007220:	003fd106 	br	10007168 <__alt_data_end+0xf8007168>
10007224:	04c00044 	movi	r19,1
10007228:	04810004 	movi	r18,1024
1000722c:	003fc006 	br	10007130 <__alt_data_end+0xf8007130>

10007230 <_malloc_r>:
10007230:	defff504 	addi	sp,sp,-44
10007234:	dc800315 	stw	r18,12(sp)
10007238:	dfc00a15 	stw	ra,40(sp)
1000723c:	df000915 	stw	fp,36(sp)
10007240:	ddc00815 	stw	r23,32(sp)
10007244:	dd800715 	stw	r22,28(sp)
10007248:	dd400615 	stw	r21,24(sp)
1000724c:	dd000515 	stw	r20,20(sp)
10007250:	dcc00415 	stw	r19,16(sp)
10007254:	dc400215 	stw	r17,8(sp)
10007258:	dc000115 	stw	r16,4(sp)
1000725c:	288002c4 	addi	r2,r5,11
10007260:	00c00584 	movi	r3,22
10007264:	2025883a 	mov	r18,r4
10007268:	18802a2e 	bgeu	r3,r2,10007314 <_malloc_r+0xe4>
1000726c:	047ffe04 	movi	r17,-8
10007270:	1462703a 	and	r17,r2,r17
10007274:	88009e16 	blt	r17,zero,100074f0 <_malloc_r+0x2c0>
10007278:	89409d36 	bltu	r17,r5,100074f0 <_malloc_r+0x2c0>
1000727c:	000f13c0 	call	1000f13c <__malloc_lock>
10007280:	00807dc4 	movi	r2,503
10007284:	14402736 	bltu	r2,r17,10007324 <_malloc_r+0xf4>
10007288:	8806d0fa 	srli	r3,r17,3
1000728c:	04c40074 	movhi	r19,4097
10007290:	9cc8af04 	addi	r19,r19,8892
10007294:	18c5883a 	add	r2,r3,r3
10007298:	1085883a 	add	r2,r2,r2
1000729c:	1085883a 	add	r2,r2,r2
100072a0:	9885883a 	add	r2,r19,r2
100072a4:	14000317 	ldw	r16,12(r2)
100072a8:	80814a26 	beq	r16,r2,100077d4 <_malloc_r+0x5a4>
100072ac:	80c00117 	ldw	r3,4(r16)
100072b0:	81000317 	ldw	r4,12(r16)
100072b4:	00bfff04 	movi	r2,-4
100072b8:	1884703a 	and	r2,r3,r2
100072bc:	81400217 	ldw	r5,8(r16)
100072c0:	8085883a 	add	r2,r16,r2
100072c4:	10c00117 	ldw	r3,4(r2)
100072c8:	29000315 	stw	r4,12(r5)
100072cc:	21400215 	stw	r5,8(r4)
100072d0:	18c00054 	ori	r3,r3,1
100072d4:	10c00115 	stw	r3,4(r2)
100072d8:	9009883a 	mov	r4,r18
100072dc:	000f15c0 	call	1000f15c <__malloc_unlock>
100072e0:	80800204 	addi	r2,r16,8
100072e4:	dfc00a17 	ldw	ra,40(sp)
100072e8:	df000917 	ldw	fp,36(sp)
100072ec:	ddc00817 	ldw	r23,32(sp)
100072f0:	dd800717 	ldw	r22,28(sp)
100072f4:	dd400617 	ldw	r21,24(sp)
100072f8:	dd000517 	ldw	r20,20(sp)
100072fc:	dcc00417 	ldw	r19,16(sp)
10007300:	dc800317 	ldw	r18,12(sp)
10007304:	dc400217 	ldw	r17,8(sp)
10007308:	dc000117 	ldw	r16,4(sp)
1000730c:	dec00b04 	addi	sp,sp,44
10007310:	f800283a 	ret
10007314:	04400404 	movi	r17,16
10007318:	89407536 	bltu	r17,r5,100074f0 <_malloc_r+0x2c0>
1000731c:	000f13c0 	call	1000f13c <__malloc_lock>
10007320:	003fd906 	br	10007288 <__alt_data_end+0xf8007288>
10007324:	8806d27a 	srli	r3,r17,9
10007328:	18007526 	beq	r3,zero,10007500 <_malloc_r+0x2d0>
1000732c:	00800104 	movi	r2,4
10007330:	10c0ef36 	bltu	r2,r3,100076f0 <_malloc_r+0x4c0>
10007334:	8806d1ba 	srli	r3,r17,6
10007338:	19c00e04 	addi	r7,r3,56
1000733c:	39cb883a 	add	r5,r7,r7
10007340:	04c40074 	movhi	r19,4097
10007344:	294b883a 	add	r5,r5,r5
10007348:	9cc8af04 	addi	r19,r19,8892
1000734c:	294b883a 	add	r5,r5,r5
10007350:	994b883a 	add	r5,r19,r5
10007354:	2c000317 	ldw	r16,12(r5)
10007358:	2c000e26 	beq	r5,r16,10007394 <_malloc_r+0x164>
1000735c:	80800117 	ldw	r2,4(r16)
10007360:	01bfff04 	movi	r6,-4
10007364:	010003c4 	movi	r4,15
10007368:	1184703a 	and	r2,r2,r6
1000736c:	1447c83a 	sub	r3,r2,r17
10007370:	20c00716 	blt	r4,r3,10007390 <_malloc_r+0x160>
10007374:	1800650e 	bge	r3,zero,1000750c <_malloc_r+0x2dc>
10007378:	84000317 	ldw	r16,12(r16)
1000737c:	2c000526 	beq	r5,r16,10007394 <_malloc_r+0x164>
10007380:	80800117 	ldw	r2,4(r16)
10007384:	1184703a 	and	r2,r2,r6
10007388:	1447c83a 	sub	r3,r2,r17
1000738c:	20fff90e 	bge	r4,r3,10007374 <__alt_data_end+0xf8007374>
10007390:	39ffffc4 	addi	r7,r7,-1
10007394:	38c00044 	addi	r3,r7,1
10007398:	01840074 	movhi	r6,4097
1000739c:	9c000417 	ldw	r16,16(r19)
100073a0:	3188af04 	addi	r6,r6,8892
100073a4:	32400204 	addi	r9,r6,8
100073a8:	82410326 	beq	r16,r9,100077b8 <_malloc_r+0x588>
100073ac:	81000117 	ldw	r4,4(r16)
100073b0:	00bfff04 	movi	r2,-4
100073b4:	208e703a 	and	r7,r4,r2
100073b8:	3c45c83a 	sub	r2,r7,r17
100073bc:	010003c4 	movi	r4,15
100073c0:	2080ee16 	blt	r4,r2,1000777c <_malloc_r+0x54c>
100073c4:	32400515 	stw	r9,20(r6)
100073c8:	32400415 	stw	r9,16(r6)
100073cc:	1000510e 	bge	r2,zero,10007514 <_malloc_r+0x2e4>
100073d0:	00807fc4 	movi	r2,511
100073d4:	11c0ce36 	bltu	r2,r7,10007710 <_malloc_r+0x4e0>
100073d8:	3808d0fa 	srli	r4,r7,3
100073dc:	01c00044 	movi	r7,1
100073e0:	30800117 	ldw	r2,4(r6)
100073e4:	210b883a 	add	r5,r4,r4
100073e8:	294b883a 	add	r5,r5,r5
100073ec:	2009d0ba 	srai	r4,r4,2
100073f0:	294b883a 	add	r5,r5,r5
100073f4:	298b883a 	add	r5,r5,r6
100073f8:	2a000217 	ldw	r8,8(r5)
100073fc:	3908983a 	sll	r4,r7,r4
10007400:	81400315 	stw	r5,12(r16)
10007404:	82000215 	stw	r8,8(r16)
10007408:	2088b03a 	or	r4,r4,r2
1000740c:	2c000215 	stw	r16,8(r5)
10007410:	31000115 	stw	r4,4(r6)
10007414:	44000315 	stw	r16,12(r8)
10007418:	1805d0ba 	srai	r2,r3,2
1000741c:	01400044 	movi	r5,1
10007420:	288a983a 	sll	r5,r5,r2
10007424:	21404336 	bltu	r4,r5,10007534 <_malloc_r+0x304>
10007428:	2144703a 	and	r2,r4,r5
1000742c:	10000a1e 	bne	r2,zero,10007458 <_malloc_r+0x228>
10007430:	00bfff04 	movi	r2,-4
10007434:	294b883a 	add	r5,r5,r5
10007438:	1886703a 	and	r3,r3,r2
1000743c:	2144703a 	and	r2,r4,r5
10007440:	18c00104 	addi	r3,r3,4
10007444:	1000041e 	bne	r2,zero,10007458 <_malloc_r+0x228>
10007448:	294b883a 	add	r5,r5,r5
1000744c:	2144703a 	and	r2,r4,r5
10007450:	18c00104 	addi	r3,r3,4
10007454:	103ffc26 	beq	r2,zero,10007448 <__alt_data_end+0xf8007448>
10007458:	023fff04 	movi	r8,-4
1000745c:	01c003c4 	movi	r7,15
10007460:	18c5883a 	add	r2,r3,r3
10007464:	1085883a 	add	r2,r2,r2
10007468:	1085883a 	add	r2,r2,r2
1000746c:	9895883a 	add	r10,r19,r2
10007470:	52c00304 	addi	r11,r10,12
10007474:	1819883a 	mov	r12,r3
10007478:	5c000017 	ldw	r16,0(r11)
1000747c:	59bffd04 	addi	r6,r11,-12
10007480:	8180041e 	bne	r16,r6,10007494 <_malloc_r+0x264>
10007484:	0000ce06 	br	100077c0 <_malloc_r+0x590>
10007488:	2000d70e 	bge	r4,zero,100077e8 <_malloc_r+0x5b8>
1000748c:	84000317 	ldw	r16,12(r16)
10007490:	8180cb26 	beq	r16,r6,100077c0 <_malloc_r+0x590>
10007494:	80800117 	ldw	r2,4(r16)
10007498:	1204703a 	and	r2,r2,r8
1000749c:	1449c83a 	sub	r4,r2,r17
100074a0:	393ff90e 	bge	r7,r4,10007488 <__alt_data_end+0xf8007488>
100074a4:	80800317 	ldw	r2,12(r16)
100074a8:	80c00217 	ldw	r3,8(r16)
100074ac:	89400054 	ori	r5,r17,1
100074b0:	81400115 	stw	r5,4(r16)
100074b4:	18800315 	stw	r2,12(r3)
100074b8:	10c00215 	stw	r3,8(r2)
100074bc:	8463883a 	add	r17,r16,r17
100074c0:	9c400515 	stw	r17,20(r19)
100074c4:	9c400415 	stw	r17,16(r19)
100074c8:	20800054 	ori	r2,r4,1
100074cc:	88800115 	stw	r2,4(r17)
100074d0:	8a400315 	stw	r9,12(r17)
100074d4:	8a400215 	stw	r9,8(r17)
100074d8:	8923883a 	add	r17,r17,r4
100074dc:	89000015 	stw	r4,0(r17)
100074e0:	9009883a 	mov	r4,r18
100074e4:	000f15c0 	call	1000f15c <__malloc_unlock>
100074e8:	80800204 	addi	r2,r16,8
100074ec:	003f7d06 	br	100072e4 <__alt_data_end+0xf80072e4>
100074f0:	00800304 	movi	r2,12
100074f4:	90800015 	stw	r2,0(r18)
100074f8:	0005883a 	mov	r2,zero
100074fc:	003f7906 	br	100072e4 <__alt_data_end+0xf80072e4>
10007500:	01401f84 	movi	r5,126
10007504:	01c00fc4 	movi	r7,63
10007508:	003f8d06 	br	10007340 <__alt_data_end+0xf8007340>
1000750c:	81000317 	ldw	r4,12(r16)
10007510:	003f6a06 	br	100072bc <__alt_data_end+0xf80072bc>
10007514:	81c5883a 	add	r2,r16,r7
10007518:	10c00117 	ldw	r3,4(r2)
1000751c:	9009883a 	mov	r4,r18
10007520:	18c00054 	ori	r3,r3,1
10007524:	10c00115 	stw	r3,4(r2)
10007528:	000f15c0 	call	1000f15c <__malloc_unlock>
1000752c:	80800204 	addi	r2,r16,8
10007530:	003f6c06 	br	100072e4 <__alt_data_end+0xf80072e4>
10007534:	9c000217 	ldw	r16,8(r19)
10007538:	00bfff04 	movi	r2,-4
1000753c:	85800117 	ldw	r22,4(r16)
10007540:	b0ac703a 	and	r22,r22,r2
10007544:	b4400336 	bltu	r22,r17,10007554 <_malloc_r+0x324>
10007548:	b445c83a 	sub	r2,r22,r17
1000754c:	00c003c4 	movi	r3,15
10007550:	18805d16 	blt	r3,r2,100076c8 <_malloc_r+0x498>
10007554:	05c40074 	movhi	r23,4097
10007558:	00840074 	movhi	r2,4097
1000755c:	bdce3604 	addi	r23,r23,14552
10007560:	10950404 	addi	r2,r2,21520
10007564:	15400017 	ldw	r21,0(r2)
10007568:	b9000017 	ldw	r4,0(r23)
1000756c:	00ffffc4 	movi	r3,-1
10007570:	858d883a 	add	r6,r16,r22
10007574:	8d6b883a 	add	r21,r17,r21
10007578:	20c0e426 	beq	r4,r3,1000790c <_malloc_r+0x6dc>
1000757c:	ad4403c4 	addi	r21,r21,4111
10007580:	00fc0004 	movi	r3,-4096
10007584:	a8ea703a 	and	r21,r21,r3
10007588:	9009883a 	mov	r4,r18
1000758c:	a80b883a 	mov	r5,r21
10007590:	d9800015 	stw	r6,0(sp)
10007594:	00094d40 	call	100094d4 <_sbrk_r>
10007598:	00ffffc4 	movi	r3,-1
1000759c:	1029883a 	mov	r20,r2
100075a0:	d9800017 	ldw	r6,0(sp)
100075a4:	10c0a426 	beq	r2,r3,10007838 <_malloc_r+0x608>
100075a8:	1180a236 	bltu	r2,r6,10007834 <_malloc_r+0x604>
100075ac:	07040074 	movhi	fp,4097
100075b0:	e7150c04 	addi	fp,fp,21552
100075b4:	e0c00017 	ldw	r3,0(fp)
100075b8:	a8c7883a 	add	r3,r21,r3
100075bc:	e0c00015 	stw	r3,0(fp)
100075c0:	3500da26 	beq	r6,r20,1000792c <_malloc_r+0x6fc>
100075c4:	b9000017 	ldw	r4,0(r23)
100075c8:	00bfffc4 	movi	r2,-1
100075cc:	2080e426 	beq	r4,r2,10007960 <_malloc_r+0x730>
100075d0:	a185c83a 	sub	r2,r20,r6
100075d4:	1885883a 	add	r2,r3,r2
100075d8:	e0800015 	stw	r2,0(fp)
100075dc:	a0c001cc 	andi	r3,r20,7
100075e0:	1800b526 	beq	r3,zero,100078b8 <_malloc_r+0x688>
100075e4:	a0e9c83a 	sub	r20,r20,r3
100075e8:	00840204 	movi	r2,4104
100075ec:	a5000204 	addi	r20,r20,8
100075f0:	10c7c83a 	sub	r3,r2,r3
100075f4:	a545883a 	add	r2,r20,r21
100075f8:	1083ffcc 	andi	r2,r2,4095
100075fc:	18abc83a 	sub	r21,r3,r2
10007600:	9009883a 	mov	r4,r18
10007604:	a80b883a 	mov	r5,r21
10007608:	00094d40 	call	100094d4 <_sbrk_r>
1000760c:	00ffffc4 	movi	r3,-1
10007610:	10c0d026 	beq	r2,r3,10007954 <_malloc_r+0x724>
10007614:	1507c83a 	sub	r3,r2,r20
10007618:	a8c7883a 	add	r3,r21,r3
1000761c:	18c00054 	ori	r3,r3,1
10007620:	e0800017 	ldw	r2,0(fp)
10007624:	9d000215 	stw	r20,8(r19)
10007628:	a0c00115 	stw	r3,4(r20)
1000762c:	a887883a 	add	r3,r21,r2
10007630:	e0c00015 	stw	r3,0(fp)
10007634:	84c00e26 	beq	r16,r19,10007670 <_malloc_r+0x440>
10007638:	018003c4 	movi	r6,15
1000763c:	3580a02e 	bgeu	r6,r22,100078c0 <_malloc_r+0x690>
10007640:	81400117 	ldw	r5,4(r16)
10007644:	013ffe04 	movi	r4,-8
10007648:	b0bffd04 	addi	r2,r22,-12
1000764c:	1104703a 	and	r2,r2,r4
10007650:	2900004c 	andi	r4,r5,1
10007654:	1108b03a 	or	r4,r2,r4
10007658:	81000115 	stw	r4,4(r16)
1000765c:	01400144 	movi	r5,5
10007660:	8089883a 	add	r4,r16,r2
10007664:	21400115 	stw	r5,4(r4)
10007668:	21400215 	stw	r5,8(r4)
1000766c:	3080c036 	bltu	r6,r2,10007970 <_malloc_r+0x740>
10007670:	00840074 	movhi	r2,4097
10007674:	10950304 	addi	r2,r2,21516
10007678:	11000017 	ldw	r4,0(r2)
1000767c:	20c0012e 	bgeu	r4,r3,10007684 <_malloc_r+0x454>
10007680:	10c00015 	stw	r3,0(r2)
10007684:	00840074 	movhi	r2,4097
10007688:	10950204 	addi	r2,r2,21512
1000768c:	11000017 	ldw	r4,0(r2)
10007690:	9c000217 	ldw	r16,8(r19)
10007694:	20c0012e 	bgeu	r4,r3,1000769c <_malloc_r+0x46c>
10007698:	10c00015 	stw	r3,0(r2)
1000769c:	80c00117 	ldw	r3,4(r16)
100076a0:	00bfff04 	movi	r2,-4
100076a4:	1886703a 	and	r3,r3,r2
100076a8:	1c45c83a 	sub	r2,r3,r17
100076ac:	1c400236 	bltu	r3,r17,100076b8 <_malloc_r+0x488>
100076b0:	00c003c4 	movi	r3,15
100076b4:	18800416 	blt	r3,r2,100076c8 <_malloc_r+0x498>
100076b8:	9009883a 	mov	r4,r18
100076bc:	000f15c0 	call	1000f15c <__malloc_unlock>
100076c0:	0005883a 	mov	r2,zero
100076c4:	003f0706 	br	100072e4 <__alt_data_end+0xf80072e4>
100076c8:	88c00054 	ori	r3,r17,1
100076cc:	80c00115 	stw	r3,4(r16)
100076d0:	8463883a 	add	r17,r16,r17
100076d4:	10800054 	ori	r2,r2,1
100076d8:	9c400215 	stw	r17,8(r19)
100076dc:	88800115 	stw	r2,4(r17)
100076e0:	9009883a 	mov	r4,r18
100076e4:	000f15c0 	call	1000f15c <__malloc_unlock>
100076e8:	80800204 	addi	r2,r16,8
100076ec:	003efd06 	br	100072e4 <__alt_data_end+0xf80072e4>
100076f0:	00800504 	movi	r2,20
100076f4:	10c0482e 	bgeu	r2,r3,10007818 <_malloc_r+0x5e8>
100076f8:	00801504 	movi	r2,84
100076fc:	10c06836 	bltu	r2,r3,100078a0 <_malloc_r+0x670>
10007700:	8806d33a 	srli	r3,r17,12
10007704:	19c01b84 	addi	r7,r3,110
10007708:	39cb883a 	add	r5,r7,r7
1000770c:	003f0c06 	br	10007340 <__alt_data_end+0xf8007340>
10007710:	3804d27a 	srli	r2,r7,9
10007714:	01000104 	movi	r4,4
10007718:	2080422e 	bgeu	r4,r2,10007824 <_malloc_r+0x5f4>
1000771c:	01000504 	movi	r4,20
10007720:	20807c36 	bltu	r4,r2,10007914 <_malloc_r+0x6e4>
10007724:	110016c4 	addi	r4,r2,91
10007728:	210b883a 	add	r5,r4,r4
1000772c:	294b883a 	add	r5,r5,r5
10007730:	294b883a 	add	r5,r5,r5
10007734:	994b883a 	add	r5,r19,r5
10007738:	28800217 	ldw	r2,8(r5)
1000773c:	02040074 	movhi	r8,4097
10007740:	4208af04 	addi	r8,r8,8892
10007744:	11406326 	beq	r2,r5,100078d4 <_malloc_r+0x6a4>
10007748:	01bfff04 	movi	r6,-4
1000774c:	11000117 	ldw	r4,4(r2)
10007750:	2188703a 	and	r4,r4,r6
10007754:	3900022e 	bgeu	r7,r4,10007760 <_malloc_r+0x530>
10007758:	10800217 	ldw	r2,8(r2)
1000775c:	28bffb1e 	bne	r5,r2,1000774c <__alt_data_end+0xf800774c>
10007760:	11800317 	ldw	r6,12(r2)
10007764:	99000117 	ldw	r4,4(r19)
10007768:	81800315 	stw	r6,12(r16)
1000776c:	80800215 	stw	r2,8(r16)
10007770:	34000215 	stw	r16,8(r6)
10007774:	14000315 	stw	r16,12(r2)
10007778:	003f2706 	br	10007418 <__alt_data_end+0xf8007418>
1000777c:	88c00054 	ori	r3,r17,1
10007780:	80c00115 	stw	r3,4(r16)
10007784:	8463883a 	add	r17,r16,r17
10007788:	34400515 	stw	r17,20(r6)
1000778c:	34400415 	stw	r17,16(r6)
10007790:	10c00054 	ori	r3,r2,1
10007794:	8a400315 	stw	r9,12(r17)
10007798:	8a400215 	stw	r9,8(r17)
1000779c:	88c00115 	stw	r3,4(r17)
100077a0:	88a3883a 	add	r17,r17,r2
100077a4:	88800015 	stw	r2,0(r17)
100077a8:	9009883a 	mov	r4,r18
100077ac:	000f15c0 	call	1000f15c <__malloc_unlock>
100077b0:	80800204 	addi	r2,r16,8
100077b4:	003ecb06 	br	100072e4 <__alt_data_end+0xf80072e4>
100077b8:	31000117 	ldw	r4,4(r6)
100077bc:	003f1606 	br	10007418 <__alt_data_end+0xf8007418>
100077c0:	63000044 	addi	r12,r12,1
100077c4:	608000cc 	andi	r2,r12,3
100077c8:	5ac00204 	addi	r11,r11,8
100077cc:	103f2a1e 	bne	r2,zero,10007478 <__alt_data_end+0xf8007478>
100077d0:	00002106 	br	10007858 <_malloc_r+0x628>
100077d4:	80800204 	addi	r2,r16,8
100077d8:	84000517 	ldw	r16,20(r16)
100077dc:	143eb31e 	bne	r2,r16,100072ac <__alt_data_end+0xf80072ac>
100077e0:	18c00084 	addi	r3,r3,2
100077e4:	003eec06 	br	10007398 <__alt_data_end+0xf8007398>
100077e8:	8085883a 	add	r2,r16,r2
100077ec:	10c00117 	ldw	r3,4(r2)
100077f0:	81000317 	ldw	r4,12(r16)
100077f4:	81400217 	ldw	r5,8(r16)
100077f8:	18c00054 	ori	r3,r3,1
100077fc:	10c00115 	stw	r3,4(r2)
10007800:	29000315 	stw	r4,12(r5)
10007804:	21400215 	stw	r5,8(r4)
10007808:	9009883a 	mov	r4,r18
1000780c:	000f15c0 	call	1000f15c <__malloc_unlock>
10007810:	80800204 	addi	r2,r16,8
10007814:	003eb306 	br	100072e4 <__alt_data_end+0xf80072e4>
10007818:	19c016c4 	addi	r7,r3,91
1000781c:	39cb883a 	add	r5,r7,r7
10007820:	003ec706 	br	10007340 <__alt_data_end+0xf8007340>
10007824:	3804d1ba 	srli	r2,r7,6
10007828:	11000e04 	addi	r4,r2,56
1000782c:	210b883a 	add	r5,r4,r4
10007830:	003fbe06 	br	1000772c <__alt_data_end+0xf800772c>
10007834:	84ff5d26 	beq	r16,r19,100075ac <__alt_data_end+0xf80075ac>
10007838:	9c000217 	ldw	r16,8(r19)
1000783c:	00bfff04 	movi	r2,-4
10007840:	80c00117 	ldw	r3,4(r16)
10007844:	1886703a 	and	r3,r3,r2
10007848:	003f9706 	br	100076a8 <__alt_data_end+0xf80076a8>
1000784c:	52800017 	ldw	r10,0(r10)
10007850:	18ffffc4 	addi	r3,r3,-1
10007854:	50805c1e 	bne	r10,r2,100079c8 <_malloc_r+0x798>
10007858:	190000cc 	andi	r4,r3,3
1000785c:	50bffe04 	addi	r2,r10,-8
10007860:	203ffa1e 	bne	r4,zero,1000784c <__alt_data_end+0xf800784c>
10007864:	98800117 	ldw	r2,4(r19)
10007868:	0146303a 	nor	r3,zero,r5
1000786c:	1884703a 	and	r2,r3,r2
10007870:	98800115 	stw	r2,4(r19)
10007874:	294b883a 	add	r5,r5,r5
10007878:	117f2e36 	bltu	r2,r5,10007534 <__alt_data_end+0xf8007534>
1000787c:	283f2d26 	beq	r5,zero,10007534 <__alt_data_end+0xf8007534>
10007880:	1146703a 	and	r3,r2,r5
10007884:	1800521e 	bne	r3,zero,100079d0 <_malloc_r+0x7a0>
10007888:	6007883a 	mov	r3,r12
1000788c:	294b883a 	add	r5,r5,r5
10007890:	1148703a 	and	r4,r2,r5
10007894:	18c00104 	addi	r3,r3,4
10007898:	203ffc26 	beq	r4,zero,1000788c <__alt_data_end+0xf800788c>
1000789c:	003ef006 	br	10007460 <__alt_data_end+0xf8007460>
100078a0:	00805504 	movi	r2,340
100078a4:	10c01336 	bltu	r2,r3,100078f4 <_malloc_r+0x6c4>
100078a8:	8806d3fa 	srli	r3,r17,15
100078ac:	19c01dc4 	addi	r7,r3,119
100078b0:	39cb883a 	add	r5,r7,r7
100078b4:	003ea206 	br	10007340 <__alt_data_end+0xf8007340>
100078b8:	00c40004 	movi	r3,4096
100078bc:	003f4d06 	br	100075f4 <__alt_data_end+0xf80075f4>
100078c0:	00800044 	movi	r2,1
100078c4:	a0800115 	stw	r2,4(r20)
100078c8:	a021883a 	mov	r16,r20
100078cc:	0007883a 	mov	r3,zero
100078d0:	003f7506 	br	100076a8 <__alt_data_end+0xf80076a8>
100078d4:	200bd0ba 	srai	r5,r4,2
100078d8:	01800044 	movi	r6,1
100078dc:	41000117 	ldw	r4,4(r8)
100078e0:	314a983a 	sll	r5,r6,r5
100078e4:	100d883a 	mov	r6,r2
100078e8:	2908b03a 	or	r4,r5,r4
100078ec:	41000115 	stw	r4,4(r8)
100078f0:	003f9d06 	br	10007768 <__alt_data_end+0xf8007768>
100078f4:	00815504 	movi	r2,1364
100078f8:	10c01336 	bltu	r2,r3,10007948 <_malloc_r+0x718>
100078fc:	8806d4ba 	srli	r3,r17,18
10007900:	19c01f04 	addi	r7,r3,124
10007904:	39cb883a 	add	r5,r7,r7
10007908:	003e8d06 	br	10007340 <__alt_data_end+0xf8007340>
1000790c:	ad400404 	addi	r21,r21,16
10007910:	003f1d06 	br	10007588 <__alt_data_end+0xf8007588>
10007914:	01001504 	movi	r4,84
10007918:	20801c36 	bltu	r4,r2,1000798c <_malloc_r+0x75c>
1000791c:	3804d33a 	srli	r2,r7,12
10007920:	11001b84 	addi	r4,r2,110
10007924:	210b883a 	add	r5,r4,r4
10007928:	003f8006 	br	1000772c <__alt_data_end+0xf800772c>
1000792c:	3083ffcc 	andi	r2,r6,4095
10007930:	103f241e 	bne	r2,zero,100075c4 <__alt_data_end+0xf80075c4>
10007934:	99000217 	ldw	r4,8(r19)
10007938:	ad85883a 	add	r2,r21,r22
1000793c:	10800054 	ori	r2,r2,1
10007940:	20800115 	stw	r2,4(r4)
10007944:	003f4a06 	br	10007670 <__alt_data_end+0xf8007670>
10007948:	01403f04 	movi	r5,252
1000794c:	01c01f84 	movi	r7,126
10007950:	003e7b06 	br	10007340 <__alt_data_end+0xf8007340>
10007954:	00c00044 	movi	r3,1
10007958:	002b883a 	mov	r21,zero
1000795c:	003f3006 	br	10007620 <__alt_data_end+0xf8007620>
10007960:	00840074 	movhi	r2,4097
10007964:	108e3604 	addi	r2,r2,14552
10007968:	15000015 	stw	r20,0(r2)
1000796c:	003f1b06 	br	100075dc <__alt_data_end+0xf80075dc>
10007970:	9009883a 	mov	r4,r18
10007974:	81400204 	addi	r5,r16,8
10007978:	00066940 	call	10006694 <_free_r>
1000797c:	00840074 	movhi	r2,4097
10007980:	10950c04 	addi	r2,r2,21552
10007984:	10c00017 	ldw	r3,0(r2)
10007988:	003f3906 	br	10007670 <__alt_data_end+0xf8007670>
1000798c:	01005504 	movi	r4,340
10007990:	20800436 	bltu	r4,r2,100079a4 <_malloc_r+0x774>
10007994:	3804d3fa 	srli	r2,r7,15
10007998:	11001dc4 	addi	r4,r2,119
1000799c:	210b883a 	add	r5,r4,r4
100079a0:	003f6206 	br	1000772c <__alt_data_end+0xf800772c>
100079a4:	01015504 	movi	r4,1364
100079a8:	20800436 	bltu	r4,r2,100079bc <_malloc_r+0x78c>
100079ac:	3804d4ba 	srli	r2,r7,18
100079b0:	11001f04 	addi	r4,r2,124
100079b4:	210b883a 	add	r5,r4,r4
100079b8:	003f5c06 	br	1000772c <__alt_data_end+0xf800772c>
100079bc:	01403f04 	movi	r5,252
100079c0:	01001f84 	movi	r4,126
100079c4:	003f5906 	br	1000772c <__alt_data_end+0xf800772c>
100079c8:	98800117 	ldw	r2,4(r19)
100079cc:	003fa906 	br	10007874 <__alt_data_end+0xf8007874>
100079d0:	6007883a 	mov	r3,r12
100079d4:	003ea206 	br	10007460 <__alt_data_end+0xf8007460>

100079d8 <memchr>:
100079d8:	208000cc 	andi	r2,r4,3
100079dc:	280f883a 	mov	r7,r5
100079e0:	10003526 	beq	r2,zero,10007ab8 <memchr+0xe0>
100079e4:	30bfffc4 	addi	r2,r6,-1
100079e8:	30001b26 	beq	r6,zero,10007a58 <memchr+0x80>
100079ec:	21800003 	ldbu	r6,0(r4)
100079f0:	28c03fcc 	andi	r3,r5,255
100079f4:	30c01a26 	beq	r6,r3,10007a60 <memchr+0x88>
100079f8:	180d883a 	mov	r6,r3
100079fc:	00000406 	br	10007a10 <memchr+0x38>
10007a00:	10001526 	beq	r2,zero,10007a58 <memchr+0x80>
10007a04:	20c00003 	ldbu	r3,0(r4)
10007a08:	10bfffc4 	addi	r2,r2,-1
10007a0c:	19801426 	beq	r3,r6,10007a60 <memchr+0x88>
10007a10:	21000044 	addi	r4,r4,1
10007a14:	20c000cc 	andi	r3,r4,3
10007a18:	183ff91e 	bne	r3,zero,10007a00 <__alt_data_end+0xf8007a00>
10007a1c:	024000c4 	movi	r9,3
10007a20:	48801136 	bltu	r9,r2,10007a68 <memchr+0x90>
10007a24:	10000c26 	beq	r2,zero,10007a58 <memchr+0x80>
10007a28:	20c00003 	ldbu	r3,0(r4)
10007a2c:	29403fcc 	andi	r5,r5,255
10007a30:	19400b26 	beq	r3,r5,10007a60 <memchr+0x88>
10007a34:	20c00044 	addi	r3,r4,1
10007a38:	2085883a 	add	r2,r4,r2
10007a3c:	39803fcc 	andi	r6,r7,255
10007a40:	00000306 	br	10007a50 <memchr+0x78>
10007a44:	18c00044 	addi	r3,r3,1
10007a48:	197fffc3 	ldbu	r5,-1(r3)
10007a4c:	29800426 	beq	r5,r6,10007a60 <memchr+0x88>
10007a50:	1809883a 	mov	r4,r3
10007a54:	18bffb1e 	bne	r3,r2,10007a44 <__alt_data_end+0xf8007a44>
10007a58:	0005883a 	mov	r2,zero
10007a5c:	f800283a 	ret
10007a60:	2005883a 	mov	r2,r4
10007a64:	f800283a 	ret
10007a68:	28c03fcc 	andi	r3,r5,255
10007a6c:	1810923a 	slli	r8,r3,8
10007a70:	02ffbff4 	movhi	r11,65279
10007a74:	02a02074 	movhi	r10,32897
10007a78:	40c6b03a 	or	r3,r8,r3
10007a7c:	1810943a 	slli	r8,r3,16
10007a80:	5affbfc4 	addi	r11,r11,-257
10007a84:	52a02004 	addi	r10,r10,-32640
10007a88:	40d0b03a 	or	r8,r8,r3
10007a8c:	20c00017 	ldw	r3,0(r4)
10007a90:	40c6f03a 	xor	r3,r8,r3
10007a94:	1acd883a 	add	r6,r3,r11
10007a98:	00c6303a 	nor	r3,zero,r3
10007a9c:	30c6703a 	and	r3,r6,r3
10007aa0:	1a86703a 	and	r3,r3,r10
10007aa4:	183fdf1e 	bne	r3,zero,10007a24 <__alt_data_end+0xf8007a24>
10007aa8:	10bfff04 	addi	r2,r2,-4
10007aac:	21000104 	addi	r4,r4,4
10007ab0:	48bff636 	bltu	r9,r2,10007a8c <__alt_data_end+0xf8007a8c>
10007ab4:	003fdb06 	br	10007a24 <__alt_data_end+0xf8007a24>
10007ab8:	3005883a 	mov	r2,r6
10007abc:	003fd706 	br	10007a1c <__alt_data_end+0xf8007a1c>

10007ac0 <memcpy>:
10007ac0:	deffff04 	addi	sp,sp,-4
10007ac4:	dc000015 	stw	r16,0(sp)
10007ac8:	00c003c4 	movi	r3,15
10007acc:	2005883a 	mov	r2,r4
10007ad0:	1980432e 	bgeu	r3,r6,10007be0 <memcpy+0x120>
10007ad4:	2146b03a 	or	r3,r4,r5
10007ad8:	18c000cc 	andi	r3,r3,3
10007adc:	1800421e 	bne	r3,zero,10007be8 <memcpy+0x128>
10007ae0:	343ffc04 	addi	r16,r6,-16
10007ae4:	8020d13a 	srli	r16,r16,4
10007ae8:	28c00104 	addi	r3,r5,4
10007aec:	23400104 	addi	r13,r4,4
10007af0:	801e913a 	slli	r15,r16,4
10007af4:	2b000204 	addi	r12,r5,8
10007af8:	22c00204 	addi	r11,r4,8
10007afc:	7bc00504 	addi	r15,r15,20
10007b00:	2a800304 	addi	r10,r5,12
10007b04:	22400304 	addi	r9,r4,12
10007b08:	2bdf883a 	add	r15,r5,r15
10007b0c:	2811883a 	mov	r8,r5
10007b10:	200f883a 	mov	r7,r4
10007b14:	41000017 	ldw	r4,0(r8)
10007b18:	39c00404 	addi	r7,r7,16
10007b1c:	18c00404 	addi	r3,r3,16
10007b20:	393ffc15 	stw	r4,-16(r7)
10007b24:	1bbffc17 	ldw	r14,-16(r3)
10007b28:	6b400404 	addi	r13,r13,16
10007b2c:	5ac00404 	addi	r11,r11,16
10007b30:	6bbffc15 	stw	r14,-16(r13)
10007b34:	63800017 	ldw	r14,0(r12)
10007b38:	4a400404 	addi	r9,r9,16
10007b3c:	42000404 	addi	r8,r8,16
10007b40:	5bbffc15 	stw	r14,-16(r11)
10007b44:	53800017 	ldw	r14,0(r10)
10007b48:	63000404 	addi	r12,r12,16
10007b4c:	52800404 	addi	r10,r10,16
10007b50:	4bbffc15 	stw	r14,-16(r9)
10007b54:	1bffef1e 	bne	r3,r15,10007b14 <__alt_data_end+0xf8007b14>
10007b58:	81c00044 	addi	r7,r16,1
10007b5c:	380e913a 	slli	r7,r7,4
10007b60:	310003cc 	andi	r4,r6,15
10007b64:	02c000c4 	movi	r11,3
10007b68:	11c7883a 	add	r3,r2,r7
10007b6c:	29cb883a 	add	r5,r5,r7
10007b70:	59001f2e 	bgeu	r11,r4,10007bf0 <memcpy+0x130>
10007b74:	1813883a 	mov	r9,r3
10007b78:	2811883a 	mov	r8,r5
10007b7c:	200f883a 	mov	r7,r4
10007b80:	42800017 	ldw	r10,0(r8)
10007b84:	4a400104 	addi	r9,r9,4
10007b88:	39ffff04 	addi	r7,r7,-4
10007b8c:	4abfff15 	stw	r10,-4(r9)
10007b90:	42000104 	addi	r8,r8,4
10007b94:	59fffa36 	bltu	r11,r7,10007b80 <__alt_data_end+0xf8007b80>
10007b98:	213fff04 	addi	r4,r4,-4
10007b9c:	2008d0ba 	srli	r4,r4,2
10007ba0:	318000cc 	andi	r6,r6,3
10007ba4:	21000044 	addi	r4,r4,1
10007ba8:	2109883a 	add	r4,r4,r4
10007bac:	2109883a 	add	r4,r4,r4
10007bb0:	1907883a 	add	r3,r3,r4
10007bb4:	290b883a 	add	r5,r5,r4
10007bb8:	30000626 	beq	r6,zero,10007bd4 <memcpy+0x114>
10007bbc:	198d883a 	add	r6,r3,r6
10007bc0:	29c00003 	ldbu	r7,0(r5)
10007bc4:	18c00044 	addi	r3,r3,1
10007bc8:	29400044 	addi	r5,r5,1
10007bcc:	19ffffc5 	stb	r7,-1(r3)
10007bd0:	19bffb1e 	bne	r3,r6,10007bc0 <__alt_data_end+0xf8007bc0>
10007bd4:	dc000017 	ldw	r16,0(sp)
10007bd8:	dec00104 	addi	sp,sp,4
10007bdc:	f800283a 	ret
10007be0:	2007883a 	mov	r3,r4
10007be4:	003ff406 	br	10007bb8 <__alt_data_end+0xf8007bb8>
10007be8:	2007883a 	mov	r3,r4
10007bec:	003ff306 	br	10007bbc <__alt_data_end+0xf8007bbc>
10007bf0:	200d883a 	mov	r6,r4
10007bf4:	003ff006 	br	10007bb8 <__alt_data_end+0xf8007bb8>

10007bf8 <memmove>:
10007bf8:	2005883a 	mov	r2,r4
10007bfc:	29000b2e 	bgeu	r5,r4,10007c2c <memmove+0x34>
10007c00:	298f883a 	add	r7,r5,r6
10007c04:	21c0092e 	bgeu	r4,r7,10007c2c <memmove+0x34>
10007c08:	2187883a 	add	r3,r4,r6
10007c0c:	198bc83a 	sub	r5,r3,r6
10007c10:	30004b26 	beq	r6,zero,10007d40 <memmove+0x148>
10007c14:	39ffffc4 	addi	r7,r7,-1
10007c18:	39000003 	ldbu	r4,0(r7)
10007c1c:	18ffffc4 	addi	r3,r3,-1
10007c20:	19000005 	stb	r4,0(r3)
10007c24:	197ffb1e 	bne	r3,r5,10007c14 <__alt_data_end+0xf8007c14>
10007c28:	f800283a 	ret
10007c2c:	00c003c4 	movi	r3,15
10007c30:	1980412e 	bgeu	r3,r6,10007d38 <memmove+0x140>
10007c34:	1146b03a 	or	r3,r2,r5
10007c38:	18c000cc 	andi	r3,r3,3
10007c3c:	1800411e 	bne	r3,zero,10007d44 <memmove+0x14c>
10007c40:	33fffc04 	addi	r15,r6,-16
10007c44:	781ed13a 	srli	r15,r15,4
10007c48:	28c00104 	addi	r3,r5,4
10007c4c:	13400104 	addi	r13,r2,4
10007c50:	781c913a 	slli	r14,r15,4
10007c54:	2b000204 	addi	r12,r5,8
10007c58:	12c00204 	addi	r11,r2,8
10007c5c:	73800504 	addi	r14,r14,20
10007c60:	2a800304 	addi	r10,r5,12
10007c64:	12400304 	addi	r9,r2,12
10007c68:	2b9d883a 	add	r14,r5,r14
10007c6c:	2811883a 	mov	r8,r5
10007c70:	100f883a 	mov	r7,r2
10007c74:	41000017 	ldw	r4,0(r8)
10007c78:	39c00404 	addi	r7,r7,16
10007c7c:	18c00404 	addi	r3,r3,16
10007c80:	393ffc15 	stw	r4,-16(r7)
10007c84:	193ffc17 	ldw	r4,-16(r3)
10007c88:	6b400404 	addi	r13,r13,16
10007c8c:	5ac00404 	addi	r11,r11,16
10007c90:	693ffc15 	stw	r4,-16(r13)
10007c94:	61000017 	ldw	r4,0(r12)
10007c98:	4a400404 	addi	r9,r9,16
10007c9c:	42000404 	addi	r8,r8,16
10007ca0:	593ffc15 	stw	r4,-16(r11)
10007ca4:	51000017 	ldw	r4,0(r10)
10007ca8:	63000404 	addi	r12,r12,16
10007cac:	52800404 	addi	r10,r10,16
10007cb0:	493ffc15 	stw	r4,-16(r9)
10007cb4:	1bbfef1e 	bne	r3,r14,10007c74 <__alt_data_end+0xf8007c74>
10007cb8:	79000044 	addi	r4,r15,1
10007cbc:	2008913a 	slli	r4,r4,4
10007cc0:	328003cc 	andi	r10,r6,15
10007cc4:	02c000c4 	movi	r11,3
10007cc8:	1107883a 	add	r3,r2,r4
10007ccc:	290b883a 	add	r5,r5,r4
10007cd0:	5a801e2e 	bgeu	r11,r10,10007d4c <memmove+0x154>
10007cd4:	1813883a 	mov	r9,r3
10007cd8:	2811883a 	mov	r8,r5
10007cdc:	500f883a 	mov	r7,r10
10007ce0:	41000017 	ldw	r4,0(r8)
10007ce4:	4a400104 	addi	r9,r9,4
10007ce8:	39ffff04 	addi	r7,r7,-4
10007cec:	493fff15 	stw	r4,-4(r9)
10007cf0:	42000104 	addi	r8,r8,4
10007cf4:	59fffa36 	bltu	r11,r7,10007ce0 <__alt_data_end+0xf8007ce0>
10007cf8:	513fff04 	addi	r4,r10,-4
10007cfc:	2008d0ba 	srli	r4,r4,2
10007d00:	318000cc 	andi	r6,r6,3
10007d04:	21000044 	addi	r4,r4,1
10007d08:	2109883a 	add	r4,r4,r4
10007d0c:	2109883a 	add	r4,r4,r4
10007d10:	1907883a 	add	r3,r3,r4
10007d14:	290b883a 	add	r5,r5,r4
10007d18:	30000926 	beq	r6,zero,10007d40 <memmove+0x148>
10007d1c:	198d883a 	add	r6,r3,r6
10007d20:	29c00003 	ldbu	r7,0(r5)
10007d24:	18c00044 	addi	r3,r3,1
10007d28:	29400044 	addi	r5,r5,1
10007d2c:	19ffffc5 	stb	r7,-1(r3)
10007d30:	19bffb1e 	bne	r3,r6,10007d20 <__alt_data_end+0xf8007d20>
10007d34:	f800283a 	ret
10007d38:	1007883a 	mov	r3,r2
10007d3c:	003ff606 	br	10007d18 <__alt_data_end+0xf8007d18>
10007d40:	f800283a 	ret
10007d44:	1007883a 	mov	r3,r2
10007d48:	003ff406 	br	10007d1c <__alt_data_end+0xf8007d1c>
10007d4c:	500d883a 	mov	r6,r10
10007d50:	003ff106 	br	10007d18 <__alt_data_end+0xf8007d18>

10007d54 <memset>:
10007d54:	20c000cc 	andi	r3,r4,3
10007d58:	2005883a 	mov	r2,r4
10007d5c:	18004326 	beq	r3,zero,10007e6c <memset+0x118>
10007d60:	31ffffc4 	addi	r7,r6,-1
10007d64:	30004026 	beq	r6,zero,10007e68 <memset+0x114>
10007d68:	2813883a 	mov	r9,r5
10007d6c:	200d883a 	mov	r6,r4
10007d70:	2007883a 	mov	r3,r4
10007d74:	00000406 	br	10007d88 <memset+0x34>
10007d78:	3a3fffc4 	addi	r8,r7,-1
10007d7c:	31800044 	addi	r6,r6,1
10007d80:	38003926 	beq	r7,zero,10007e68 <memset+0x114>
10007d84:	400f883a 	mov	r7,r8
10007d88:	18c00044 	addi	r3,r3,1
10007d8c:	32400005 	stb	r9,0(r6)
10007d90:	1a0000cc 	andi	r8,r3,3
10007d94:	403ff81e 	bne	r8,zero,10007d78 <__alt_data_end+0xf8007d78>
10007d98:	010000c4 	movi	r4,3
10007d9c:	21c02d2e 	bgeu	r4,r7,10007e54 <memset+0x100>
10007da0:	29803fcc 	andi	r6,r5,255
10007da4:	3008923a 	slli	r4,r6,8
10007da8:	218cb03a 	or	r6,r4,r6
10007dac:	3008943a 	slli	r4,r6,16
10007db0:	218cb03a 	or	r6,r4,r6
10007db4:	010003c4 	movi	r4,15
10007db8:	21c0182e 	bgeu	r4,r7,10007e1c <memset+0xc8>
10007dbc:	3b3ffc04 	addi	r12,r7,-16
10007dc0:	6018d13a 	srli	r12,r12,4
10007dc4:	1a000104 	addi	r8,r3,4
10007dc8:	1ac00204 	addi	r11,r3,8
10007dcc:	6008913a 	slli	r4,r12,4
10007dd0:	1a800304 	addi	r10,r3,12
10007dd4:	1813883a 	mov	r9,r3
10007dd8:	21000504 	addi	r4,r4,20
10007ddc:	1909883a 	add	r4,r3,r4
10007de0:	49800015 	stw	r6,0(r9)
10007de4:	41800015 	stw	r6,0(r8)
10007de8:	59800015 	stw	r6,0(r11)
10007dec:	51800015 	stw	r6,0(r10)
10007df0:	42000404 	addi	r8,r8,16
10007df4:	4a400404 	addi	r9,r9,16
10007df8:	5ac00404 	addi	r11,r11,16
10007dfc:	52800404 	addi	r10,r10,16
10007e00:	413ff71e 	bne	r8,r4,10007de0 <__alt_data_end+0xf8007de0>
10007e04:	63000044 	addi	r12,r12,1
10007e08:	6018913a 	slli	r12,r12,4
10007e0c:	39c003cc 	andi	r7,r7,15
10007e10:	010000c4 	movi	r4,3
10007e14:	1b07883a 	add	r3,r3,r12
10007e18:	21c00e2e 	bgeu	r4,r7,10007e54 <memset+0x100>
10007e1c:	1813883a 	mov	r9,r3
10007e20:	3811883a 	mov	r8,r7
10007e24:	010000c4 	movi	r4,3
10007e28:	49800015 	stw	r6,0(r9)
10007e2c:	423fff04 	addi	r8,r8,-4
10007e30:	4a400104 	addi	r9,r9,4
10007e34:	223ffc36 	bltu	r4,r8,10007e28 <__alt_data_end+0xf8007e28>
10007e38:	393fff04 	addi	r4,r7,-4
10007e3c:	2008d0ba 	srli	r4,r4,2
10007e40:	39c000cc 	andi	r7,r7,3
10007e44:	21000044 	addi	r4,r4,1
10007e48:	2109883a 	add	r4,r4,r4
10007e4c:	2109883a 	add	r4,r4,r4
10007e50:	1907883a 	add	r3,r3,r4
10007e54:	38000426 	beq	r7,zero,10007e68 <memset+0x114>
10007e58:	19cf883a 	add	r7,r3,r7
10007e5c:	19400005 	stb	r5,0(r3)
10007e60:	18c00044 	addi	r3,r3,1
10007e64:	19fffd1e 	bne	r3,r7,10007e5c <__alt_data_end+0xf8007e5c>
10007e68:	f800283a 	ret
10007e6c:	2007883a 	mov	r3,r4
10007e70:	300f883a 	mov	r7,r6
10007e74:	003fc806 	br	10007d98 <__alt_data_end+0xf8007d98>

10007e78 <_Balloc>:
10007e78:	20801317 	ldw	r2,76(r4)
10007e7c:	defffc04 	addi	sp,sp,-16
10007e80:	dc400115 	stw	r17,4(sp)
10007e84:	dc000015 	stw	r16,0(sp)
10007e88:	dfc00315 	stw	ra,12(sp)
10007e8c:	dc800215 	stw	r18,8(sp)
10007e90:	2023883a 	mov	r17,r4
10007e94:	2821883a 	mov	r16,r5
10007e98:	10000f26 	beq	r2,zero,10007ed8 <_Balloc+0x60>
10007e9c:	8407883a 	add	r3,r16,r16
10007ea0:	18c7883a 	add	r3,r3,r3
10007ea4:	10c7883a 	add	r3,r2,r3
10007ea8:	18800017 	ldw	r2,0(r3)
10007eac:	10001126 	beq	r2,zero,10007ef4 <_Balloc+0x7c>
10007eb0:	11000017 	ldw	r4,0(r2)
10007eb4:	19000015 	stw	r4,0(r3)
10007eb8:	10000415 	stw	zero,16(r2)
10007ebc:	10000315 	stw	zero,12(r2)
10007ec0:	dfc00317 	ldw	ra,12(sp)
10007ec4:	dc800217 	ldw	r18,8(sp)
10007ec8:	dc400117 	ldw	r17,4(sp)
10007ecc:	dc000017 	ldw	r16,0(sp)
10007ed0:	dec00404 	addi	sp,sp,16
10007ed4:	f800283a 	ret
10007ed8:	01400104 	movi	r5,4
10007edc:	01800844 	movi	r6,33
10007ee0:	000ad140 	call	1000ad14 <_calloc_r>
10007ee4:	88801315 	stw	r2,76(r17)
10007ee8:	103fec1e 	bne	r2,zero,10007e9c <__alt_data_end+0xf8007e9c>
10007eec:	0005883a 	mov	r2,zero
10007ef0:	003ff306 	br	10007ec0 <__alt_data_end+0xf8007ec0>
10007ef4:	01400044 	movi	r5,1
10007ef8:	2c24983a 	sll	r18,r5,r16
10007efc:	8809883a 	mov	r4,r17
10007f00:	91800144 	addi	r6,r18,5
10007f04:	318d883a 	add	r6,r6,r6
10007f08:	318d883a 	add	r6,r6,r6
10007f0c:	000ad140 	call	1000ad14 <_calloc_r>
10007f10:	103ff626 	beq	r2,zero,10007eec <__alt_data_end+0xf8007eec>
10007f14:	14000115 	stw	r16,4(r2)
10007f18:	14800215 	stw	r18,8(r2)
10007f1c:	003fe606 	br	10007eb8 <__alt_data_end+0xf8007eb8>

10007f20 <_Bfree>:
10007f20:	28000826 	beq	r5,zero,10007f44 <_Bfree+0x24>
10007f24:	28c00117 	ldw	r3,4(r5)
10007f28:	20801317 	ldw	r2,76(r4)
10007f2c:	18c7883a 	add	r3,r3,r3
10007f30:	18c7883a 	add	r3,r3,r3
10007f34:	10c5883a 	add	r2,r2,r3
10007f38:	10c00017 	ldw	r3,0(r2)
10007f3c:	28c00015 	stw	r3,0(r5)
10007f40:	11400015 	stw	r5,0(r2)
10007f44:	f800283a 	ret

10007f48 <__multadd>:
10007f48:	defff704 	addi	sp,sp,-36
10007f4c:	dc800215 	stw	r18,8(sp)
10007f50:	2c800417 	ldw	r18,16(r5)
10007f54:	ddc00715 	stw	r23,28(sp)
10007f58:	dd800615 	stw	r22,24(sp)
10007f5c:	dd000415 	stw	r20,16(sp)
10007f60:	dcc00315 	stw	r19,12(sp)
10007f64:	dc400115 	stw	r17,4(sp)
10007f68:	dc000015 	stw	r16,0(sp)
10007f6c:	dfc00815 	stw	ra,32(sp)
10007f70:	dd400515 	stw	r21,20(sp)
10007f74:	2827883a 	mov	r19,r5
10007f78:	2029883a 	mov	r20,r4
10007f7c:	3023883a 	mov	r17,r6
10007f80:	3821883a 	mov	r16,r7
10007f84:	2d800504 	addi	r22,r5,20
10007f88:	002f883a 	mov	r23,zero
10007f8c:	b5400017 	ldw	r21,0(r22)
10007f90:	880b883a 	mov	r5,r17
10007f94:	bdc00044 	addi	r23,r23,1
10007f98:	a93fffcc 	andi	r4,r21,65535
10007f9c:	000c3380 	call	1000c338 <__mulsi3>
10007fa0:	1421883a 	add	r16,r2,r16
10007fa4:	a808d43a 	srli	r4,r21,16
10007fa8:	802ad43a 	srli	r21,r16,16
10007fac:	880b883a 	mov	r5,r17
10007fb0:	000c3380 	call	1000c338 <__mulsi3>
10007fb4:	a88f883a 	add	r7,r21,r2
10007fb8:	3804943a 	slli	r2,r7,16
10007fbc:	80ffffcc 	andi	r3,r16,65535
10007fc0:	b5800104 	addi	r22,r22,4
10007fc4:	10c7883a 	add	r3,r2,r3
10007fc8:	b0ffff15 	stw	r3,-4(r22)
10007fcc:	3820d43a 	srli	r16,r7,16
10007fd0:	bcbfee16 	blt	r23,r18,10007f8c <__alt_data_end+0xf8007f8c>
10007fd4:	80000926 	beq	r16,zero,10007ffc <__multadd+0xb4>
10007fd8:	98800217 	ldw	r2,8(r19)
10007fdc:	9080130e 	bge	r18,r2,1000802c <__multadd+0xe4>
10007fe0:	90800144 	addi	r2,r18,5
10007fe4:	1085883a 	add	r2,r2,r2
10007fe8:	1085883a 	add	r2,r2,r2
10007fec:	9885883a 	add	r2,r19,r2
10007ff0:	14000015 	stw	r16,0(r2)
10007ff4:	94800044 	addi	r18,r18,1
10007ff8:	9c800415 	stw	r18,16(r19)
10007ffc:	9805883a 	mov	r2,r19
10008000:	dfc00817 	ldw	ra,32(sp)
10008004:	ddc00717 	ldw	r23,28(sp)
10008008:	dd800617 	ldw	r22,24(sp)
1000800c:	dd400517 	ldw	r21,20(sp)
10008010:	dd000417 	ldw	r20,16(sp)
10008014:	dcc00317 	ldw	r19,12(sp)
10008018:	dc800217 	ldw	r18,8(sp)
1000801c:	dc400117 	ldw	r17,4(sp)
10008020:	dc000017 	ldw	r16,0(sp)
10008024:	dec00904 	addi	sp,sp,36
10008028:	f800283a 	ret
1000802c:	99400117 	ldw	r5,4(r19)
10008030:	a009883a 	mov	r4,r20
10008034:	29400044 	addi	r5,r5,1
10008038:	0007e780 	call	10007e78 <_Balloc>
1000803c:	99800417 	ldw	r6,16(r19)
10008040:	99400304 	addi	r5,r19,12
10008044:	11000304 	addi	r4,r2,12
10008048:	31800084 	addi	r6,r6,2
1000804c:	318d883a 	add	r6,r6,r6
10008050:	318d883a 	add	r6,r6,r6
10008054:	1023883a 	mov	r17,r2
10008058:	0007ac00 	call	10007ac0 <memcpy>
1000805c:	99000117 	ldw	r4,4(r19)
10008060:	a0c01317 	ldw	r3,76(r20)
10008064:	2109883a 	add	r4,r4,r4
10008068:	2109883a 	add	r4,r4,r4
1000806c:	1907883a 	add	r3,r3,r4
10008070:	18800017 	ldw	r2,0(r3)
10008074:	98800015 	stw	r2,0(r19)
10008078:	1cc00015 	stw	r19,0(r3)
1000807c:	8827883a 	mov	r19,r17
10008080:	003fd706 	br	10007fe0 <__alt_data_end+0xf8007fe0>

10008084 <__s2b>:
10008084:	defff904 	addi	sp,sp,-28
10008088:	dc400115 	stw	r17,4(sp)
1000808c:	dc000015 	stw	r16,0(sp)
10008090:	2023883a 	mov	r17,r4
10008094:	2821883a 	mov	r16,r5
10008098:	39000204 	addi	r4,r7,8
1000809c:	01400244 	movi	r5,9
100080a0:	dcc00315 	stw	r19,12(sp)
100080a4:	dc800215 	stw	r18,8(sp)
100080a8:	dfc00615 	stw	ra,24(sp)
100080ac:	dd400515 	stw	r21,20(sp)
100080b0:	dd000415 	stw	r20,16(sp)
100080b4:	3825883a 	mov	r18,r7
100080b8:	3027883a 	mov	r19,r6
100080bc:	000c2780 	call	1000c278 <__divsi3>
100080c0:	00c00044 	movi	r3,1
100080c4:	000b883a 	mov	r5,zero
100080c8:	1880030e 	bge	r3,r2,100080d8 <__s2b+0x54>
100080cc:	18c7883a 	add	r3,r3,r3
100080d0:	29400044 	addi	r5,r5,1
100080d4:	18bffd16 	blt	r3,r2,100080cc <__alt_data_end+0xf80080cc>
100080d8:	8809883a 	mov	r4,r17
100080dc:	0007e780 	call	10007e78 <_Balloc>
100080e0:	d8c00717 	ldw	r3,28(sp)
100080e4:	10c00515 	stw	r3,20(r2)
100080e8:	00c00044 	movi	r3,1
100080ec:	10c00415 	stw	r3,16(r2)
100080f0:	00c00244 	movi	r3,9
100080f4:	1cc0210e 	bge	r3,r19,1000817c <__s2b+0xf8>
100080f8:	80eb883a 	add	r21,r16,r3
100080fc:	a829883a 	mov	r20,r21
10008100:	84e1883a 	add	r16,r16,r19
10008104:	a1c00007 	ldb	r7,0(r20)
10008108:	8809883a 	mov	r4,r17
1000810c:	a5000044 	addi	r20,r20,1
10008110:	100b883a 	mov	r5,r2
10008114:	01800284 	movi	r6,10
10008118:	39fff404 	addi	r7,r7,-48
1000811c:	0007f480 	call	10007f48 <__multadd>
10008120:	a43ff81e 	bne	r20,r16,10008104 <__alt_data_end+0xf8008104>
10008124:	ace1883a 	add	r16,r21,r19
10008128:	843ffe04 	addi	r16,r16,-8
1000812c:	9c800a0e 	bge	r19,r18,10008158 <__s2b+0xd4>
10008130:	94e5c83a 	sub	r18,r18,r19
10008134:	84a5883a 	add	r18,r16,r18
10008138:	81c00007 	ldb	r7,0(r16)
1000813c:	8809883a 	mov	r4,r17
10008140:	84000044 	addi	r16,r16,1
10008144:	100b883a 	mov	r5,r2
10008148:	01800284 	movi	r6,10
1000814c:	39fff404 	addi	r7,r7,-48
10008150:	0007f480 	call	10007f48 <__multadd>
10008154:	84bff81e 	bne	r16,r18,10008138 <__alt_data_end+0xf8008138>
10008158:	dfc00617 	ldw	ra,24(sp)
1000815c:	dd400517 	ldw	r21,20(sp)
10008160:	dd000417 	ldw	r20,16(sp)
10008164:	dcc00317 	ldw	r19,12(sp)
10008168:	dc800217 	ldw	r18,8(sp)
1000816c:	dc400117 	ldw	r17,4(sp)
10008170:	dc000017 	ldw	r16,0(sp)
10008174:	dec00704 	addi	sp,sp,28
10008178:	f800283a 	ret
1000817c:	84000284 	addi	r16,r16,10
10008180:	1827883a 	mov	r19,r3
10008184:	003fe906 	br	1000812c <__alt_data_end+0xf800812c>

10008188 <__hi0bits>:
10008188:	20bfffec 	andhi	r2,r4,65535
1000818c:	1000141e 	bne	r2,zero,100081e0 <__hi0bits+0x58>
10008190:	2008943a 	slli	r4,r4,16
10008194:	00800404 	movi	r2,16
10008198:	20ffc02c 	andhi	r3,r4,65280
1000819c:	1800021e 	bne	r3,zero,100081a8 <__hi0bits+0x20>
100081a0:	2008923a 	slli	r4,r4,8
100081a4:	10800204 	addi	r2,r2,8
100081a8:	20fc002c 	andhi	r3,r4,61440
100081ac:	1800021e 	bne	r3,zero,100081b8 <__hi0bits+0x30>
100081b0:	2008913a 	slli	r4,r4,4
100081b4:	10800104 	addi	r2,r2,4
100081b8:	20f0002c 	andhi	r3,r4,49152
100081bc:	1800031e 	bne	r3,zero,100081cc <__hi0bits+0x44>
100081c0:	2109883a 	add	r4,r4,r4
100081c4:	10800084 	addi	r2,r2,2
100081c8:	2109883a 	add	r4,r4,r4
100081cc:	20000316 	blt	r4,zero,100081dc <__hi0bits+0x54>
100081d0:	2110002c 	andhi	r4,r4,16384
100081d4:	2000041e 	bne	r4,zero,100081e8 <__hi0bits+0x60>
100081d8:	00800804 	movi	r2,32
100081dc:	f800283a 	ret
100081e0:	0005883a 	mov	r2,zero
100081e4:	003fec06 	br	10008198 <__alt_data_end+0xf8008198>
100081e8:	10800044 	addi	r2,r2,1
100081ec:	f800283a 	ret

100081f0 <__lo0bits>:
100081f0:	20c00017 	ldw	r3,0(r4)
100081f4:	188001cc 	andi	r2,r3,7
100081f8:	10000826 	beq	r2,zero,1000821c <__lo0bits+0x2c>
100081fc:	1880004c 	andi	r2,r3,1
10008200:	1000211e 	bne	r2,zero,10008288 <__lo0bits+0x98>
10008204:	1880008c 	andi	r2,r3,2
10008208:	1000211e 	bne	r2,zero,10008290 <__lo0bits+0xa0>
1000820c:	1806d0ba 	srli	r3,r3,2
10008210:	00800084 	movi	r2,2
10008214:	20c00015 	stw	r3,0(r4)
10008218:	f800283a 	ret
1000821c:	18bfffcc 	andi	r2,r3,65535
10008220:	10001326 	beq	r2,zero,10008270 <__lo0bits+0x80>
10008224:	0005883a 	mov	r2,zero
10008228:	19403fcc 	andi	r5,r3,255
1000822c:	2800021e 	bne	r5,zero,10008238 <__lo0bits+0x48>
10008230:	1806d23a 	srli	r3,r3,8
10008234:	10800204 	addi	r2,r2,8
10008238:	194003cc 	andi	r5,r3,15
1000823c:	2800021e 	bne	r5,zero,10008248 <__lo0bits+0x58>
10008240:	1806d13a 	srli	r3,r3,4
10008244:	10800104 	addi	r2,r2,4
10008248:	194000cc 	andi	r5,r3,3
1000824c:	2800021e 	bne	r5,zero,10008258 <__lo0bits+0x68>
10008250:	1806d0ba 	srli	r3,r3,2
10008254:	10800084 	addi	r2,r2,2
10008258:	1940004c 	andi	r5,r3,1
1000825c:	2800081e 	bne	r5,zero,10008280 <__lo0bits+0x90>
10008260:	1806d07a 	srli	r3,r3,1
10008264:	1800051e 	bne	r3,zero,1000827c <__lo0bits+0x8c>
10008268:	00800804 	movi	r2,32
1000826c:	f800283a 	ret
10008270:	1806d43a 	srli	r3,r3,16
10008274:	00800404 	movi	r2,16
10008278:	003feb06 	br	10008228 <__alt_data_end+0xf8008228>
1000827c:	10800044 	addi	r2,r2,1
10008280:	20c00015 	stw	r3,0(r4)
10008284:	f800283a 	ret
10008288:	0005883a 	mov	r2,zero
1000828c:	f800283a 	ret
10008290:	1806d07a 	srli	r3,r3,1
10008294:	00800044 	movi	r2,1
10008298:	20c00015 	stw	r3,0(r4)
1000829c:	f800283a 	ret

100082a0 <__i2b>:
100082a0:	defffd04 	addi	sp,sp,-12
100082a4:	dc000015 	stw	r16,0(sp)
100082a8:	04000044 	movi	r16,1
100082ac:	dc400115 	stw	r17,4(sp)
100082b0:	2823883a 	mov	r17,r5
100082b4:	800b883a 	mov	r5,r16
100082b8:	dfc00215 	stw	ra,8(sp)
100082bc:	0007e780 	call	10007e78 <_Balloc>
100082c0:	14400515 	stw	r17,20(r2)
100082c4:	14000415 	stw	r16,16(r2)
100082c8:	dfc00217 	ldw	ra,8(sp)
100082cc:	dc400117 	ldw	r17,4(sp)
100082d0:	dc000017 	ldw	r16,0(sp)
100082d4:	dec00304 	addi	sp,sp,12
100082d8:	f800283a 	ret

100082dc <__multiply>:
100082dc:	deffef04 	addi	sp,sp,-68
100082e0:	dc400815 	stw	r17,32(sp)
100082e4:	dc000715 	stw	r16,28(sp)
100082e8:	2c400417 	ldw	r17,16(r5)
100082ec:	34000417 	ldw	r16,16(r6)
100082f0:	dd800d15 	stw	r22,52(sp)
100082f4:	dc800915 	stw	r18,36(sp)
100082f8:	dfc01015 	stw	ra,64(sp)
100082fc:	df000f15 	stw	fp,60(sp)
10008300:	ddc00e15 	stw	r23,56(sp)
10008304:	dd400c15 	stw	r21,48(sp)
10008308:	dd000b15 	stw	r20,44(sp)
1000830c:	dcc00a15 	stw	r19,40(sp)
10008310:	2825883a 	mov	r18,r5
10008314:	302d883a 	mov	r22,r6
10008318:	8c009116 	blt	r17,r16,10008560 <__multiply+0x284>
1000831c:	8005883a 	mov	r2,r16
10008320:	8821883a 	mov	r16,r17
10008324:	1023883a 	mov	r17,r2
10008328:	90800217 	ldw	r2,8(r18)
1000832c:	8447883a 	add	r3,r16,r17
10008330:	d8c00215 	stw	r3,8(sp)
10008334:	91400117 	ldw	r5,4(r18)
10008338:	10c0010e 	bge	r2,r3,10008340 <__multiply+0x64>
1000833c:	29400044 	addi	r5,r5,1
10008340:	0007e780 	call	10007e78 <_Balloc>
10008344:	d8c00217 	ldw	r3,8(sp)
10008348:	d8800615 	stw	r2,24(sp)
1000834c:	18eb883a 	add	r21,r3,r3
10008350:	ad6b883a 	add	r21,r21,r21
10008354:	10c00504 	addi	r3,r2,20
10008358:	1d6b883a 	add	r21,r3,r21
1000835c:	d8c00115 	stw	r3,4(sp)
10008360:	dd400315 	stw	r21,12(sp)
10008364:	1805883a 	mov	r2,r3
10008368:	1d40042e 	bgeu	r3,r21,1000837c <__multiply+0xa0>
1000836c:	d8c00317 	ldw	r3,12(sp)
10008370:	10000015 	stw	zero,0(r2)
10008374:	10800104 	addi	r2,r2,4
10008378:	10fffc36 	bltu	r2,r3,1000836c <__alt_data_end+0xf800836c>
1000837c:	8c63883a 	add	r17,r17,r17
10008380:	b5800504 	addi	r22,r22,20
10008384:	8c63883a 	add	r17,r17,r17
10008388:	94800504 	addi	r18,r18,20
1000838c:	8421883a 	add	r16,r16,r16
10008390:	b463883a 	add	r17,r22,r17
10008394:	8421883a 	add	r16,r16,r16
10008398:	dd800015 	stw	r22,0(sp)
1000839c:	dc800415 	stw	r18,16(sp)
100083a0:	dc400515 	stw	r17,20(sp)
100083a4:	9429883a 	add	r20,r18,r16
100083a8:	b4404f2e 	bgeu	r22,r17,100084e8 <__multiply+0x20c>
100083ac:	d8c00017 	ldw	r3,0(sp)
100083b0:	1c800017 	ldw	r18,0(r3)
100083b4:	943fffcc 	andi	r16,r18,65535
100083b8:	80001e26 	beq	r16,zero,10008434 <__multiply+0x158>
100083bc:	dd800117 	ldw	r22,4(sp)
100083c0:	dd400417 	ldw	r21,16(sp)
100083c4:	0025883a 	mov	r18,zero
100083c8:	adc00017 	ldw	r23,0(r21)
100083cc:	b4c00017 	ldw	r19,0(r22)
100083d0:	800b883a 	mov	r5,r16
100083d4:	b93fffcc 	andi	r4,r23,65535
100083d8:	000c3380 	call	1000c338 <__mulsi3>
100083dc:	9c7fffcc 	andi	r17,r19,65535
100083e0:	8885883a 	add	r2,r17,r2
100083e4:	b808d43a 	srli	r4,r23,16
100083e8:	14a3883a 	add	r17,r2,r18
100083ec:	9826d43a 	srli	r19,r19,16
100083f0:	8824d43a 	srli	r18,r17,16
100083f4:	800b883a 	mov	r5,r16
100083f8:	000c3380 	call	1000c338 <__mulsi3>
100083fc:	9885883a 	add	r2,r19,r2
10008400:	14a7883a 	add	r19,r2,r18
10008404:	88ffffcc 	andi	r3,r17,65535
10008408:	9822943a 	slli	r17,r19,16
1000840c:	ad400104 	addi	r21,r21,4
10008410:	b005883a 	mov	r2,r22
10008414:	88c6b03a 	or	r3,r17,r3
10008418:	b0c00015 	stw	r3,0(r22)
1000841c:	9824d43a 	srli	r18,r19,16
10008420:	b5800104 	addi	r22,r22,4
10008424:	ad3fe836 	bltu	r21,r20,100083c8 <__alt_data_end+0xf80083c8>
10008428:	d8c00017 	ldw	r3,0(sp)
1000842c:	14800115 	stw	r18,4(r2)
10008430:	1c800017 	ldw	r18,0(r3)
10008434:	9024d43a 	srli	r18,r18,16
10008438:	90002226 	beq	r18,zero,100084c4 <__multiply+0x1e8>
1000843c:	d8c00117 	ldw	r3,4(sp)
10008440:	dd800417 	ldw	r22,16(sp)
10008444:	002f883a 	mov	r23,zero
10008448:	1f000017 	ldw	fp,0(r3)
1000844c:	1823883a 	mov	r17,r3
10008450:	182b883a 	mov	r21,r3
10008454:	e021883a 	mov	r16,fp
10008458:	00000106 	br	10008460 <__multiply+0x184>
1000845c:	982b883a 	mov	r21,r19
10008460:	b100000b 	ldhu	r4,0(r22)
10008464:	8020d43a 	srli	r16,r16,16
10008468:	900b883a 	mov	r5,r18
1000846c:	000c3380 	call	1000c338 <__mulsi3>
10008470:	1405883a 	add	r2,r2,r16
10008474:	15ef883a 	add	r23,r2,r23
10008478:	b804943a 	slli	r2,r23,16
1000847c:	e0ffffcc 	andi	r3,fp,65535
10008480:	8c400104 	addi	r17,r17,4
10008484:	10c6b03a 	or	r3,r2,r3
10008488:	88ffff15 	stw	r3,-4(r17)
1000848c:	b5800104 	addi	r22,r22,4
10008490:	b13fff17 	ldw	r4,-4(r22)
10008494:	acc00104 	addi	r19,r21,4
10008498:	900b883a 	mov	r5,r18
1000849c:	2008d43a 	srli	r4,r4,16
100084a0:	9c000017 	ldw	r16,0(r19)
100084a4:	000c3380 	call	1000c338 <__mulsi3>
100084a8:	b806d43a 	srli	r3,r23,16
100084ac:	813fffcc 	andi	r4,r16,65535
100084b0:	1105883a 	add	r2,r2,r4
100084b4:	10f9883a 	add	fp,r2,r3
100084b8:	e02ed43a 	srli	r23,fp,16
100084bc:	b53fe736 	bltu	r22,r20,1000845c <__alt_data_end+0xf800845c>
100084c0:	af000115 	stw	fp,4(r21)
100084c4:	d8c00017 	ldw	r3,0(sp)
100084c8:	d9000517 	ldw	r4,20(sp)
100084cc:	18c00104 	addi	r3,r3,4
100084d0:	d8c00015 	stw	r3,0(sp)
100084d4:	d8c00117 	ldw	r3,4(sp)
100084d8:	18c00104 	addi	r3,r3,4
100084dc:	d8c00115 	stw	r3,4(sp)
100084e0:	d8c00017 	ldw	r3,0(sp)
100084e4:	193fb136 	bltu	r3,r4,100083ac <__alt_data_end+0xf80083ac>
100084e8:	d8c00217 	ldw	r3,8(sp)
100084ec:	00c00c0e 	bge	zero,r3,10008520 <__multiply+0x244>
100084f0:	d8c00317 	ldw	r3,12(sp)
100084f4:	18bfff17 	ldw	r2,-4(r3)
100084f8:	1d7fff04 	addi	r21,r3,-4
100084fc:	10000326 	beq	r2,zero,1000850c <__multiply+0x230>
10008500:	00000706 	br	10008520 <__multiply+0x244>
10008504:	a8800017 	ldw	r2,0(r21)
10008508:	1000051e 	bne	r2,zero,10008520 <__multiply+0x244>
1000850c:	d8c00217 	ldw	r3,8(sp)
10008510:	ad7fff04 	addi	r21,r21,-4
10008514:	18ffffc4 	addi	r3,r3,-1
10008518:	d8c00215 	stw	r3,8(sp)
1000851c:	183ff91e 	bne	r3,zero,10008504 <__alt_data_end+0xf8008504>
10008520:	d8c00617 	ldw	r3,24(sp)
10008524:	d9000217 	ldw	r4,8(sp)
10008528:	1805883a 	mov	r2,r3
1000852c:	19000415 	stw	r4,16(r3)
10008530:	dfc01017 	ldw	ra,64(sp)
10008534:	df000f17 	ldw	fp,60(sp)
10008538:	ddc00e17 	ldw	r23,56(sp)
1000853c:	dd800d17 	ldw	r22,52(sp)
10008540:	dd400c17 	ldw	r21,48(sp)
10008544:	dd000b17 	ldw	r20,44(sp)
10008548:	dcc00a17 	ldw	r19,40(sp)
1000854c:	dc800917 	ldw	r18,36(sp)
10008550:	dc400817 	ldw	r17,32(sp)
10008554:	dc000717 	ldw	r16,28(sp)
10008558:	dec01104 	addi	sp,sp,68
1000855c:	f800283a 	ret
10008560:	3025883a 	mov	r18,r6
10008564:	282d883a 	mov	r22,r5
10008568:	003f6f06 	br	10008328 <__alt_data_end+0xf8008328>

1000856c <__pow5mult>:
1000856c:	defffa04 	addi	sp,sp,-24
10008570:	dcc00315 	stw	r19,12(sp)
10008574:	dc800215 	stw	r18,8(sp)
10008578:	dc000015 	stw	r16,0(sp)
1000857c:	dfc00515 	stw	ra,20(sp)
10008580:	dd000415 	stw	r20,16(sp)
10008584:	dc400115 	stw	r17,4(sp)
10008588:	308000cc 	andi	r2,r6,3
1000858c:	3021883a 	mov	r16,r6
10008590:	2027883a 	mov	r19,r4
10008594:	2825883a 	mov	r18,r5
10008598:	10002e1e 	bne	r2,zero,10008654 <__pow5mult+0xe8>
1000859c:	8021d0ba 	srai	r16,r16,2
100085a0:	80001a26 	beq	r16,zero,1000860c <__pow5mult+0xa0>
100085a4:	9c401217 	ldw	r17,72(r19)
100085a8:	8800061e 	bne	r17,zero,100085c4 <__pow5mult+0x58>
100085ac:	00003406 	br	10008680 <__pow5mult+0x114>
100085b0:	8021d07a 	srai	r16,r16,1
100085b4:	80001526 	beq	r16,zero,1000860c <__pow5mult+0xa0>
100085b8:	88800017 	ldw	r2,0(r17)
100085bc:	10001c26 	beq	r2,zero,10008630 <__pow5mult+0xc4>
100085c0:	1023883a 	mov	r17,r2
100085c4:	80c0004c 	andi	r3,r16,1
100085c8:	183ff926 	beq	r3,zero,100085b0 <__alt_data_end+0xf80085b0>
100085cc:	900b883a 	mov	r5,r18
100085d0:	880d883a 	mov	r6,r17
100085d4:	9809883a 	mov	r4,r19
100085d8:	00082dc0 	call	100082dc <__multiply>
100085dc:	90001b26 	beq	r18,zero,1000864c <__pow5mult+0xe0>
100085e0:	91c00117 	ldw	r7,4(r18)
100085e4:	98c01317 	ldw	r3,76(r19)
100085e8:	8021d07a 	srai	r16,r16,1
100085ec:	39cf883a 	add	r7,r7,r7
100085f0:	39cf883a 	add	r7,r7,r7
100085f4:	19c7883a 	add	r3,r3,r7
100085f8:	19000017 	ldw	r4,0(r3)
100085fc:	91000015 	stw	r4,0(r18)
10008600:	1c800015 	stw	r18,0(r3)
10008604:	1025883a 	mov	r18,r2
10008608:	803feb1e 	bne	r16,zero,100085b8 <__alt_data_end+0xf80085b8>
1000860c:	9005883a 	mov	r2,r18
10008610:	dfc00517 	ldw	ra,20(sp)
10008614:	dd000417 	ldw	r20,16(sp)
10008618:	dcc00317 	ldw	r19,12(sp)
1000861c:	dc800217 	ldw	r18,8(sp)
10008620:	dc400117 	ldw	r17,4(sp)
10008624:	dc000017 	ldw	r16,0(sp)
10008628:	dec00604 	addi	sp,sp,24
1000862c:	f800283a 	ret
10008630:	9809883a 	mov	r4,r19
10008634:	880b883a 	mov	r5,r17
10008638:	880d883a 	mov	r6,r17
1000863c:	00082dc0 	call	100082dc <__multiply>
10008640:	88800015 	stw	r2,0(r17)
10008644:	10000015 	stw	zero,0(r2)
10008648:	003fdd06 	br	100085c0 <__alt_data_end+0xf80085c0>
1000864c:	1025883a 	mov	r18,r2
10008650:	003fd706 	br	100085b0 <__alt_data_end+0xf80085b0>
10008654:	10bfffc4 	addi	r2,r2,-1
10008658:	1085883a 	add	r2,r2,r2
1000865c:	00c40074 	movhi	r3,4097
10008660:	18c6ea04 	addi	r3,r3,7080
10008664:	1085883a 	add	r2,r2,r2
10008668:	1885883a 	add	r2,r3,r2
1000866c:	11800017 	ldw	r6,0(r2)
10008670:	000f883a 	mov	r7,zero
10008674:	0007f480 	call	10007f48 <__multadd>
10008678:	1025883a 	mov	r18,r2
1000867c:	003fc706 	br	1000859c <__alt_data_end+0xf800859c>
10008680:	05000044 	movi	r20,1
10008684:	9809883a 	mov	r4,r19
10008688:	a00b883a 	mov	r5,r20
1000868c:	0007e780 	call	10007e78 <_Balloc>
10008690:	1023883a 	mov	r17,r2
10008694:	00809c44 	movi	r2,625
10008698:	88800515 	stw	r2,20(r17)
1000869c:	8d000415 	stw	r20,16(r17)
100086a0:	9c401215 	stw	r17,72(r19)
100086a4:	88000015 	stw	zero,0(r17)
100086a8:	003fc606 	br	100085c4 <__alt_data_end+0xf80085c4>

100086ac <__lshift>:
100086ac:	defff904 	addi	sp,sp,-28
100086b0:	dd000415 	stw	r20,16(sp)
100086b4:	dcc00315 	stw	r19,12(sp)
100086b8:	3029d17a 	srai	r20,r6,5
100086bc:	2cc00417 	ldw	r19,16(r5)
100086c0:	28800217 	ldw	r2,8(r5)
100086c4:	dd400515 	stw	r21,20(sp)
100086c8:	a4e7883a 	add	r19,r20,r19
100086cc:	dc800215 	stw	r18,8(sp)
100086d0:	dc400115 	stw	r17,4(sp)
100086d4:	dc000015 	stw	r16,0(sp)
100086d8:	dfc00615 	stw	ra,24(sp)
100086dc:	9c000044 	addi	r16,r19,1
100086e0:	2823883a 	mov	r17,r5
100086e4:	302b883a 	mov	r21,r6
100086e8:	2025883a 	mov	r18,r4
100086ec:	29400117 	ldw	r5,4(r5)
100086f0:	1400030e 	bge	r2,r16,10008700 <__lshift+0x54>
100086f4:	1085883a 	add	r2,r2,r2
100086f8:	29400044 	addi	r5,r5,1
100086fc:	143ffd16 	blt	r2,r16,100086f4 <__alt_data_end+0xf80086f4>
10008700:	9009883a 	mov	r4,r18
10008704:	0007e780 	call	10007e78 <_Balloc>
10008708:	11c00504 	addi	r7,r2,20
1000870c:	0500090e 	bge	zero,r20,10008734 <__lshift+0x88>
10008710:	3811883a 	mov	r8,r7
10008714:	0007883a 	mov	r3,zero
10008718:	40000015 	stw	zero,0(r8)
1000871c:	18c00044 	addi	r3,r3,1
10008720:	42000104 	addi	r8,r8,4
10008724:	1d3ffc1e 	bne	r3,r20,10008718 <__alt_data_end+0xf8008718>
10008728:	18c7883a 	add	r3,r3,r3
1000872c:	18c7883a 	add	r3,r3,r3
10008730:	38cf883a 	add	r7,r7,r3
10008734:	89000417 	ldw	r4,16(r17)
10008738:	88c00504 	addi	r3,r17,20
1000873c:	a98007cc 	andi	r6,r21,31
10008740:	2109883a 	add	r4,r4,r4
10008744:	2109883a 	add	r4,r4,r4
10008748:	1909883a 	add	r4,r3,r4
1000874c:	30002326 	beq	r6,zero,100087dc <__lshift+0x130>
10008750:	01400804 	movi	r5,32
10008754:	298bc83a 	sub	r5,r5,r6
10008758:	0013883a 	mov	r9,zero
1000875c:	1a000017 	ldw	r8,0(r3)
10008760:	3815883a 	mov	r10,r7
10008764:	39c00104 	addi	r7,r7,4
10008768:	4190983a 	sll	r8,r8,r6
1000876c:	18c00104 	addi	r3,r3,4
10008770:	4a10b03a 	or	r8,r9,r8
10008774:	3a3fff15 	stw	r8,-4(r7)
10008778:	1a3fff17 	ldw	r8,-4(r3)
1000877c:	4152d83a 	srl	r9,r8,r5
10008780:	193ff636 	bltu	r3,r4,1000875c <__alt_data_end+0xf800875c>
10008784:	52400115 	stw	r9,4(r10)
10008788:	48000126 	beq	r9,zero,10008790 <__lshift+0xe4>
1000878c:	9c000084 	addi	r16,r19,2
10008790:	89000117 	ldw	r4,4(r17)
10008794:	90c01317 	ldw	r3,76(r18)
10008798:	843fffc4 	addi	r16,r16,-1
1000879c:	2109883a 	add	r4,r4,r4
100087a0:	2109883a 	add	r4,r4,r4
100087a4:	1907883a 	add	r3,r3,r4
100087a8:	19000017 	ldw	r4,0(r3)
100087ac:	14000415 	stw	r16,16(r2)
100087b0:	89000015 	stw	r4,0(r17)
100087b4:	1c400015 	stw	r17,0(r3)
100087b8:	dfc00617 	ldw	ra,24(sp)
100087bc:	dd400517 	ldw	r21,20(sp)
100087c0:	dd000417 	ldw	r20,16(sp)
100087c4:	dcc00317 	ldw	r19,12(sp)
100087c8:	dc800217 	ldw	r18,8(sp)
100087cc:	dc400117 	ldw	r17,4(sp)
100087d0:	dc000017 	ldw	r16,0(sp)
100087d4:	dec00704 	addi	sp,sp,28
100087d8:	f800283a 	ret
100087dc:	19400017 	ldw	r5,0(r3)
100087e0:	39c00104 	addi	r7,r7,4
100087e4:	18c00104 	addi	r3,r3,4
100087e8:	397fff15 	stw	r5,-4(r7)
100087ec:	193ffb36 	bltu	r3,r4,100087dc <__alt_data_end+0xf80087dc>
100087f0:	003fe706 	br	10008790 <__alt_data_end+0xf8008790>

100087f4 <__mcmp>:
100087f4:	20800417 	ldw	r2,16(r4)
100087f8:	28c00417 	ldw	r3,16(r5)
100087fc:	10c5c83a 	sub	r2,r2,r3
10008800:	1000111e 	bne	r2,zero,10008848 <__mcmp+0x54>
10008804:	18c7883a 	add	r3,r3,r3
10008808:	18c7883a 	add	r3,r3,r3
1000880c:	21000504 	addi	r4,r4,20
10008810:	29400504 	addi	r5,r5,20
10008814:	20c5883a 	add	r2,r4,r3
10008818:	28cb883a 	add	r5,r5,r3
1000881c:	00000106 	br	10008824 <__mcmp+0x30>
10008820:	20800a2e 	bgeu	r4,r2,1000884c <__mcmp+0x58>
10008824:	10bfff04 	addi	r2,r2,-4
10008828:	297fff04 	addi	r5,r5,-4
1000882c:	11800017 	ldw	r6,0(r2)
10008830:	28c00017 	ldw	r3,0(r5)
10008834:	30fffa26 	beq	r6,r3,10008820 <__alt_data_end+0xf8008820>
10008838:	30c00236 	bltu	r6,r3,10008844 <__mcmp+0x50>
1000883c:	00800044 	movi	r2,1
10008840:	f800283a 	ret
10008844:	00bfffc4 	movi	r2,-1
10008848:	f800283a 	ret
1000884c:	0005883a 	mov	r2,zero
10008850:	f800283a 	ret

10008854 <__mdiff>:
10008854:	defffb04 	addi	sp,sp,-20
10008858:	dc000015 	stw	r16,0(sp)
1000885c:	2821883a 	mov	r16,r5
10008860:	dcc00315 	stw	r19,12(sp)
10008864:	300b883a 	mov	r5,r6
10008868:	2027883a 	mov	r19,r4
1000886c:	8009883a 	mov	r4,r16
10008870:	dc800215 	stw	r18,8(sp)
10008874:	dfc00415 	stw	ra,16(sp)
10008878:	dc400115 	stw	r17,4(sp)
1000887c:	3025883a 	mov	r18,r6
10008880:	00087f40 	call	100087f4 <__mcmp>
10008884:	10005226 	beq	r2,zero,100089d0 <__mdiff+0x17c>
10008888:	10004c16 	blt	r2,zero,100089bc <__mdiff+0x168>
1000888c:	0023883a 	mov	r17,zero
10008890:	81400117 	ldw	r5,4(r16)
10008894:	9809883a 	mov	r4,r19
10008898:	0007e780 	call	10007e78 <_Balloc>
1000889c:	83400417 	ldw	r13,16(r16)
100088a0:	93800417 	ldw	r14,16(r18)
100088a4:	81000504 	addi	r4,r16,20
100088a8:	6b59883a 	add	r12,r13,r13
100088ac:	739d883a 	add	r14,r14,r14
100088b0:	6319883a 	add	r12,r12,r12
100088b4:	91800504 	addi	r6,r18,20
100088b8:	739d883a 	add	r14,r14,r14
100088bc:	14400315 	stw	r17,12(r2)
100088c0:	2319883a 	add	r12,r4,r12
100088c4:	339d883a 	add	r14,r6,r14
100088c8:	12400504 	addi	r9,r2,20
100088cc:	0007883a 	mov	r3,zero
100088d0:	22000017 	ldw	r8,0(r4)
100088d4:	32800017 	ldw	r10,0(r6)
100088d8:	4ac00104 	addi	r11,r9,4
100088dc:	41ffffcc 	andi	r7,r8,65535
100088e0:	38c7883a 	add	r3,r7,r3
100088e4:	51ffffcc 	andi	r7,r10,65535
100088e8:	19cfc83a 	sub	r7,r3,r7
100088ec:	4010d43a 	srli	r8,r8,16
100088f0:	5014d43a 	srli	r10,r10,16
100088f4:	3807d43a 	srai	r3,r7,16
100088f8:	39ffffcc 	andi	r7,r7,65535
100088fc:	4291c83a 	sub	r8,r8,r10
10008900:	40c7883a 	add	r3,r8,r3
10008904:	1810943a 	slli	r8,r3,16
10008908:	31800104 	addi	r6,r6,4
1000890c:	21000104 	addi	r4,r4,4
10008910:	41ceb03a 	or	r7,r8,r7
10008914:	49c00015 	stw	r7,0(r9)
10008918:	1807d43a 	srai	r3,r3,16
1000891c:	580b883a 	mov	r5,r11
10008920:	5813883a 	mov	r9,r11
10008924:	33bfea36 	bltu	r6,r14,100088d0 <__alt_data_end+0xf80088d0>
10008928:	2011883a 	mov	r8,r4
1000892c:	2300152e 	bgeu	r4,r12,10008984 <__mdiff+0x130>
10008930:	21400017 	ldw	r5,0(r4)
10008934:	4a400104 	addi	r9,r9,4
10008938:	21000104 	addi	r4,r4,4
1000893c:	29ffffcc 	andi	r7,r5,65535
10008940:	38c7883a 	add	r3,r7,r3
10008944:	280ad43a 	srli	r5,r5,16
10008948:	180dd43a 	srai	r6,r3,16
1000894c:	19ffffcc 	andi	r7,r3,65535
10008950:	3147883a 	add	r3,r6,r5
10008954:	180a943a 	slli	r5,r3,16
10008958:	1807d43a 	srai	r3,r3,16
1000895c:	29ceb03a 	or	r7,r5,r7
10008960:	49ffff15 	stw	r7,-4(r9)
10008964:	233ff236 	bltu	r4,r12,10008930 <__alt_data_end+0xf8008930>
10008968:	0206303a 	nor	r3,zero,r8
1000896c:	1b07883a 	add	r3,r3,r12
10008970:	1806d0ba 	srli	r3,r3,2
10008974:	18c00044 	addi	r3,r3,1
10008978:	18c7883a 	add	r3,r3,r3
1000897c:	18c7883a 	add	r3,r3,r3
10008980:	58cb883a 	add	r5,r11,r3
10008984:	28ffff04 	addi	r3,r5,-4
10008988:	3800041e 	bne	r7,zero,1000899c <__mdiff+0x148>
1000898c:	18ffff04 	addi	r3,r3,-4
10008990:	19000017 	ldw	r4,0(r3)
10008994:	6b7fffc4 	addi	r13,r13,-1
10008998:	203ffc26 	beq	r4,zero,1000898c <__alt_data_end+0xf800898c>
1000899c:	13400415 	stw	r13,16(r2)
100089a0:	dfc00417 	ldw	ra,16(sp)
100089a4:	dcc00317 	ldw	r19,12(sp)
100089a8:	dc800217 	ldw	r18,8(sp)
100089ac:	dc400117 	ldw	r17,4(sp)
100089b0:	dc000017 	ldw	r16,0(sp)
100089b4:	dec00504 	addi	sp,sp,20
100089b8:	f800283a 	ret
100089bc:	8005883a 	mov	r2,r16
100089c0:	04400044 	movi	r17,1
100089c4:	9021883a 	mov	r16,r18
100089c8:	1025883a 	mov	r18,r2
100089cc:	003fb006 	br	10008890 <__alt_data_end+0xf8008890>
100089d0:	9809883a 	mov	r4,r19
100089d4:	000b883a 	mov	r5,zero
100089d8:	0007e780 	call	10007e78 <_Balloc>
100089dc:	00c00044 	movi	r3,1
100089e0:	10c00415 	stw	r3,16(r2)
100089e4:	10000515 	stw	zero,20(r2)
100089e8:	003fed06 	br	100089a0 <__alt_data_end+0xf80089a0>

100089ec <__ulp>:
100089ec:	295ffc2c 	andhi	r5,r5,32752
100089f0:	00bf3034 	movhi	r2,64704
100089f4:	2887883a 	add	r3,r5,r2
100089f8:	00c0020e 	bge	zero,r3,10008a04 <__ulp+0x18>
100089fc:	0005883a 	mov	r2,zero
10008a00:	f800283a 	ret
10008a04:	00c7c83a 	sub	r3,zero,r3
10008a08:	180bd53a 	srai	r5,r3,20
10008a0c:	008004c4 	movi	r2,19
10008a10:	11400a0e 	bge	r2,r5,10008a3c <__ulp+0x50>
10008a14:	00800c84 	movi	r2,50
10008a18:	0007883a 	mov	r3,zero
10008a1c:	11400516 	blt	r2,r5,10008a34 <__ulp+0x48>
10008a20:	00800cc4 	movi	r2,51
10008a24:	114bc83a 	sub	r5,r2,r5
10008a28:	00800044 	movi	r2,1
10008a2c:	1144983a 	sll	r2,r2,r5
10008a30:	f800283a 	ret
10008a34:	00800044 	movi	r2,1
10008a38:	f800283a 	ret
10008a3c:	00800234 	movhi	r2,8
10008a40:	1147d83a 	sra	r3,r2,r5
10008a44:	0005883a 	mov	r2,zero
10008a48:	f800283a 	ret

10008a4c <__b2d>:
10008a4c:	defffa04 	addi	sp,sp,-24
10008a50:	dc000015 	stw	r16,0(sp)
10008a54:	24000417 	ldw	r16,16(r4)
10008a58:	dc400115 	stw	r17,4(sp)
10008a5c:	24400504 	addi	r17,r4,20
10008a60:	8421883a 	add	r16,r16,r16
10008a64:	8421883a 	add	r16,r16,r16
10008a68:	8c21883a 	add	r16,r17,r16
10008a6c:	dc800215 	stw	r18,8(sp)
10008a70:	84bfff17 	ldw	r18,-4(r16)
10008a74:	dd000415 	stw	r20,16(sp)
10008a78:	dcc00315 	stw	r19,12(sp)
10008a7c:	9009883a 	mov	r4,r18
10008a80:	2829883a 	mov	r20,r5
10008a84:	dfc00515 	stw	ra,20(sp)
10008a88:	00081880 	call	10008188 <__hi0bits>
10008a8c:	00c00804 	movi	r3,32
10008a90:	1887c83a 	sub	r3,r3,r2
10008a94:	a0c00015 	stw	r3,0(r20)
10008a98:	00c00284 	movi	r3,10
10008a9c:	84ffff04 	addi	r19,r16,-4
10008aa0:	18801216 	blt	r3,r2,10008aec <__b2d+0xa0>
10008aa4:	014002c4 	movi	r5,11
10008aa8:	2889c83a 	sub	r4,r5,r2
10008aac:	9106d83a 	srl	r3,r18,r4
10008ab0:	18cffc34 	orhi	r3,r3,16368
10008ab4:	8cc0282e 	bgeu	r17,r19,10008b58 <__b2d+0x10c>
10008ab8:	817ffe17 	ldw	r5,-8(r16)
10008abc:	290ad83a 	srl	r5,r5,r4
10008ac0:	10800544 	addi	r2,r2,21
10008ac4:	9084983a 	sll	r2,r18,r2
10008ac8:	2884b03a 	or	r2,r5,r2
10008acc:	dfc00517 	ldw	ra,20(sp)
10008ad0:	dd000417 	ldw	r20,16(sp)
10008ad4:	dcc00317 	ldw	r19,12(sp)
10008ad8:	dc800217 	ldw	r18,8(sp)
10008adc:	dc400117 	ldw	r17,4(sp)
10008ae0:	dc000017 	ldw	r16,0(sp)
10008ae4:	dec00604 	addi	sp,sp,24
10008ae8:	f800283a 	ret
10008aec:	113ffd44 	addi	r4,r2,-11
10008af0:	8cc00f2e 	bgeu	r17,r19,10008b30 <__b2d+0xe4>
10008af4:	81bffe04 	addi	r6,r16,-8
10008af8:	817ffe17 	ldw	r5,-8(r16)
10008afc:	20001326 	beq	r4,zero,10008b4c <__b2d+0x100>
10008b00:	00c00ac4 	movi	r3,43
10008b04:	1885c83a 	sub	r2,r3,r2
10008b08:	2886d83a 	srl	r3,r5,r2
10008b0c:	9124983a 	sll	r18,r18,r4
10008b10:	90e4b03a 	or	r18,r18,r3
10008b14:	90cffc34 	orhi	r3,r18,16368
10008b18:	8980112e 	bgeu	r17,r6,10008b60 <__b2d+0x114>
10008b1c:	81bffd17 	ldw	r6,-12(r16)
10008b20:	308cd83a 	srl	r6,r6,r2
10008b24:	2904983a 	sll	r2,r5,r4
10008b28:	1184b03a 	or	r2,r2,r6
10008b2c:	003fe706 	br	10008acc <__alt_data_end+0xf8008acc>
10008b30:	20000526 	beq	r4,zero,10008b48 <__b2d+0xfc>
10008b34:	9124983a 	sll	r18,r18,r4
10008b38:	000d883a 	mov	r6,zero
10008b3c:	000b883a 	mov	r5,zero
10008b40:	90cffc34 	orhi	r3,r18,16368
10008b44:	003ff706 	br	10008b24 <__alt_data_end+0xf8008b24>
10008b48:	000b883a 	mov	r5,zero
10008b4c:	90cffc34 	orhi	r3,r18,16368
10008b50:	2805883a 	mov	r2,r5
10008b54:	003fdd06 	br	10008acc <__alt_data_end+0xf8008acc>
10008b58:	000b883a 	mov	r5,zero
10008b5c:	003fd806 	br	10008ac0 <__alt_data_end+0xf8008ac0>
10008b60:	000d883a 	mov	r6,zero
10008b64:	003fef06 	br	10008b24 <__alt_data_end+0xf8008b24>

10008b68 <__d2b>:
10008b68:	defff704 	addi	sp,sp,-36
10008b6c:	dc000215 	stw	r16,8(sp)
10008b70:	3021883a 	mov	r16,r6
10008b74:	dc400315 	stw	r17,12(sp)
10008b78:	8022907a 	slli	r17,r16,1
10008b7c:	dd400715 	stw	r21,28(sp)
10008b80:	282b883a 	mov	r21,r5
10008b84:	01400044 	movi	r5,1
10008b88:	dd000615 	stw	r20,24(sp)
10008b8c:	dcc00515 	stw	r19,20(sp)
10008b90:	dc800415 	stw	r18,16(sp)
10008b94:	dfc00815 	stw	ra,32(sp)
10008b98:	3829883a 	mov	r20,r7
10008b9c:	dc800917 	ldw	r18,36(sp)
10008ba0:	8822d57a 	srli	r17,r17,21
10008ba4:	0007e780 	call	10007e78 <_Balloc>
10008ba8:	1027883a 	mov	r19,r2
10008bac:	00800434 	movhi	r2,16
10008bb0:	10bfffc4 	addi	r2,r2,-1
10008bb4:	808c703a 	and	r6,r16,r2
10008bb8:	88000126 	beq	r17,zero,10008bc0 <__d2b+0x58>
10008bbc:	31800434 	orhi	r6,r6,16
10008bc0:	d9800015 	stw	r6,0(sp)
10008bc4:	a8001f26 	beq	r21,zero,10008c44 <__d2b+0xdc>
10008bc8:	d9000104 	addi	r4,sp,4
10008bcc:	dd400115 	stw	r21,4(sp)
10008bd0:	00081f00 	call	100081f0 <__lo0bits>
10008bd4:	d8c00017 	ldw	r3,0(sp)
10008bd8:	1000291e 	bne	r2,zero,10008c80 <__d2b+0x118>
10008bdc:	d9000117 	ldw	r4,4(sp)
10008be0:	99000515 	stw	r4,20(r19)
10008be4:	1820c03a 	cmpne	r16,r3,zero
10008be8:	84000044 	addi	r16,r16,1
10008bec:	98c00615 	stw	r3,24(r19)
10008bf0:	9c000415 	stw	r16,16(r19)
10008bf4:	88001b1e 	bne	r17,zero,10008c64 <__d2b+0xfc>
10008bf8:	800690ba 	slli	r3,r16,2
10008bfc:	10bef384 	addi	r2,r2,-1074
10008c00:	a0800015 	stw	r2,0(r20)
10008c04:	98c5883a 	add	r2,r19,r3
10008c08:	11000417 	ldw	r4,16(r2)
10008c0c:	8020917a 	slli	r16,r16,5
10008c10:	00081880 	call	10008188 <__hi0bits>
10008c14:	8085c83a 	sub	r2,r16,r2
10008c18:	90800015 	stw	r2,0(r18)
10008c1c:	9805883a 	mov	r2,r19
10008c20:	dfc00817 	ldw	ra,32(sp)
10008c24:	dd400717 	ldw	r21,28(sp)
10008c28:	dd000617 	ldw	r20,24(sp)
10008c2c:	dcc00517 	ldw	r19,20(sp)
10008c30:	dc800417 	ldw	r18,16(sp)
10008c34:	dc400317 	ldw	r17,12(sp)
10008c38:	dc000217 	ldw	r16,8(sp)
10008c3c:	dec00904 	addi	sp,sp,36
10008c40:	f800283a 	ret
10008c44:	d809883a 	mov	r4,sp
10008c48:	00081f00 	call	100081f0 <__lo0bits>
10008c4c:	d8c00017 	ldw	r3,0(sp)
10008c50:	04000044 	movi	r16,1
10008c54:	9c000415 	stw	r16,16(r19)
10008c58:	98c00515 	stw	r3,20(r19)
10008c5c:	10800804 	addi	r2,r2,32
10008c60:	883fe526 	beq	r17,zero,10008bf8 <__alt_data_end+0xf8008bf8>
10008c64:	8c7ef344 	addi	r17,r17,-1075
10008c68:	88a3883a 	add	r17,r17,r2
10008c6c:	00c00d44 	movi	r3,53
10008c70:	a4400015 	stw	r17,0(r20)
10008c74:	1885c83a 	sub	r2,r3,r2
10008c78:	90800015 	stw	r2,0(r18)
10008c7c:	003fe706 	br	10008c1c <__alt_data_end+0xf8008c1c>
10008c80:	01000804 	movi	r4,32
10008c84:	2089c83a 	sub	r4,r4,r2
10008c88:	1908983a 	sll	r4,r3,r4
10008c8c:	d9400117 	ldw	r5,4(sp)
10008c90:	1886d83a 	srl	r3,r3,r2
10008c94:	2148b03a 	or	r4,r4,r5
10008c98:	99000515 	stw	r4,20(r19)
10008c9c:	d8c00015 	stw	r3,0(sp)
10008ca0:	003fd006 	br	10008be4 <__alt_data_end+0xf8008be4>

10008ca4 <__ratio>:
10008ca4:	defff904 	addi	sp,sp,-28
10008ca8:	dc400315 	stw	r17,12(sp)
10008cac:	2823883a 	mov	r17,r5
10008cb0:	d9400104 	addi	r5,sp,4
10008cb4:	dfc00615 	stw	ra,24(sp)
10008cb8:	dcc00515 	stw	r19,20(sp)
10008cbc:	dc800415 	stw	r18,16(sp)
10008cc0:	2027883a 	mov	r19,r4
10008cc4:	dc000215 	stw	r16,8(sp)
10008cc8:	0008a4c0 	call	10008a4c <__b2d>
10008ccc:	8809883a 	mov	r4,r17
10008cd0:	d80b883a 	mov	r5,sp
10008cd4:	1025883a 	mov	r18,r2
10008cd8:	1821883a 	mov	r16,r3
10008cdc:	0008a4c0 	call	10008a4c <__b2d>
10008ce0:	8a400417 	ldw	r9,16(r17)
10008ce4:	9a000417 	ldw	r8,16(r19)
10008ce8:	100d883a 	mov	r6,r2
10008cec:	d8800017 	ldw	r2,0(sp)
10008cf0:	4251c83a 	sub	r8,r8,r9
10008cf4:	4012917a 	slli	r9,r8,5
10008cf8:	da000117 	ldw	r8,4(sp)
10008cfc:	4091c83a 	sub	r8,r8,r2
10008d00:	4251883a 	add	r8,r8,r9
10008d04:	02000d0e 	bge	zero,r8,10008d3c <__ratio+0x98>
10008d08:	4010953a 	slli	r8,r8,20
10008d0c:	4421883a 	add	r16,r8,r16
10008d10:	9009883a 	mov	r4,r18
10008d14:	800b883a 	mov	r5,r16
10008d18:	180f883a 	mov	r7,r3
10008d1c:	000cbfc0 	call	1000cbfc <__divdf3>
10008d20:	dfc00617 	ldw	ra,24(sp)
10008d24:	dcc00517 	ldw	r19,20(sp)
10008d28:	dc800417 	ldw	r18,16(sp)
10008d2c:	dc400317 	ldw	r17,12(sp)
10008d30:	dc000217 	ldw	r16,8(sp)
10008d34:	dec00704 	addi	sp,sp,28
10008d38:	f800283a 	ret
10008d3c:	4010953a 	slli	r8,r8,20
10008d40:	1a07c83a 	sub	r3,r3,r8
10008d44:	003ff206 	br	10008d10 <__alt_data_end+0xf8008d10>

10008d48 <_mprec_log10>:
10008d48:	defffe04 	addi	sp,sp,-8
10008d4c:	dc000015 	stw	r16,0(sp)
10008d50:	dfc00115 	stw	ra,4(sp)
10008d54:	008005c4 	movi	r2,23
10008d58:	2021883a 	mov	r16,r4
10008d5c:	11000d0e 	bge	r2,r4,10008d94 <_mprec_log10+0x4c>
10008d60:	0005883a 	mov	r2,zero
10008d64:	00cffc34 	movhi	r3,16368
10008d68:	843fffc4 	addi	r16,r16,-1
10008d6c:	1009883a 	mov	r4,r2
10008d70:	180b883a 	mov	r5,r3
10008d74:	000d883a 	mov	r6,zero
10008d78:	01d00934 	movhi	r7,16420
10008d7c:	000d7c00 	call	1000d7c0 <__muldf3>
10008d80:	803ff91e 	bne	r16,zero,10008d68 <__alt_data_end+0xf8008d68>
10008d84:	dfc00117 	ldw	ra,4(sp)
10008d88:	dc000017 	ldw	r16,0(sp)
10008d8c:	dec00204 	addi	sp,sp,8
10008d90:	f800283a 	ret
10008d94:	202090fa 	slli	r16,r4,3
10008d98:	00840074 	movhi	r2,4097
10008d9c:	10870104 	addi	r2,r2,7172
10008da0:	1421883a 	add	r16,r2,r16
10008da4:	80800017 	ldw	r2,0(r16)
10008da8:	80c00117 	ldw	r3,4(r16)
10008dac:	dfc00117 	ldw	ra,4(sp)
10008db0:	dc000017 	ldw	r16,0(sp)
10008db4:	dec00204 	addi	sp,sp,8
10008db8:	f800283a 	ret

10008dbc <__copybits>:
10008dbc:	297fffc4 	addi	r5,r5,-1
10008dc0:	280fd17a 	srai	r7,r5,5
10008dc4:	30c00417 	ldw	r3,16(r6)
10008dc8:	30800504 	addi	r2,r6,20
10008dcc:	39c00044 	addi	r7,r7,1
10008dd0:	18c7883a 	add	r3,r3,r3
10008dd4:	39cf883a 	add	r7,r7,r7
10008dd8:	18c7883a 	add	r3,r3,r3
10008ddc:	39cf883a 	add	r7,r7,r7
10008de0:	10c7883a 	add	r3,r2,r3
10008de4:	21cf883a 	add	r7,r4,r7
10008de8:	10c00d2e 	bgeu	r2,r3,10008e20 <__copybits+0x64>
10008dec:	200b883a 	mov	r5,r4
10008df0:	12000017 	ldw	r8,0(r2)
10008df4:	29400104 	addi	r5,r5,4
10008df8:	10800104 	addi	r2,r2,4
10008dfc:	2a3fff15 	stw	r8,-4(r5)
10008e00:	10fffb36 	bltu	r2,r3,10008df0 <__alt_data_end+0xf8008df0>
10008e04:	1985c83a 	sub	r2,r3,r6
10008e08:	10bffac4 	addi	r2,r2,-21
10008e0c:	1004d0ba 	srli	r2,r2,2
10008e10:	10800044 	addi	r2,r2,1
10008e14:	1085883a 	add	r2,r2,r2
10008e18:	1085883a 	add	r2,r2,r2
10008e1c:	2089883a 	add	r4,r4,r2
10008e20:	21c0032e 	bgeu	r4,r7,10008e30 <__copybits+0x74>
10008e24:	20000015 	stw	zero,0(r4)
10008e28:	21000104 	addi	r4,r4,4
10008e2c:	21fffd36 	bltu	r4,r7,10008e24 <__alt_data_end+0xf8008e24>
10008e30:	f800283a 	ret

10008e34 <__any_on>:
10008e34:	20c00417 	ldw	r3,16(r4)
10008e38:	2805d17a 	srai	r2,r5,5
10008e3c:	21000504 	addi	r4,r4,20
10008e40:	18800d0e 	bge	r3,r2,10008e78 <__any_on+0x44>
10008e44:	18c7883a 	add	r3,r3,r3
10008e48:	18c7883a 	add	r3,r3,r3
10008e4c:	20c7883a 	add	r3,r4,r3
10008e50:	20c0192e 	bgeu	r4,r3,10008eb8 <__any_on+0x84>
10008e54:	18bfff17 	ldw	r2,-4(r3)
10008e58:	18ffff04 	addi	r3,r3,-4
10008e5c:	1000041e 	bne	r2,zero,10008e70 <__any_on+0x3c>
10008e60:	20c0142e 	bgeu	r4,r3,10008eb4 <__any_on+0x80>
10008e64:	18ffff04 	addi	r3,r3,-4
10008e68:	19400017 	ldw	r5,0(r3)
10008e6c:	283ffc26 	beq	r5,zero,10008e60 <__alt_data_end+0xf8008e60>
10008e70:	00800044 	movi	r2,1
10008e74:	f800283a 	ret
10008e78:	10c00a0e 	bge	r2,r3,10008ea4 <__any_on+0x70>
10008e7c:	1085883a 	add	r2,r2,r2
10008e80:	1085883a 	add	r2,r2,r2
10008e84:	294007cc 	andi	r5,r5,31
10008e88:	2087883a 	add	r3,r4,r2
10008e8c:	283ff026 	beq	r5,zero,10008e50 <__alt_data_end+0xf8008e50>
10008e90:	19800017 	ldw	r6,0(r3)
10008e94:	3144d83a 	srl	r2,r6,r5
10008e98:	114a983a 	sll	r5,r2,r5
10008e9c:	29bff41e 	bne	r5,r6,10008e70 <__alt_data_end+0xf8008e70>
10008ea0:	003feb06 	br	10008e50 <__alt_data_end+0xf8008e50>
10008ea4:	1085883a 	add	r2,r2,r2
10008ea8:	1085883a 	add	r2,r2,r2
10008eac:	2087883a 	add	r3,r4,r2
10008eb0:	003fe706 	br	10008e50 <__alt_data_end+0xf8008e50>
10008eb4:	f800283a 	ret
10008eb8:	0005883a 	mov	r2,zero
10008ebc:	f800283a 	ret

10008ec0 <_realloc_r>:
10008ec0:	defff604 	addi	sp,sp,-40
10008ec4:	dcc00315 	stw	r19,12(sp)
10008ec8:	dc400115 	stw	r17,4(sp)
10008ecc:	dfc00915 	stw	ra,36(sp)
10008ed0:	df000815 	stw	fp,32(sp)
10008ed4:	ddc00715 	stw	r23,28(sp)
10008ed8:	dd800615 	stw	r22,24(sp)
10008edc:	dd400515 	stw	r21,20(sp)
10008ee0:	dd000415 	stw	r20,16(sp)
10008ee4:	dc800215 	stw	r18,8(sp)
10008ee8:	dc000015 	stw	r16,0(sp)
10008eec:	2827883a 	mov	r19,r5
10008ef0:	3023883a 	mov	r17,r6
10008ef4:	2800bf26 	beq	r5,zero,100091f4 <_realloc_r+0x334>
10008ef8:	2025883a 	mov	r18,r4
10008efc:	000f13c0 	call	1000f13c <__malloc_lock>
10008f00:	98ffff17 	ldw	r3,-4(r19)
10008f04:	01bfff04 	movi	r6,-4
10008f08:	890002c4 	addi	r4,r17,11
10008f0c:	01c00584 	movi	r7,22
10008f10:	9d7ffe04 	addi	r21,r19,-8
10008f14:	19a0703a 	and	r16,r3,r6
10008f18:	39003f2e 	bgeu	r7,r4,10009018 <_realloc_r+0x158>
10008f1c:	053ffe04 	movi	r20,-8
10008f20:	2528703a 	and	r20,r4,r20
10008f24:	a00f883a 	mov	r7,r20
10008f28:	a0008216 	blt	r20,zero,10009134 <_realloc_r+0x274>
10008f2c:	a4408136 	bltu	r20,r17,10009134 <_realloc_r+0x274>
10008f30:	81c03c0e 	bge	r16,r7,10009024 <_realloc_r+0x164>
10008f34:	07040074 	movhi	fp,4097
10008f38:	e708af04 	addi	fp,fp,8892
10008f3c:	e1000217 	ldw	r4,8(fp)
10008f40:	ac05883a 	add	r2,r21,r16
10008f44:	2080bf26 	beq	r4,r2,10009244 <_realloc_r+0x384>
10008f48:	11000117 	ldw	r4,4(r2)
10008f4c:	023fff84 	movi	r8,-2
10008f50:	2210703a 	and	r8,r4,r8
10008f54:	1211883a 	add	r8,r2,r8
10008f58:	41400117 	ldw	r5,4(r8)
10008f5c:	2940004c 	andi	r5,r5,1
10008f60:	28004a1e 	bne	r5,zero,1000908c <_realloc_r+0x1cc>
10008f64:	017fff04 	movi	r5,-4
10008f68:	2148703a 	and	r4,r4,r5
10008f6c:	2409883a 	add	r4,r4,r16
10008f70:	21c0ad0e 	bge	r4,r7,10009228 <_realloc_r+0x368>
10008f74:	18c0004c 	andi	r3,r3,1
10008f78:	18007f1e 	bne	r3,zero,10009178 <_realloc_r+0x2b8>
10008f7c:	9dfffe17 	ldw	r23,-8(r19)
10008f80:	adefc83a 	sub	r23,r21,r23
10008f84:	bd800117 	ldw	r22,4(r23)
10008f88:	b14a703a 	and	r5,r22,r5
10008f8c:	216d883a 	add	r22,r4,r5
10008f90:	b1c04516 	blt	r22,r7,100090a8 <_realloc_r+0x1e8>
10008f94:	10c00317 	ldw	r3,12(r2)
10008f98:	10800217 	ldw	r2,8(r2)
10008f9c:	81bfff04 	addi	r6,r16,-4
10008fa0:	bc400204 	addi	r17,r23,8
10008fa4:	10c00315 	stw	r3,12(r2)
10008fa8:	18800215 	stw	r2,8(r3)
10008fac:	b9400217 	ldw	r5,8(r23)
10008fb0:	b8c00317 	ldw	r3,12(r23)
10008fb4:	00800904 	movi	r2,36
10008fb8:	28c00315 	stw	r3,12(r5)
10008fbc:	19400215 	stw	r5,8(r3)
10008fc0:	1180ef36 	bltu	r2,r6,10009380 <_realloc_r+0x4c0>
10008fc4:	008004c4 	movi	r2,19
10008fc8:	1180da2e 	bgeu	r2,r6,10009334 <_realloc_r+0x474>
10008fcc:	98800017 	ldw	r2,0(r19)
10008fd0:	b8800215 	stw	r2,8(r23)
10008fd4:	98800117 	ldw	r2,4(r19)
10008fd8:	b8800315 	stw	r2,12(r23)
10008fdc:	008006c4 	movi	r2,27
10008fe0:	1180fc2e 	bgeu	r2,r6,100093d4 <_realloc_r+0x514>
10008fe4:	98800217 	ldw	r2,8(r19)
10008fe8:	b8800415 	stw	r2,16(r23)
10008fec:	98800317 	ldw	r2,12(r19)
10008ff0:	b8800515 	stw	r2,20(r23)
10008ff4:	00800904 	movi	r2,36
10008ff8:	3080421e 	bne	r6,r2,10009104 <_realloc_r+0x244>
10008ffc:	98800417 	ldw	r2,16(r19)
10009000:	9cc00604 	addi	r19,r19,24
10009004:	b8c00804 	addi	r3,r23,32
10009008:	b8800615 	stw	r2,24(r23)
1000900c:	98bfff17 	ldw	r2,-4(r19)
10009010:	b8800715 	stw	r2,28(r23)
10009014:	00003d06 	br	1000910c <_realloc_r+0x24c>
10009018:	01c00404 	movi	r7,16
1000901c:	3829883a 	mov	r20,r7
10009020:	003fc206 	br	10008f2c <__alt_data_end+0xf8008f2c>
10009024:	9823883a 	mov	r17,r19
10009028:	850fc83a 	sub	r7,r16,r20
1000902c:	008003c4 	movi	r2,15
10009030:	18c0004c 	andi	r3,r3,1
10009034:	11c04336 	bltu	r2,r7,10009144 <_realloc_r+0x284>
10009038:	1c06b03a 	or	r3,r3,r16
1000903c:	a8c00115 	stw	r3,4(r21)
10009040:	ac21883a 	add	r16,r21,r16
10009044:	80c00117 	ldw	r3,4(r16)
10009048:	18c00054 	ori	r3,r3,1
1000904c:	80c00115 	stw	r3,4(r16)
10009050:	9009883a 	mov	r4,r18
10009054:	000f15c0 	call	1000f15c <__malloc_unlock>
10009058:	8805883a 	mov	r2,r17
1000905c:	dfc00917 	ldw	ra,36(sp)
10009060:	df000817 	ldw	fp,32(sp)
10009064:	ddc00717 	ldw	r23,28(sp)
10009068:	dd800617 	ldw	r22,24(sp)
1000906c:	dd400517 	ldw	r21,20(sp)
10009070:	dd000417 	ldw	r20,16(sp)
10009074:	dcc00317 	ldw	r19,12(sp)
10009078:	dc800217 	ldw	r18,8(sp)
1000907c:	dc400117 	ldw	r17,4(sp)
10009080:	dc000017 	ldw	r16,0(sp)
10009084:	dec00a04 	addi	sp,sp,40
10009088:	f800283a 	ret
1000908c:	18c0004c 	andi	r3,r3,1
10009090:	1800391e 	bne	r3,zero,10009178 <_realloc_r+0x2b8>
10009094:	9dfffe17 	ldw	r23,-8(r19)
10009098:	00bfff04 	movi	r2,-4
1000909c:	adefc83a 	sub	r23,r21,r23
100090a0:	b9400117 	ldw	r5,4(r23)
100090a4:	288a703a 	and	r5,r5,r2
100090a8:	2c2d883a 	add	r22,r5,r16
100090ac:	b1c03216 	blt	r22,r7,10009178 <_realloc_r+0x2b8>
100090b0:	b8800317 	ldw	r2,12(r23)
100090b4:	b8c00217 	ldw	r3,8(r23)
100090b8:	81bfff04 	addi	r6,r16,-4
100090bc:	01000904 	movi	r4,36
100090c0:	18800315 	stw	r2,12(r3)
100090c4:	10c00215 	stw	r3,8(r2)
100090c8:	bc400204 	addi	r17,r23,8
100090cc:	2180ac36 	bltu	r4,r6,10009380 <_realloc_r+0x4c0>
100090d0:	008004c4 	movi	r2,19
100090d4:	1180972e 	bgeu	r2,r6,10009334 <_realloc_r+0x474>
100090d8:	98800017 	ldw	r2,0(r19)
100090dc:	b8800215 	stw	r2,8(r23)
100090e0:	98800117 	ldw	r2,4(r19)
100090e4:	b8800315 	stw	r2,12(r23)
100090e8:	008006c4 	movi	r2,27
100090ec:	1180b92e 	bgeu	r2,r6,100093d4 <_realloc_r+0x514>
100090f0:	98800217 	ldw	r2,8(r19)
100090f4:	b8800415 	stw	r2,16(r23)
100090f8:	98800317 	ldw	r2,12(r19)
100090fc:	b8800515 	stw	r2,20(r23)
10009100:	313fbe26 	beq	r6,r4,10008ffc <__alt_data_end+0xf8008ffc>
10009104:	b8c00604 	addi	r3,r23,24
10009108:	9cc00404 	addi	r19,r19,16
1000910c:	98800017 	ldw	r2,0(r19)
10009110:	b021883a 	mov	r16,r22
10009114:	b82b883a 	mov	r21,r23
10009118:	18800015 	stw	r2,0(r3)
1000911c:	98800117 	ldw	r2,4(r19)
10009120:	18800115 	stw	r2,4(r3)
10009124:	98800217 	ldw	r2,8(r19)
10009128:	18800215 	stw	r2,8(r3)
1000912c:	b8c00117 	ldw	r3,4(r23)
10009130:	003fbd06 	br	10009028 <__alt_data_end+0xf8009028>
10009134:	00800304 	movi	r2,12
10009138:	90800015 	stw	r2,0(r18)
1000913c:	0005883a 	mov	r2,zero
10009140:	003fc606 	br	1000905c <__alt_data_end+0xf800905c>
10009144:	1d06b03a 	or	r3,r3,r20
10009148:	ad0b883a 	add	r5,r21,r20
1000914c:	a8c00115 	stw	r3,4(r21)
10009150:	38800054 	ori	r2,r7,1
10009154:	28800115 	stw	r2,4(r5)
10009158:	29cf883a 	add	r7,r5,r7
1000915c:	38800117 	ldw	r2,4(r7)
10009160:	9009883a 	mov	r4,r18
10009164:	29400204 	addi	r5,r5,8
10009168:	10800054 	ori	r2,r2,1
1000916c:	38800115 	stw	r2,4(r7)
10009170:	00066940 	call	10006694 <_free_r>
10009174:	003fb606 	br	10009050 <__alt_data_end+0xf8009050>
10009178:	880b883a 	mov	r5,r17
1000917c:	9009883a 	mov	r4,r18
10009180:	00072300 	call	10007230 <_malloc_r>
10009184:	1023883a 	mov	r17,r2
10009188:	1000aa26 	beq	r2,zero,10009434 <_realloc_r+0x574>
1000918c:	98ffff17 	ldw	r3,-4(r19)
10009190:	113ffe04 	addi	r4,r2,-8
10009194:	00bfff84 	movi	r2,-2
10009198:	1884703a 	and	r2,r3,r2
1000919c:	a885883a 	add	r2,r21,r2
100091a0:	20808626 	beq	r4,r2,100093bc <_realloc_r+0x4fc>
100091a4:	81bfff04 	addi	r6,r16,-4
100091a8:	00800904 	movi	r2,36
100091ac:	11807036 	bltu	r2,r6,10009370 <_realloc_r+0x4b0>
100091b0:	00c004c4 	movi	r3,19
100091b4:	19805636 	bltu	r3,r6,10009310 <_realloc_r+0x450>
100091b8:	8805883a 	mov	r2,r17
100091bc:	9807883a 	mov	r3,r19
100091c0:	19000017 	ldw	r4,0(r3)
100091c4:	11000015 	stw	r4,0(r2)
100091c8:	19000117 	ldw	r4,4(r3)
100091cc:	11000115 	stw	r4,4(r2)
100091d0:	18c00217 	ldw	r3,8(r3)
100091d4:	10c00215 	stw	r3,8(r2)
100091d8:	980b883a 	mov	r5,r19
100091dc:	9009883a 	mov	r4,r18
100091e0:	00066940 	call	10006694 <_free_r>
100091e4:	9009883a 	mov	r4,r18
100091e8:	000f15c0 	call	1000f15c <__malloc_unlock>
100091ec:	8805883a 	mov	r2,r17
100091f0:	003f9a06 	br	1000905c <__alt_data_end+0xf800905c>
100091f4:	300b883a 	mov	r5,r6
100091f8:	dfc00917 	ldw	ra,36(sp)
100091fc:	df000817 	ldw	fp,32(sp)
10009200:	ddc00717 	ldw	r23,28(sp)
10009204:	dd800617 	ldw	r22,24(sp)
10009208:	dd400517 	ldw	r21,20(sp)
1000920c:	dd000417 	ldw	r20,16(sp)
10009210:	dcc00317 	ldw	r19,12(sp)
10009214:	dc800217 	ldw	r18,8(sp)
10009218:	dc400117 	ldw	r17,4(sp)
1000921c:	dc000017 	ldw	r16,0(sp)
10009220:	dec00a04 	addi	sp,sp,40
10009224:	00072301 	jmpi	10007230 <_malloc_r>
10009228:	11400317 	ldw	r5,12(r2)
1000922c:	10800217 	ldw	r2,8(r2)
10009230:	9823883a 	mov	r17,r19
10009234:	2021883a 	mov	r16,r4
10009238:	11400315 	stw	r5,12(r2)
1000923c:	28800215 	stw	r2,8(r5)
10009240:	003f7906 	br	10009028 <__alt_data_end+0xf8009028>
10009244:	21000117 	ldw	r4,4(r4)
10009248:	00bfff04 	movi	r2,-4
1000924c:	a1800404 	addi	r6,r20,16
10009250:	2088703a 	and	r4,r4,r2
10009254:	2409883a 	add	r4,r4,r16
10009258:	2180380e 	bge	r4,r6,1000933c <_realloc_r+0x47c>
1000925c:	18c0004c 	andi	r3,r3,1
10009260:	183fc51e 	bne	r3,zero,10009178 <__alt_data_end+0xf8009178>
10009264:	9dfffe17 	ldw	r23,-8(r19)
10009268:	adefc83a 	sub	r23,r21,r23
1000926c:	b9400117 	ldw	r5,4(r23)
10009270:	288a703a 	and	r5,r5,r2
10009274:	216d883a 	add	r22,r4,r5
10009278:	b1bf8b16 	blt	r22,r6,100090a8 <__alt_data_end+0xf80090a8>
1000927c:	b8800317 	ldw	r2,12(r23)
10009280:	b8c00217 	ldw	r3,8(r23)
10009284:	81bfff04 	addi	r6,r16,-4
10009288:	01000904 	movi	r4,36
1000928c:	18800315 	stw	r2,12(r3)
10009290:	10c00215 	stw	r3,8(r2)
10009294:	bc400204 	addi	r17,r23,8
10009298:	21805a36 	bltu	r4,r6,10009404 <_realloc_r+0x544>
1000929c:	008004c4 	movi	r2,19
100092a0:	1180562e 	bgeu	r2,r6,100093fc <_realloc_r+0x53c>
100092a4:	98800017 	ldw	r2,0(r19)
100092a8:	b8800215 	stw	r2,8(r23)
100092ac:	98800117 	ldw	r2,4(r19)
100092b0:	b8800315 	stw	r2,12(r23)
100092b4:	008006c4 	movi	r2,27
100092b8:	11805636 	bltu	r2,r6,10009414 <_realloc_r+0x554>
100092bc:	b8800404 	addi	r2,r23,16
100092c0:	9cc00204 	addi	r19,r19,8
100092c4:	98c00017 	ldw	r3,0(r19)
100092c8:	10c00015 	stw	r3,0(r2)
100092cc:	98c00117 	ldw	r3,4(r19)
100092d0:	10c00115 	stw	r3,4(r2)
100092d4:	98c00217 	ldw	r3,8(r19)
100092d8:	10c00215 	stw	r3,8(r2)
100092dc:	bd07883a 	add	r3,r23,r20
100092e0:	b505c83a 	sub	r2,r22,r20
100092e4:	e0c00215 	stw	r3,8(fp)
100092e8:	10800054 	ori	r2,r2,1
100092ec:	18800115 	stw	r2,4(r3)
100092f0:	b8800117 	ldw	r2,4(r23)
100092f4:	9009883a 	mov	r4,r18
100092f8:	1080004c 	andi	r2,r2,1
100092fc:	a0a8b03a 	or	r20,r20,r2
10009300:	bd000115 	stw	r20,4(r23)
10009304:	000f15c0 	call	1000f15c <__malloc_unlock>
10009308:	8805883a 	mov	r2,r17
1000930c:	003f5306 	br	1000905c <__alt_data_end+0xf800905c>
10009310:	98c00017 	ldw	r3,0(r19)
10009314:	88c00015 	stw	r3,0(r17)
10009318:	98c00117 	ldw	r3,4(r19)
1000931c:	88c00115 	stw	r3,4(r17)
10009320:	00c006c4 	movi	r3,27
10009324:	19801d36 	bltu	r3,r6,1000939c <_realloc_r+0x4dc>
10009328:	88800204 	addi	r2,r17,8
1000932c:	98c00204 	addi	r3,r19,8
10009330:	003fa306 	br	100091c0 <__alt_data_end+0xf80091c0>
10009334:	8807883a 	mov	r3,r17
10009338:	003f7406 	br	1000910c <__alt_data_end+0xf800910c>
1000933c:	ad2b883a 	add	r21,r21,r20
10009340:	2505c83a 	sub	r2,r4,r20
10009344:	e5400215 	stw	r21,8(fp)
10009348:	10800054 	ori	r2,r2,1
1000934c:	a8800115 	stw	r2,4(r21)
10009350:	98bfff17 	ldw	r2,-4(r19)
10009354:	9009883a 	mov	r4,r18
10009358:	1080004c 	andi	r2,r2,1
1000935c:	a0a8b03a 	or	r20,r20,r2
10009360:	9d3fff15 	stw	r20,-4(r19)
10009364:	000f15c0 	call	1000f15c <__malloc_unlock>
10009368:	9805883a 	mov	r2,r19
1000936c:	003f3b06 	br	1000905c <__alt_data_end+0xf800905c>
10009370:	8809883a 	mov	r4,r17
10009374:	980b883a 	mov	r5,r19
10009378:	0007bf80 	call	10007bf8 <memmove>
1000937c:	003f9606 	br	100091d8 <__alt_data_end+0xf80091d8>
10009380:	8809883a 	mov	r4,r17
10009384:	980b883a 	mov	r5,r19
10009388:	0007bf80 	call	10007bf8 <memmove>
1000938c:	b8c00117 	ldw	r3,4(r23)
10009390:	b021883a 	mov	r16,r22
10009394:	b82b883a 	mov	r21,r23
10009398:	003f2306 	br	10009028 <__alt_data_end+0xf8009028>
1000939c:	98c00217 	ldw	r3,8(r19)
100093a0:	88c00215 	stw	r3,8(r17)
100093a4:	98c00317 	ldw	r3,12(r19)
100093a8:	88c00315 	stw	r3,12(r17)
100093ac:	30800c26 	beq	r6,r2,100093e0 <_realloc_r+0x520>
100093b0:	88800404 	addi	r2,r17,16
100093b4:	98c00404 	addi	r3,r19,16
100093b8:	003f8106 	br	100091c0 <__alt_data_end+0xf80091c0>
100093bc:	893fff17 	ldw	r4,-4(r17)
100093c0:	00bfff04 	movi	r2,-4
100093c4:	9823883a 	mov	r17,r19
100093c8:	2084703a 	and	r2,r4,r2
100093cc:	80a1883a 	add	r16,r16,r2
100093d0:	003f1506 	br	10009028 <__alt_data_end+0xf8009028>
100093d4:	b8c00404 	addi	r3,r23,16
100093d8:	9cc00204 	addi	r19,r19,8
100093dc:	003f4b06 	br	1000910c <__alt_data_end+0xf800910c>
100093e0:	99000417 	ldw	r4,16(r19)
100093e4:	88800604 	addi	r2,r17,24
100093e8:	98c00604 	addi	r3,r19,24
100093ec:	89000415 	stw	r4,16(r17)
100093f0:	99000517 	ldw	r4,20(r19)
100093f4:	89000515 	stw	r4,20(r17)
100093f8:	003f7106 	br	100091c0 <__alt_data_end+0xf80091c0>
100093fc:	8805883a 	mov	r2,r17
10009400:	003fb006 	br	100092c4 <__alt_data_end+0xf80092c4>
10009404:	8809883a 	mov	r4,r17
10009408:	980b883a 	mov	r5,r19
1000940c:	0007bf80 	call	10007bf8 <memmove>
10009410:	003fb206 	br	100092dc <__alt_data_end+0xf80092dc>
10009414:	98800217 	ldw	r2,8(r19)
10009418:	b8800415 	stw	r2,16(r23)
1000941c:	98800317 	ldw	r2,12(r19)
10009420:	b8800515 	stw	r2,20(r23)
10009424:	31000726 	beq	r6,r4,10009444 <_realloc_r+0x584>
10009428:	b8800604 	addi	r2,r23,24
1000942c:	9cc00404 	addi	r19,r19,16
10009430:	003fa406 	br	100092c4 <__alt_data_end+0xf80092c4>
10009434:	9009883a 	mov	r4,r18
10009438:	000f15c0 	call	1000f15c <__malloc_unlock>
1000943c:	0005883a 	mov	r2,zero
10009440:	003f0606 	br	1000905c <__alt_data_end+0xf800905c>
10009444:	98c00417 	ldw	r3,16(r19)
10009448:	9cc00604 	addi	r19,r19,24
1000944c:	b8800804 	addi	r2,r23,32
10009450:	b8c00615 	stw	r3,24(r23)
10009454:	98ffff17 	ldw	r3,-4(r19)
10009458:	b8c00715 	stw	r3,28(r23)
1000945c:	003f9906 	br	100092c4 <__alt_data_end+0xf80092c4>

10009460 <__fpclassifyd>:
10009460:	00a00034 	movhi	r2,32768
10009464:	10bfffc4 	addi	r2,r2,-1
10009468:	2884703a 	and	r2,r5,r2
1000946c:	10000726 	beq	r2,zero,1000948c <__fpclassifyd+0x2c>
10009470:	00fffc34 	movhi	r3,65520
10009474:	019ff834 	movhi	r6,32736
10009478:	28c7883a 	add	r3,r5,r3
1000947c:	31bfffc4 	addi	r6,r6,-1
10009480:	30c00536 	bltu	r6,r3,10009498 <__fpclassifyd+0x38>
10009484:	00800104 	movi	r2,4
10009488:	f800283a 	ret
1000948c:	2000021e 	bne	r4,zero,10009498 <__fpclassifyd+0x38>
10009490:	00800084 	movi	r2,2
10009494:	f800283a 	ret
10009498:	00dffc34 	movhi	r3,32752
1000949c:	019ff834 	movhi	r6,32736
100094a0:	28cb883a 	add	r5,r5,r3
100094a4:	31bfffc4 	addi	r6,r6,-1
100094a8:	317ff62e 	bgeu	r6,r5,10009484 <__alt_data_end+0xf8009484>
100094ac:	01400434 	movhi	r5,16
100094b0:	297fffc4 	addi	r5,r5,-1
100094b4:	28800236 	bltu	r5,r2,100094c0 <__fpclassifyd+0x60>
100094b8:	008000c4 	movi	r2,3
100094bc:	f800283a 	ret
100094c0:	10c00226 	beq	r2,r3,100094cc <__fpclassifyd+0x6c>
100094c4:	0005883a 	mov	r2,zero
100094c8:	f800283a 	ret
100094cc:	2005003a 	cmpeq	r2,r4,zero
100094d0:	f800283a 	ret

100094d4 <_sbrk_r>:
100094d4:	defffd04 	addi	sp,sp,-12
100094d8:	dc000015 	stw	r16,0(sp)
100094dc:	04040074 	movhi	r16,4097
100094e0:	dc400115 	stw	r17,4(sp)
100094e4:	84150504 	addi	r16,r16,21524
100094e8:	2023883a 	mov	r17,r4
100094ec:	2809883a 	mov	r4,r5
100094f0:	dfc00215 	stw	ra,8(sp)
100094f4:	80000015 	stw	zero,0(r16)
100094f8:	000f3500 	call	1000f350 <sbrk>
100094fc:	00ffffc4 	movi	r3,-1
10009500:	10c00526 	beq	r2,r3,10009518 <_sbrk_r+0x44>
10009504:	dfc00217 	ldw	ra,8(sp)
10009508:	dc400117 	ldw	r17,4(sp)
1000950c:	dc000017 	ldw	r16,0(sp)
10009510:	dec00304 	addi	sp,sp,12
10009514:	f800283a 	ret
10009518:	80c00017 	ldw	r3,0(r16)
1000951c:	183ff926 	beq	r3,zero,10009504 <__alt_data_end+0xf8009504>
10009520:	88c00015 	stw	r3,0(r17)
10009524:	003ff706 	br	10009504 <__alt_data_end+0xf8009504>

10009528 <__sread>:
10009528:	defffe04 	addi	sp,sp,-8
1000952c:	dc000015 	stw	r16,0(sp)
10009530:	2821883a 	mov	r16,r5
10009534:	2940038f 	ldh	r5,14(r5)
10009538:	dfc00115 	stw	ra,4(sp)
1000953c:	000b1e40 	call	1000b1e4 <_read_r>
10009540:	10000716 	blt	r2,zero,10009560 <__sread+0x38>
10009544:	80c01417 	ldw	r3,80(r16)
10009548:	1887883a 	add	r3,r3,r2
1000954c:	80c01415 	stw	r3,80(r16)
10009550:	dfc00117 	ldw	ra,4(sp)
10009554:	dc000017 	ldw	r16,0(sp)
10009558:	dec00204 	addi	sp,sp,8
1000955c:	f800283a 	ret
10009560:	80c0030b 	ldhu	r3,12(r16)
10009564:	18fbffcc 	andi	r3,r3,61439
10009568:	80c0030d 	sth	r3,12(r16)
1000956c:	dfc00117 	ldw	ra,4(sp)
10009570:	dc000017 	ldw	r16,0(sp)
10009574:	dec00204 	addi	sp,sp,8
10009578:	f800283a 	ret

1000957c <__seofread>:
1000957c:	0005883a 	mov	r2,zero
10009580:	f800283a 	ret

10009584 <__swrite>:
10009584:	2880030b 	ldhu	r2,12(r5)
10009588:	defffb04 	addi	sp,sp,-20
1000958c:	dcc00315 	stw	r19,12(sp)
10009590:	dc800215 	stw	r18,8(sp)
10009594:	dc400115 	stw	r17,4(sp)
10009598:	dc000015 	stw	r16,0(sp)
1000959c:	dfc00415 	stw	ra,16(sp)
100095a0:	10c0400c 	andi	r3,r2,256
100095a4:	2821883a 	mov	r16,r5
100095a8:	2027883a 	mov	r19,r4
100095ac:	3025883a 	mov	r18,r6
100095b0:	3823883a 	mov	r17,r7
100095b4:	18000526 	beq	r3,zero,100095cc <__swrite+0x48>
100095b8:	2940038f 	ldh	r5,14(r5)
100095bc:	000d883a 	mov	r6,zero
100095c0:	01c00084 	movi	r7,2
100095c4:	000b1880 	call	1000b188 <_lseek_r>
100095c8:	8080030b 	ldhu	r2,12(r16)
100095cc:	8140038f 	ldh	r5,14(r16)
100095d0:	10bbffcc 	andi	r2,r2,61439
100095d4:	9809883a 	mov	r4,r19
100095d8:	900d883a 	mov	r6,r18
100095dc:	880f883a 	mov	r7,r17
100095e0:	8080030d 	sth	r2,12(r16)
100095e4:	dfc00417 	ldw	ra,16(sp)
100095e8:	dcc00317 	ldw	r19,12(sp)
100095ec:	dc800217 	ldw	r18,8(sp)
100095f0:	dc400117 	ldw	r17,4(sp)
100095f4:	dc000017 	ldw	r16,0(sp)
100095f8:	dec00504 	addi	sp,sp,20
100095fc:	000ac641 	jmpi	1000ac64 <_write_r>

10009600 <__sseek>:
10009600:	defffe04 	addi	sp,sp,-8
10009604:	dc000015 	stw	r16,0(sp)
10009608:	2821883a 	mov	r16,r5
1000960c:	2940038f 	ldh	r5,14(r5)
10009610:	dfc00115 	stw	ra,4(sp)
10009614:	000b1880 	call	1000b188 <_lseek_r>
10009618:	00ffffc4 	movi	r3,-1
1000961c:	10c00826 	beq	r2,r3,10009640 <__sseek+0x40>
10009620:	80c0030b 	ldhu	r3,12(r16)
10009624:	80801415 	stw	r2,80(r16)
10009628:	18c40014 	ori	r3,r3,4096
1000962c:	80c0030d 	sth	r3,12(r16)
10009630:	dfc00117 	ldw	ra,4(sp)
10009634:	dc000017 	ldw	r16,0(sp)
10009638:	dec00204 	addi	sp,sp,8
1000963c:	f800283a 	ret
10009640:	80c0030b 	ldhu	r3,12(r16)
10009644:	18fbffcc 	andi	r3,r3,61439
10009648:	80c0030d 	sth	r3,12(r16)
1000964c:	dfc00117 	ldw	ra,4(sp)
10009650:	dc000017 	ldw	r16,0(sp)
10009654:	dec00204 	addi	sp,sp,8
10009658:	f800283a 	ret

1000965c <__sclose>:
1000965c:	2940038f 	ldh	r5,14(r5)
10009660:	000acc01 	jmpi	1000acc0 <_close_r>

10009664 <strcmp>:
10009664:	2144b03a 	or	r2,r4,r5
10009668:	108000cc 	andi	r2,r2,3
1000966c:	1000171e 	bne	r2,zero,100096cc <strcmp+0x68>
10009670:	20800017 	ldw	r2,0(r4)
10009674:	28c00017 	ldw	r3,0(r5)
10009678:	10c0141e 	bne	r2,r3,100096cc <strcmp+0x68>
1000967c:	027fbff4 	movhi	r9,65279
10009680:	4a7fbfc4 	addi	r9,r9,-257
10009684:	0086303a 	nor	r3,zero,r2
10009688:	02202074 	movhi	r8,32897
1000968c:	1245883a 	add	r2,r2,r9
10009690:	42202004 	addi	r8,r8,-32640
10009694:	10c4703a 	and	r2,r2,r3
10009698:	1204703a 	and	r2,r2,r8
1000969c:	10000226 	beq	r2,zero,100096a8 <strcmp+0x44>
100096a0:	00001706 	br	10009700 <strcmp+0x9c>
100096a4:	1000161e 	bne	r2,zero,10009700 <strcmp+0x9c>
100096a8:	21000104 	addi	r4,r4,4
100096ac:	20c00017 	ldw	r3,0(r4)
100096b0:	29400104 	addi	r5,r5,4
100096b4:	29800017 	ldw	r6,0(r5)
100096b8:	1a4f883a 	add	r7,r3,r9
100096bc:	00c4303a 	nor	r2,zero,r3
100096c0:	3884703a 	and	r2,r7,r2
100096c4:	1204703a 	and	r2,r2,r8
100096c8:	19bff626 	beq	r3,r6,100096a4 <__alt_data_end+0xf80096a4>
100096cc:	20800007 	ldb	r2,0(r4)
100096d0:	1000051e 	bne	r2,zero,100096e8 <strcmp+0x84>
100096d4:	00000606 	br	100096f0 <strcmp+0x8c>
100096d8:	21000044 	addi	r4,r4,1
100096dc:	20800007 	ldb	r2,0(r4)
100096e0:	29400044 	addi	r5,r5,1
100096e4:	10000226 	beq	r2,zero,100096f0 <strcmp+0x8c>
100096e8:	28c00007 	ldb	r3,0(r5)
100096ec:	10fffa26 	beq	r2,r3,100096d8 <__alt_data_end+0xf80096d8>
100096f0:	20800003 	ldbu	r2,0(r4)
100096f4:	28c00003 	ldbu	r3,0(r5)
100096f8:	10c5c83a 	sub	r2,r2,r3
100096fc:	f800283a 	ret
10009700:	0005883a 	mov	r2,zero
10009704:	f800283a 	ret

10009708 <__sprint_r.part.0>:
10009708:	28801917 	ldw	r2,100(r5)
1000970c:	defff604 	addi	sp,sp,-40
10009710:	dd400515 	stw	r21,20(sp)
10009714:	dcc00315 	stw	r19,12(sp)
10009718:	dfc00915 	stw	ra,36(sp)
1000971c:	df000815 	stw	fp,32(sp)
10009720:	ddc00715 	stw	r23,28(sp)
10009724:	dd800615 	stw	r22,24(sp)
10009728:	dd000415 	stw	r20,16(sp)
1000972c:	dc800215 	stw	r18,8(sp)
10009730:	dc400115 	stw	r17,4(sp)
10009734:	dc000015 	stw	r16,0(sp)
10009738:	1088000c 	andi	r2,r2,8192
1000973c:	2827883a 	mov	r19,r5
10009740:	302b883a 	mov	r21,r6
10009744:	10002d26 	beq	r2,zero,100097fc <__sprint_r.part.0+0xf4>
10009748:	30800217 	ldw	r2,8(r6)
1000974c:	35800017 	ldw	r22,0(r6)
10009750:	10002826 	beq	r2,zero,100097f4 <__sprint_r.part.0+0xec>
10009754:	2029883a 	mov	r20,r4
10009758:	b5c00104 	addi	r23,r22,4
1000975c:	04bfffc4 	movi	r18,-1
10009760:	bc400017 	ldw	r17,0(r23)
10009764:	b4000017 	ldw	r16,0(r22)
10009768:	0039883a 	mov	fp,zero
1000976c:	8822d0ba 	srli	r17,r17,2
10009770:	04400316 	blt	zero,r17,10009780 <__sprint_r.part.0+0x78>
10009774:	00001706 	br	100097d4 <__sprint_r.part.0+0xcc>
10009778:	84000104 	addi	r16,r16,4
1000977c:	8f001526 	beq	r17,fp,100097d4 <__sprint_r.part.0+0xcc>
10009780:	81400017 	ldw	r5,0(r16)
10009784:	a009883a 	mov	r4,r20
10009788:	980d883a 	mov	r6,r19
1000978c:	000af000 	call	1000af00 <_fputwc_r>
10009790:	e7000044 	addi	fp,fp,1
10009794:	14bff81e 	bne	r2,r18,10009778 <__alt_data_end+0xf8009778>
10009798:	9005883a 	mov	r2,r18
1000979c:	a8000215 	stw	zero,8(r21)
100097a0:	a8000115 	stw	zero,4(r21)
100097a4:	dfc00917 	ldw	ra,36(sp)
100097a8:	df000817 	ldw	fp,32(sp)
100097ac:	ddc00717 	ldw	r23,28(sp)
100097b0:	dd800617 	ldw	r22,24(sp)
100097b4:	dd400517 	ldw	r21,20(sp)
100097b8:	dd000417 	ldw	r20,16(sp)
100097bc:	dcc00317 	ldw	r19,12(sp)
100097c0:	dc800217 	ldw	r18,8(sp)
100097c4:	dc400117 	ldw	r17,4(sp)
100097c8:	dc000017 	ldw	r16,0(sp)
100097cc:	dec00a04 	addi	sp,sp,40
100097d0:	f800283a 	ret
100097d4:	a8c00217 	ldw	r3,8(r21)
100097d8:	8c63883a 	add	r17,r17,r17
100097dc:	8c63883a 	add	r17,r17,r17
100097e0:	1c45c83a 	sub	r2,r3,r17
100097e4:	a8800215 	stw	r2,8(r21)
100097e8:	b5800204 	addi	r22,r22,8
100097ec:	bdc00204 	addi	r23,r23,8
100097f0:	103fdb1e 	bne	r2,zero,10009760 <__alt_data_end+0xf8009760>
100097f4:	0005883a 	mov	r2,zero
100097f8:	003fe806 	br	1000979c <__alt_data_end+0xf800979c>
100097fc:	00069840 	call	10006984 <__sfvwrite_r>
10009800:	003fe606 	br	1000979c <__alt_data_end+0xf800979c>

10009804 <__sprint_r>:
10009804:	30c00217 	ldw	r3,8(r6)
10009808:	18000126 	beq	r3,zero,10009810 <__sprint_r+0xc>
1000980c:	00097081 	jmpi	10009708 <__sprint_r.part.0>
10009810:	30000115 	stw	zero,4(r6)
10009814:	0005883a 	mov	r2,zero
10009818:	f800283a 	ret

1000981c <___vfiprintf_internal_r>:
1000981c:	defeca04 	addi	sp,sp,-1240
10009820:	dcc12f15 	stw	r19,1212(sp)
10009824:	dfc13515 	stw	ra,1236(sp)
10009828:	df013415 	stw	fp,1232(sp)
1000982c:	ddc13315 	stw	r23,1228(sp)
10009830:	dd813215 	stw	r22,1224(sp)
10009834:	dd413115 	stw	r21,1220(sp)
10009838:	dd013015 	stw	r20,1216(sp)
1000983c:	dc812e15 	stw	r18,1208(sp)
10009840:	dc412d15 	stw	r17,1204(sp)
10009844:	dc012c15 	stw	r16,1200(sp)
10009848:	d9012115 	stw	r4,1156(sp)
1000984c:	d9412015 	stw	r5,1152(sp)
10009850:	d9c12315 	stw	r7,1164(sp)
10009854:	3027883a 	mov	r19,r6
10009858:	20000226 	beq	r4,zero,10009864 <___vfiprintf_internal_r+0x48>
1000985c:	20800e17 	ldw	r2,56(r4)
10009860:	1000f726 	beq	r2,zero,10009c40 <___vfiprintf_internal_r+0x424>
10009864:	d8812017 	ldw	r2,1152(sp)
10009868:	10c0030b 	ldhu	r3,12(r2)
1000986c:	1908000c 	andi	r4,r3,8192
10009870:	1805883a 	mov	r2,r3
10009874:	2000081e 	bne	r4,zero,10009898 <___vfiprintf_internal_r+0x7c>
10009878:	d9412017 	ldw	r5,1152(sp)
1000987c:	18880014 	ori	r2,r3,8192
10009880:	00f7ffc4 	movi	r3,-8193
10009884:	29001917 	ldw	r4,100(r5)
10009888:	2880030d 	sth	r2,12(r5)
1000988c:	20c8703a 	and	r4,r4,r3
10009890:	29001915 	stw	r4,100(r5)
10009894:	1007883a 	mov	r3,r2
10009898:	1100020c 	andi	r4,r2,8
1000989c:	2000a726 	beq	r4,zero,10009b3c <___vfiprintf_internal_r+0x320>
100098a0:	d9412017 	ldw	r5,1152(sp)
100098a4:	29000417 	ldw	r4,16(r5)
100098a8:	2000a426 	beq	r4,zero,10009b3c <___vfiprintf_internal_r+0x320>
100098ac:	1080068c 	andi	r2,r2,26
100098b0:	01000284 	movi	r4,10
100098b4:	1100ab26 	beq	r2,r4,10009b64 <___vfiprintf_internal_r+0x348>
100098b8:	d9010a04 	addi	r4,sp,1064
100098bc:	d94109c4 	addi	r5,sp,1063
100098c0:	07040074 	movhi	fp,4097
100098c4:	04440074 	movhi	r17,4097
100098c8:	2145c83a 	sub	r2,r4,r5
100098cc:	e7073704 	addi	fp,fp,7388
100098d0:	8c473304 	addi	r17,r17,7372
100098d4:	d9011e15 	stw	r4,1144(sp)
100098d8:	d9411f15 	stw	r5,1148(sp)
100098dc:	dec11a15 	stw	sp,1128(sp)
100098e0:	d8011c15 	stw	zero,1136(sp)
100098e4:	d8011b15 	stw	zero,1132(sp)
100098e8:	d8012715 	stw	zero,1180(sp)
100098ec:	d8012515 	stw	zero,1172(sp)
100098f0:	d811883a 	mov	r8,sp
100098f4:	d8812815 	stw	r2,1184(sp)
100098f8:	982f883a 	mov	r23,r19
100098fc:	b8800007 	ldb	r2,0(r23)
10009900:	1003b026 	beq	r2,zero,1000a7c4 <___vfiprintf_internal_r+0xfa8>
10009904:	01000944 	movi	r4,37
10009908:	1103ae26 	beq	r2,r4,1000a7c4 <___vfiprintf_internal_r+0xfa8>
1000990c:	b805883a 	mov	r2,r23
10009910:	00000106 	br	10009918 <___vfiprintf_internal_r+0xfc>
10009914:	19000326 	beq	r3,r4,10009924 <___vfiprintf_internal_r+0x108>
10009918:	10800044 	addi	r2,r2,1
1000991c:	10c00007 	ldb	r3,0(r2)
10009920:	183ffc1e 	bne	r3,zero,10009914 <__alt_data_end+0xf8009914>
10009924:	15e1c83a 	sub	r16,r2,r23
10009928:	1029883a 	mov	r20,r2
1000992c:	80001026 	beq	r16,zero,10009970 <___vfiprintf_internal_r+0x154>
10009930:	d8c11c17 	ldw	r3,1136(sp)
10009934:	d8811b17 	ldw	r2,1132(sp)
10009938:	45c00015 	stw	r23,0(r8)
1000993c:	80c7883a 	add	r3,r16,r3
10009940:	10800044 	addi	r2,r2,1
10009944:	44000115 	stw	r16,4(r8)
10009948:	d8c11c15 	stw	r3,1136(sp)
1000994c:	d8811b15 	stw	r2,1132(sp)
10009950:	010001c4 	movi	r4,7
10009954:	2080740e 	bge	r4,r2,10009b28 <___vfiprintf_internal_r+0x30c>
10009958:	1803a71e 	bne	r3,zero,1000a7f8 <___vfiprintf_internal_r+0xfdc>
1000995c:	d8c12517 	ldw	r3,1172(sp)
10009960:	d8011b15 	stw	zero,1132(sp)
10009964:	d811883a 	mov	r8,sp
10009968:	1c07883a 	add	r3,r3,r16
1000996c:	d8c12515 	stw	r3,1172(sp)
10009970:	a0800007 	ldb	r2,0(r20)
10009974:	1002bf26 	beq	r2,zero,1000a474 <___vfiprintf_internal_r+0xc58>
10009978:	a5c00044 	addi	r23,r20,1
1000997c:	a1800047 	ldb	r6,1(r20)
10009980:	d8011d85 	stb	zero,1142(sp)
10009984:	d8012205 	stb	zero,1160(sp)
10009988:	043fffc4 	movi	r16,-1
1000998c:	d8012415 	stw	zero,1168(sp)
10009990:	0025883a 	mov	r18,zero
10009994:	05001604 	movi	r20,88
10009998:	05400244 	movi	r21,9
1000999c:	4027883a 	mov	r19,r8
100099a0:	bdc00044 	addi	r23,r23,1
100099a4:	30bff804 	addi	r2,r6,-32
100099a8:	a0825636 	bltu	r20,r2,1000a304 <___vfiprintf_internal_r+0xae8>
100099ac:	100490ba 	slli	r2,r2,2
100099b0:	01040074 	movhi	r4,4097
100099b4:	21267104 	addi	r4,r4,-26172
100099b8:	1105883a 	add	r2,r2,r4
100099bc:	10800017 	ldw	r2,0(r2)
100099c0:	1000683a 	jmp	r2
100099c4:	1000a294 	ori	zero,r2,650
100099c8:	1000a304 	addi	zero,r2,652
100099cc:	1000a304 	addi	zero,r2,652
100099d0:	1000a2f8 	rdprs	zero,r2,651
100099d4:	1000a304 	addi	zero,r2,652
100099d8:	1000a304 	addi	zero,r2,652
100099dc:	1000a304 	addi	zero,r2,652
100099e0:	1000a304 	addi	zero,r2,652
100099e4:	1000a304 	addi	zero,r2,652
100099e8:	1000a304 	addi	zero,r2,652
100099ec:	1000a084 	addi	zero,r2,642
100099f0:	1000a2ac 	andhi	zero,r2,650
100099f4:	1000a304 	addi	zero,r2,652
100099f8:	10009c58 	cmpnei	zero,r2,625
100099fc:	1000a0a8 	cmpgeui	zero,r2,642
10009a00:	1000a304 	addi	zero,r2,652
10009a04:	10009c64 	muli	zero,r2,625
10009a08:	10009c70 	cmpltui	zero,r2,625
10009a0c:	10009c70 	cmpltui	zero,r2,625
10009a10:	10009c70 	cmpltui	zero,r2,625
10009a14:	10009c70 	cmpltui	zero,r2,625
10009a18:	10009c70 	cmpltui	zero,r2,625
10009a1c:	10009c70 	cmpltui	zero,r2,625
10009a20:	10009c70 	cmpltui	zero,r2,625
10009a24:	10009c70 	cmpltui	zero,r2,625
10009a28:	10009c70 	cmpltui	zero,r2,625
10009a2c:	1000a304 	addi	zero,r2,652
10009a30:	1000a304 	addi	zero,r2,652
10009a34:	1000a304 	addi	zero,r2,652
10009a38:	1000a304 	addi	zero,r2,652
10009a3c:	1000a304 	addi	zero,r2,652
10009a40:	1000a304 	addi	zero,r2,652
10009a44:	1000a304 	addi	zero,r2,652
10009a48:	1000a304 	addi	zero,r2,652
10009a4c:	1000a304 	addi	zero,r2,652
10009a50:	1000a304 	addi	zero,r2,652
10009a54:	10009cb0 	cmpltui	zero,r2,626
10009a58:	1000a304 	addi	zero,r2,652
10009a5c:	1000a304 	addi	zero,r2,652
10009a60:	1000a304 	addi	zero,r2,652
10009a64:	1000a304 	addi	zero,r2,652
10009a68:	1000a304 	addi	zero,r2,652
10009a6c:	1000a304 	addi	zero,r2,652
10009a70:	1000a304 	addi	zero,r2,652
10009a74:	1000a304 	addi	zero,r2,652
10009a78:	1000a304 	addi	zero,r2,652
10009a7c:	1000a304 	addi	zero,r2,652
10009a80:	10009fa0 	cmpeqi	zero,r2,638
10009a84:	1000a304 	addi	zero,r2,652
10009a88:	1000a304 	addi	zero,r2,652
10009a8c:	1000a304 	addi	zero,r2,652
10009a90:	1000a304 	addi	zero,r2,652
10009a94:	1000a304 	addi	zero,r2,652
10009a98:	10009fe0 	cmpeqi	zero,r2,639
10009a9c:	1000a304 	addi	zero,r2,652
10009aa0:	1000a304 	addi	zero,r2,652
10009aa4:	1000a024 	muli	zero,r2,640
10009aa8:	1000a304 	addi	zero,r2,652
10009aac:	1000a304 	addi	zero,r2,652
10009ab0:	1000a304 	addi	zero,r2,652
10009ab4:	1000a304 	addi	zero,r2,652
10009ab8:	1000a304 	addi	zero,r2,652
10009abc:	1000a304 	addi	zero,r2,652
10009ac0:	1000a304 	addi	zero,r2,652
10009ac4:	1000a304 	addi	zero,r2,652
10009ac8:	1000a304 	addi	zero,r2,652
10009acc:	1000a304 	addi	zero,r2,652
10009ad0:	10009f6c 	andhi	zero,r2,637
10009ad4:	1000a2bc 	xorhi	zero,r2,650
10009ad8:	1000a304 	addi	zero,r2,652
10009adc:	1000a304 	addi	zero,r2,652
10009ae0:	1000a304 	addi	zero,r2,652
10009ae4:	1000a0f8 	rdprs	zero,r2,643
10009ae8:	1000a2bc 	xorhi	zero,r2,650
10009aec:	1000a304 	addi	zero,r2,652
10009af0:	1000a304 	addi	zero,r2,652
10009af4:	1000a010 	cmplti	zero,r2,640
10009af8:	1000a304 	addi	zero,r2,652
10009afc:	1000a25c 	xori	zero,r2,649
10009b00:	1000a1e4 	muli	zero,r2,647
10009b04:	1000a218 	cmpnei	zero,r2,648
10009b08:	1000a104 	addi	zero,r2,644
10009b0c:	1000a304 	addi	zero,r2,652
10009b10:	1000a110 	cmplti	zero,r2,644
10009b14:	1000a304 	addi	zero,r2,652
10009b18:	1000a16c 	andhi	zero,r2,645
10009b1c:	1000a304 	addi	zero,r2,652
10009b20:	1000a304 	addi	zero,r2,652
10009b24:	1000a1a0 	cmpeqi	zero,r2,646
10009b28:	42000204 	addi	r8,r8,8
10009b2c:	d8c12517 	ldw	r3,1172(sp)
10009b30:	1c07883a 	add	r3,r3,r16
10009b34:	d8c12515 	stw	r3,1172(sp)
10009b38:	003f8d06 	br	10009970 <__alt_data_end+0xf8009970>
10009b3c:	d9012117 	ldw	r4,1156(sp)
10009b40:	d9412017 	ldw	r5,1152(sp)
10009b44:	00044e40 	call	100044e4 <__swsetup_r>
10009b48:	1000301e 	bne	r2,zero,10009c0c <___vfiprintf_internal_r+0x3f0>
10009b4c:	d8812017 	ldw	r2,1152(sp)
10009b50:	01000284 	movi	r4,10
10009b54:	10c0030b 	ldhu	r3,12(r2)
10009b58:	1805883a 	mov	r2,r3
10009b5c:	1080068c 	andi	r2,r2,26
10009b60:	113f551e 	bne	r2,r4,100098b8 <__alt_data_end+0xf80098b8>
10009b64:	d9012017 	ldw	r4,1152(sp)
10009b68:	2080038b 	ldhu	r2,14(r4)
10009b6c:	113fffcc 	andi	r4,r2,65535
10009b70:	2120001c 	xori	r4,r4,32768
10009b74:	21200004 	addi	r4,r4,-32768
10009b78:	203f4f16 	blt	r4,zero,100098b8 <__alt_data_end+0xf80098b8>
10009b7c:	d9412017 	ldw	r5,1152(sp)
10009b80:	d9012117 	ldw	r4,1156(sp)
10009b84:	d9c12317 	ldw	r7,1164(sp)
10009b88:	2b001917 	ldw	r12,100(r5)
10009b8c:	2ac00717 	ldw	r11,28(r5)
10009b90:	2a800917 	ldw	r10,36(r5)
10009b94:	02010004 	movi	r8,1024
10009b98:	18ffff4c 	andi	r3,r3,65533
10009b9c:	da0b883a 	add	r5,sp,r8
10009ba0:	980d883a 	mov	r6,r19
10009ba4:	d8c1030d 	sth	r3,1036(sp)
10009ba8:	db011915 	stw	r12,1124(sp)
10009bac:	d881038d 	sth	r2,1038(sp)
10009bb0:	dac10715 	stw	r11,1052(sp)
10009bb4:	da810915 	stw	r10,1060(sp)
10009bb8:	dec10015 	stw	sp,1024(sp)
10009bbc:	dec10415 	stw	sp,1040(sp)
10009bc0:	da010215 	stw	r8,1032(sp)
10009bc4:	da010515 	stw	r8,1044(sp)
10009bc8:	d8010615 	stw	zero,1048(sp)
10009bcc:	000981c0 	call	1000981c <___vfiprintf_internal_r>
10009bd0:	1021883a 	mov	r16,r2
10009bd4:	10000416 	blt	r2,zero,10009be8 <___vfiprintf_internal_r+0x3cc>
10009bd8:	d9012117 	ldw	r4,1156(sp)
10009bdc:	d9410004 	addi	r5,sp,1024
10009be0:	0005f640 	call	10005f64 <_fflush_r>
10009be4:	10040f1e 	bne	r2,zero,1000ac24 <___vfiprintf_internal_r+0x1408>
10009be8:	d881030b 	ldhu	r2,1036(sp)
10009bec:	1080100c 	andi	r2,r2,64
10009bf0:	10000426 	beq	r2,zero,10009c04 <___vfiprintf_internal_r+0x3e8>
10009bf4:	d8c12017 	ldw	r3,1152(sp)
10009bf8:	1880030b 	ldhu	r2,12(r3)
10009bfc:	10801014 	ori	r2,r2,64
10009c00:	1880030d 	sth	r2,12(r3)
10009c04:	8005883a 	mov	r2,r16
10009c08:	00000106 	br	10009c10 <___vfiprintf_internal_r+0x3f4>
10009c0c:	00bfffc4 	movi	r2,-1
10009c10:	dfc13517 	ldw	ra,1236(sp)
10009c14:	df013417 	ldw	fp,1232(sp)
10009c18:	ddc13317 	ldw	r23,1228(sp)
10009c1c:	dd813217 	ldw	r22,1224(sp)
10009c20:	dd413117 	ldw	r21,1220(sp)
10009c24:	dd013017 	ldw	r20,1216(sp)
10009c28:	dcc12f17 	ldw	r19,1212(sp)
10009c2c:	dc812e17 	ldw	r18,1208(sp)
10009c30:	dc412d17 	ldw	r17,1204(sp)
10009c34:	dc012c17 	ldw	r16,1200(sp)
10009c38:	dec13604 	addi	sp,sp,1240
10009c3c:	f800283a 	ret
10009c40:	00065200 	call	10006520 <__sinit>
10009c44:	003f0706 	br	10009864 <__alt_data_end+0xf8009864>
10009c48:	d8c12417 	ldw	r3,1168(sp)
10009c4c:	d8812315 	stw	r2,1164(sp)
10009c50:	00c7c83a 	sub	r3,zero,r3
10009c54:	d8c12415 	stw	r3,1168(sp)
10009c58:	94800114 	ori	r18,r18,4
10009c5c:	b9800007 	ldb	r6,0(r23)
10009c60:	003f4f06 	br	100099a0 <__alt_data_end+0xf80099a0>
10009c64:	94802014 	ori	r18,r18,128
10009c68:	b9800007 	ldb	r6,0(r23)
10009c6c:	003f4c06 	br	100099a0 <__alt_data_end+0xf80099a0>
10009c70:	dc012615 	stw	r16,1176(sp)
10009c74:	d8012415 	stw	zero,1168(sp)
10009c78:	35bff404 	addi	r22,r6,-48
10009c7c:	0009883a 	mov	r4,zero
10009c80:	b821883a 	mov	r16,r23
10009c84:	01400284 	movi	r5,10
10009c88:	000c3380 	call	1000c338 <__mulsi3>
10009c8c:	81800007 	ldb	r6,0(r16)
10009c90:	1589883a 	add	r4,r2,r22
10009c94:	bdc00044 	addi	r23,r23,1
10009c98:	35bff404 	addi	r22,r6,-48
10009c9c:	b821883a 	mov	r16,r23
10009ca0:	adbff82e 	bgeu	r21,r22,10009c84 <__alt_data_end+0xf8009c84>
10009ca4:	d9012415 	stw	r4,1168(sp)
10009ca8:	dc012617 	ldw	r16,1176(sp)
10009cac:	003f3d06 	br	100099a4 <__alt_data_end+0xf80099a4>
10009cb0:	d8c12203 	ldbu	r3,1160(sp)
10009cb4:	94800414 	ori	r18,r18,16
10009cb8:	9080080c 	andi	r2,r18,32
10009cbc:	d8c11d85 	stb	r3,1142(sp)
10009cc0:	9811883a 	mov	r8,r19
10009cc4:	d8c12317 	ldw	r3,1164(sp)
10009cc8:	10018226 	beq	r2,zero,1000a2d4 <___vfiprintf_internal_r+0xab8>
10009ccc:	d9012317 	ldw	r4,1164(sp)
10009cd0:	18800117 	ldw	r2,4(r3)
10009cd4:	1cc00017 	ldw	r19,0(r3)
10009cd8:	21000204 	addi	r4,r4,8
10009cdc:	d9012315 	stw	r4,1164(sp)
10009ce0:	102b883a 	mov	r21,r2
10009ce4:	10030016 	blt	r2,zero,1000a8e8 <___vfiprintf_internal_r+0x10cc>
10009ce8:	dd811d83 	ldbu	r22,1142(sp)
10009cec:	8029883a 	mov	r20,r16
10009cf0:	00800044 	movi	r2,1
10009cf4:	9d46b03a 	or	r3,r19,r21
10009cf8:	80000216 	blt	r16,zero,10009d04 <___vfiprintf_internal_r+0x4e8>
10009cfc:	013fdfc4 	movi	r4,-129
10009d00:	9124703a 	and	r18,r18,r4
10009d04:	1801b41e 	bne	r3,zero,1000a3d8 <___vfiprintf_internal_r+0xbbc>
10009d08:	80028126 	beq	r16,zero,1000a710 <___vfiprintf_internal_r+0xef4>
10009d0c:	10803fcc 	andi	r2,r2,255
10009d10:	00c00044 	movi	r3,1
10009d14:	10c1d126 	beq	r2,r3,1000a45c <___vfiprintf_internal_r+0xc40>
10009d18:	00c00084 	movi	r3,2
10009d1c:	10c28626 	beq	r2,r3,1000a738 <___vfiprintf_internal_r+0xf1c>
10009d20:	d8c10a04 	addi	r3,sp,1064
10009d24:	9808d0fa 	srli	r4,r19,3
10009d28:	a80a977a 	slli	r5,r21,29
10009d2c:	a82ad0fa 	srli	r21,r21,3
10009d30:	9cc001cc 	andi	r19,r19,7
10009d34:	98800c04 	addi	r2,r19,48
10009d38:	18ffffc4 	addi	r3,r3,-1
10009d3c:	2926b03a 	or	r19,r5,r4
10009d40:	18800005 	stb	r2,0(r3)
10009d44:	9d48b03a 	or	r4,r19,r21
10009d48:	203ff61e 	bne	r4,zero,10009d24 <__alt_data_end+0xf8009d24>
10009d4c:	9100004c 	andi	r4,r18,1
10009d50:	d8c12215 	stw	r3,1160(sp)
10009d54:	2002b31e 	bne	r4,zero,1000a824 <___vfiprintf_internal_r+0x1008>
10009d58:	d9411e17 	ldw	r5,1144(sp)
10009d5c:	28e9c83a 	sub	r20,r5,r3
10009d60:	a02b883a 	mov	r21,r20
10009d64:	a400010e 	bge	r20,r16,10009d6c <___vfiprintf_internal_r+0x550>
10009d68:	802b883a 	mov	r21,r16
10009d6c:	b5803fcc 	andi	r22,r22,255
10009d70:	b580201c 	xori	r22,r22,128
10009d74:	b5bfe004 	addi	r22,r22,-128
10009d78:	b0000126 	beq	r22,zero,10009d80 <___vfiprintf_internal_r+0x564>
10009d7c:	ad400044 	addi	r21,r21,1
10009d80:	9280008c 	andi	r10,r18,2
10009d84:	50000126 	beq	r10,zero,10009d8c <___vfiprintf_internal_r+0x570>
10009d88:	ad400084 	addi	r21,r21,2
10009d8c:	9580210c 	andi	r22,r18,132
10009d90:	b001751e 	bne	r22,zero,1000a368 <___vfiprintf_internal_r+0xb4c>
10009d94:	d9012417 	ldw	r4,1168(sp)
10009d98:	2567c83a 	sub	r19,r4,r21
10009d9c:	04c1720e 	bge	zero,r19,1000a368 <___vfiprintf_internal_r+0xb4c>
10009da0:	01c00404 	movi	r7,16
10009da4:	d8c11c17 	ldw	r3,1136(sp)
10009da8:	3cc36b0e 	bge	r7,r19,1000ab58 <___vfiprintf_internal_r+0x133c>
10009dac:	00840074 	movhi	r2,4097
10009db0:	10873704 	addi	r2,r2,7388
10009db4:	dc012915 	stw	r16,1188(sp)
10009db8:	d9011b17 	ldw	r4,1132(sp)
10009dbc:	9821883a 	mov	r16,r19
10009dc0:	d8812615 	stw	r2,1176(sp)
10009dc4:	030001c4 	movi	r12,7
10009dc8:	5027883a 	mov	r19,r10
10009dcc:	00000506 	br	10009de4 <___vfiprintf_internal_r+0x5c8>
10009dd0:	21400084 	addi	r5,r4,2
10009dd4:	42000204 	addi	r8,r8,8
10009dd8:	1009883a 	mov	r4,r2
10009ddc:	843ffc04 	addi	r16,r16,-16
10009de0:	3c000d0e 	bge	r7,r16,10009e18 <___vfiprintf_internal_r+0x5fc>
10009de4:	18c00404 	addi	r3,r3,16
10009de8:	20800044 	addi	r2,r4,1
10009dec:	47000015 	stw	fp,0(r8)
10009df0:	41c00115 	stw	r7,4(r8)
10009df4:	d8c11c15 	stw	r3,1136(sp)
10009df8:	d8811b15 	stw	r2,1132(sp)
10009dfc:	60bff40e 	bge	r12,r2,10009dd0 <__alt_data_end+0xf8009dd0>
10009e00:	18014b1e 	bne	r3,zero,1000a330 <___vfiprintf_internal_r+0xb14>
10009e04:	843ffc04 	addi	r16,r16,-16
10009e08:	0009883a 	mov	r4,zero
10009e0c:	01400044 	movi	r5,1
10009e10:	d811883a 	mov	r8,sp
10009e14:	3c3ff316 	blt	r7,r16,10009de4 <__alt_data_end+0xf8009de4>
10009e18:	9815883a 	mov	r10,r19
10009e1c:	8027883a 	mov	r19,r16
10009e20:	dc012917 	ldw	r16,1188(sp)
10009e24:	d9012617 	ldw	r4,1176(sp)
10009e28:	98c7883a 	add	r3,r19,r3
10009e2c:	44c00115 	stw	r19,4(r8)
10009e30:	41000015 	stw	r4,0(r8)
10009e34:	d8c11c15 	stw	r3,1136(sp)
10009e38:	d9411b15 	stw	r5,1132(sp)
10009e3c:	008001c4 	movi	r2,7
10009e40:	11425116 	blt	r2,r5,1000a788 <___vfiprintf_internal_r+0xf6c>
10009e44:	d9011d87 	ldb	r4,1142(sp)
10009e48:	42000204 	addi	r8,r8,8
10009e4c:	28800044 	addi	r2,r5,1
10009e50:	20014a1e 	bne	r4,zero,1000a37c <___vfiprintf_internal_r+0xb60>
10009e54:	50000c26 	beq	r10,zero,10009e88 <___vfiprintf_internal_r+0x66c>
10009e58:	d9011d04 	addi	r4,sp,1140
10009e5c:	18c00084 	addi	r3,r3,2
10009e60:	41000015 	stw	r4,0(r8)
10009e64:	01000084 	movi	r4,2
10009e68:	41000115 	stw	r4,4(r8)
10009e6c:	d8c11c15 	stw	r3,1136(sp)
10009e70:	d8811b15 	stw	r2,1132(sp)
10009e74:	010001c4 	movi	r4,7
10009e78:	20822016 	blt	r4,r2,1000a6fc <___vfiprintf_internal_r+0xee0>
10009e7c:	100b883a 	mov	r5,r2
10009e80:	42000204 	addi	r8,r8,8
10009e84:	10800044 	addi	r2,r2,1
10009e88:	01002004 	movi	r4,128
10009e8c:	b101de26 	beq	r22,r4,1000a608 <___vfiprintf_internal_r+0xdec>
10009e90:	8521c83a 	sub	r16,r16,r20
10009e94:	0400230e 	bge	zero,r16,10009f24 <___vfiprintf_internal_r+0x708>
10009e98:	04c00404 	movi	r19,16
10009e9c:	9c030d0e 	bge	r19,r16,1000aad4 <___vfiprintf_internal_r+0x12b8>
10009ea0:	00840074 	movhi	r2,4097
10009ea4:	10873304 	addi	r2,r2,7372
10009ea8:	d8812615 	stw	r2,1176(sp)
10009eac:	058001c4 	movi	r22,7
10009eb0:	00000506 	br	10009ec8 <___vfiprintf_internal_r+0x6ac>
10009eb4:	28800084 	addi	r2,r5,2
10009eb8:	42000204 	addi	r8,r8,8
10009ebc:	200b883a 	mov	r5,r4
10009ec0:	843ffc04 	addi	r16,r16,-16
10009ec4:	9c000d0e 	bge	r19,r16,10009efc <___vfiprintf_internal_r+0x6e0>
10009ec8:	18c00404 	addi	r3,r3,16
10009ecc:	29000044 	addi	r4,r5,1
10009ed0:	44400015 	stw	r17,0(r8)
10009ed4:	44c00115 	stw	r19,4(r8)
10009ed8:	d8c11c15 	stw	r3,1136(sp)
10009edc:	d9011b15 	stw	r4,1132(sp)
10009ee0:	b13ff40e 	bge	r22,r4,10009eb4 <__alt_data_end+0xf8009eb4>
10009ee4:	1801321e 	bne	r3,zero,1000a3b0 <___vfiprintf_internal_r+0xb94>
10009ee8:	843ffc04 	addi	r16,r16,-16
10009eec:	000b883a 	mov	r5,zero
10009ef0:	00800044 	movi	r2,1
10009ef4:	d811883a 	mov	r8,sp
10009ef8:	9c3ff316 	blt	r19,r16,10009ec8 <__alt_data_end+0xf8009ec8>
10009efc:	d9012617 	ldw	r4,1176(sp)
10009f00:	1c07883a 	add	r3,r3,r16
10009f04:	44000115 	stw	r16,4(r8)
10009f08:	41000015 	stw	r4,0(r8)
10009f0c:	d8c11c15 	stw	r3,1136(sp)
10009f10:	d8811b15 	stw	r2,1132(sp)
10009f14:	010001c4 	movi	r4,7
10009f18:	20816216 	blt	r4,r2,1000a4a4 <___vfiprintf_internal_r+0xc88>
10009f1c:	42000204 	addi	r8,r8,8
10009f20:	10800044 	addi	r2,r2,1
10009f24:	d9012217 	ldw	r4,1160(sp)
10009f28:	1d07883a 	add	r3,r3,r20
10009f2c:	45000115 	stw	r20,4(r8)
10009f30:	41000015 	stw	r4,0(r8)
10009f34:	d8c11c15 	stw	r3,1136(sp)
10009f38:	d8811b15 	stw	r2,1132(sp)
10009f3c:	010001c4 	movi	r4,7
10009f40:	2081610e 	bge	r4,r2,1000a4c8 <___vfiprintf_internal_r+0xcac>
10009f44:	1802211e 	bne	r3,zero,1000a7cc <___vfiprintf_internal_r+0xfb0>
10009f48:	d8011b15 	stw	zero,1132(sp)
10009f4c:	9480010c 	andi	r18,r18,4
10009f50:	9002171e 	bne	r18,zero,1000a7b0 <___vfiprintf_internal_r+0xf94>
10009f54:	d9412417 	ldw	r5,1168(sp)
10009f58:	a9433716 	blt	r21,r5,1000ac38 <___vfiprintf_internal_r+0x141c>
10009f5c:	d8812517 	ldw	r2,1172(sp)
10009f60:	1545883a 	add	r2,r2,r21
10009f64:	d8812515 	stw	r2,1172(sp)
10009f68:	00019a06 	br	1000a5d4 <___vfiprintf_internal_r+0xdb8>
10009f6c:	d8c12317 	ldw	r3,1164(sp)
10009f70:	05400044 	movi	r21,1
10009f74:	9811883a 	mov	r8,r19
10009f78:	18800017 	ldw	r2,0(r3)
10009f7c:	18c00104 	addi	r3,r3,4
10009f80:	d8c12315 	stw	r3,1164(sp)
10009f84:	d8c10004 	addi	r3,sp,1024
10009f88:	d8011d85 	stb	zero,1142(sp)
10009f8c:	d8810005 	stb	r2,1024(sp)
10009f90:	a829883a 	mov	r20,r21
10009f94:	d8c12215 	stw	r3,1160(sp)
10009f98:	0021883a 	mov	r16,zero
10009f9c:	003f7806 	br	10009d80 <__alt_data_end+0xf8009d80>
10009fa0:	94800414 	ori	r18,r18,16
10009fa4:	9080080c 	andi	r2,r18,32
10009fa8:	9811883a 	mov	r8,r19
10009fac:	10009026 	beq	r2,zero,1000a1f0 <___vfiprintf_internal_r+0x9d4>
10009fb0:	d8812317 	ldw	r2,1164(sp)
10009fb4:	d8c12317 	ldw	r3,1164(sp)
10009fb8:	14c00017 	ldw	r19,0(r2)
10009fbc:	15400117 	ldw	r21,4(r2)
10009fc0:	18c00204 	addi	r3,r3,8
10009fc4:	d8c12315 	stw	r3,1164(sp)
10009fc8:	0005883a 	mov	r2,zero
10009fcc:	9d46b03a 	or	r3,r19,r21
10009fd0:	d8011d85 	stb	zero,1142(sp)
10009fd4:	8029883a 	mov	r20,r16
10009fd8:	002d883a 	mov	r22,zero
10009fdc:	003f4606 	br	10009cf8 <__alt_data_end+0xf8009cf8>
10009fe0:	94800414 	ori	r18,r18,16
10009fe4:	9080080c 	andi	r2,r18,32
10009fe8:	9811883a 	mov	r8,r19
10009fec:	10006226 	beq	r2,zero,1000a178 <___vfiprintf_internal_r+0x95c>
10009ff0:	d9012317 	ldw	r4,1164(sp)
10009ff4:	00800044 	movi	r2,1
10009ff8:	24c00017 	ldw	r19,0(r4)
10009ffc:	25400117 	ldw	r21,4(r4)
1000a000:	21000204 	addi	r4,r4,8
1000a004:	d9012315 	stw	r4,1164(sp)
1000a008:	9d46b03a 	or	r3,r19,r21
1000a00c:	003ff006 	br	10009fd0 <__alt_data_end+0xf8009fd0>
1000a010:	b9800007 	ldb	r6,0(r23)
1000a014:	00801b04 	movi	r2,108
1000a018:	3082b226 	beq	r6,r2,1000aae4 <___vfiprintf_internal_r+0x12c8>
1000a01c:	94800414 	ori	r18,r18,16
1000a020:	003e5f06 	br	100099a0 <__alt_data_end+0xf80099a0>
1000a024:	d8c12203 	ldbu	r3,1160(sp)
1000a028:	01040074 	movhi	r4,4097
1000a02c:	2106cd04 	addi	r4,r4,6964
1000a030:	d8c11d85 	stb	r3,1142(sp)
1000a034:	d9012715 	stw	r4,1180(sp)
1000a038:	90c0080c 	andi	r3,r18,32
1000a03c:	9811883a 	mov	r8,r19
1000a040:	d8812317 	ldw	r2,1164(sp)
1000a044:	18005f26 	beq	r3,zero,1000a1c4 <___vfiprintf_internal_r+0x9a8>
1000a048:	d9012317 	ldw	r4,1164(sp)
1000a04c:	14c00017 	ldw	r19,0(r2)
1000a050:	15400117 	ldw	r21,4(r2)
1000a054:	21000204 	addi	r4,r4,8
1000a058:	d9012315 	stw	r4,1164(sp)
1000a05c:	9080004c 	andi	r2,r18,1
1000a060:	1001e226 	beq	r2,zero,1000a7ec <___vfiprintf_internal_r+0xfd0>
1000a064:	9d46b03a 	or	r3,r19,r21
1000a068:	18024e26 	beq	r3,zero,1000a9a4 <___vfiprintf_internal_r+0x1188>
1000a06c:	00800c04 	movi	r2,48
1000a070:	d8811d05 	stb	r2,1140(sp)
1000a074:	d9811d45 	stb	r6,1141(sp)
1000a078:	94800094 	ori	r18,r18,2
1000a07c:	00800084 	movi	r2,2
1000a080:	003fd306 	br	10009fd0 <__alt_data_end+0xf8009fd0>
1000a084:	d9012317 	ldw	r4,1164(sp)
1000a088:	d9412317 	ldw	r5,1164(sp)
1000a08c:	21000017 	ldw	r4,0(r4)
1000a090:	28800104 	addi	r2,r5,4
1000a094:	d9012415 	stw	r4,1168(sp)
1000a098:	203eeb16 	blt	r4,zero,10009c48 <__alt_data_end+0xf8009c48>
1000a09c:	d8812315 	stw	r2,1164(sp)
1000a0a0:	b9800007 	ldb	r6,0(r23)
1000a0a4:	003e3e06 	br	100099a0 <__alt_data_end+0xf80099a0>
1000a0a8:	b9800007 	ldb	r6,0(r23)
1000a0ac:	01000a84 	movi	r4,42
1000a0b0:	b8800044 	addi	r2,r23,1
1000a0b4:	3102d226 	beq	r6,r4,1000ac00 <___vfiprintf_internal_r+0x13e4>
1000a0b8:	35bff404 	addi	r22,r6,-48
1000a0bc:	102f883a 	mov	r23,r2
1000a0c0:	0021883a 	mov	r16,zero
1000a0c4:	adbe3736 	bltu	r21,r22,100099a4 <__alt_data_end+0xf80099a4>
1000a0c8:	0009883a 	mov	r4,zero
1000a0cc:	01400284 	movi	r5,10
1000a0d0:	000c3380 	call	1000c338 <__mulsi3>
1000a0d4:	b9800007 	ldb	r6,0(r23)
1000a0d8:	b089883a 	add	r4,r22,r2
1000a0dc:	bdc00044 	addi	r23,r23,1
1000a0e0:	35bff404 	addi	r22,r6,-48
1000a0e4:	adbff92e 	bgeu	r21,r22,1000a0cc <__alt_data_end+0xf800a0cc>
1000a0e8:	2021883a 	mov	r16,r4
1000a0ec:	203e2d0e 	bge	r4,zero,100099a4 <__alt_data_end+0xf80099a4>
1000a0f0:	043fffc4 	movi	r16,-1
1000a0f4:	003e2b06 	br	100099a4 <__alt_data_end+0xf80099a4>
1000a0f8:	94801014 	ori	r18,r18,64
1000a0fc:	b9800007 	ldb	r6,0(r23)
1000a100:	003e2706 	br	100099a0 <__alt_data_end+0xf80099a0>
1000a104:	94800814 	ori	r18,r18,32
1000a108:	b9800007 	ldb	r6,0(r23)
1000a10c:	003e2406 	br	100099a0 <__alt_data_end+0xf80099a0>
1000a110:	d9412317 	ldw	r5,1164(sp)
1000a114:	d8812317 	ldw	r2,1164(sp)
1000a118:	d8011d85 	stb	zero,1142(sp)
1000a11c:	29400017 	ldw	r5,0(r5)
1000a120:	9811883a 	mov	r8,r19
1000a124:	14c00104 	addi	r19,r2,4
1000a128:	d9412215 	stw	r5,1160(sp)
1000a12c:	28029026 	beq	r5,zero,1000ab70 <___vfiprintf_internal_r+0x1354>
1000a130:	d9012217 	ldw	r4,1160(sp)
1000a134:	80027616 	blt	r16,zero,1000ab10 <___vfiprintf_internal_r+0x12f4>
1000a138:	000b883a 	mov	r5,zero
1000a13c:	800d883a 	mov	r6,r16
1000a140:	da012a15 	stw	r8,1192(sp)
1000a144:	00079d80 	call	100079d8 <memchr>
1000a148:	da012a17 	ldw	r8,1192(sp)
1000a14c:	1002a026 	beq	r2,zero,1000abd0 <___vfiprintf_internal_r+0x13b4>
1000a150:	d8c12217 	ldw	r3,1160(sp)
1000a154:	10e9c83a 	sub	r20,r2,r3
1000a158:	85023816 	blt	r16,r20,1000aa3c <___vfiprintf_internal_r+0x1220>
1000a15c:	dd811d83 	ldbu	r22,1142(sp)
1000a160:	dcc12315 	stw	r19,1164(sp)
1000a164:	0021883a 	mov	r16,zero
1000a168:	003efd06 	br	10009d60 <__alt_data_end+0xf8009d60>
1000a16c:	9080080c 	andi	r2,r18,32
1000a170:	9811883a 	mov	r8,r19
1000a174:	103f9e1e 	bne	r2,zero,10009ff0 <__alt_data_end+0xf8009ff0>
1000a178:	9080040c 	andi	r2,r18,16
1000a17c:	10021726 	beq	r2,zero,1000a9dc <___vfiprintf_internal_r+0x11c0>
1000a180:	d9412317 	ldw	r5,1164(sp)
1000a184:	002b883a 	mov	r21,zero
1000a188:	00800044 	movi	r2,1
1000a18c:	2cc00017 	ldw	r19,0(r5)
1000a190:	29400104 	addi	r5,r5,4
1000a194:	d9412315 	stw	r5,1164(sp)
1000a198:	9807883a 	mov	r3,r19
1000a19c:	003f8c06 	br	10009fd0 <__alt_data_end+0xf8009fd0>
1000a1a0:	d8c12203 	ldbu	r3,1160(sp)
1000a1a4:	01040074 	movhi	r4,4097
1000a1a8:	2106d204 	addi	r4,r4,6984
1000a1ac:	d8c11d85 	stb	r3,1142(sp)
1000a1b0:	d9012715 	stw	r4,1180(sp)
1000a1b4:	90c0080c 	andi	r3,r18,32
1000a1b8:	9811883a 	mov	r8,r19
1000a1bc:	d8812317 	ldw	r2,1164(sp)
1000a1c0:	183fa11e 	bne	r3,zero,1000a048 <__alt_data_end+0xf800a048>
1000a1c4:	90c0040c 	andi	r3,r18,16
1000a1c8:	1801e526 	beq	r3,zero,1000a960 <___vfiprintf_internal_r+0x1144>
1000a1cc:	d9412317 	ldw	r5,1164(sp)
1000a1d0:	14c00017 	ldw	r19,0(r2)
1000a1d4:	002b883a 	mov	r21,zero
1000a1d8:	29400104 	addi	r5,r5,4
1000a1dc:	d9412315 	stw	r5,1164(sp)
1000a1e0:	003f9e06 	br	1000a05c <__alt_data_end+0xf800a05c>
1000a1e4:	9080080c 	andi	r2,r18,32
1000a1e8:	9811883a 	mov	r8,r19
1000a1ec:	103f701e 	bne	r2,zero,10009fb0 <__alt_data_end+0xf8009fb0>
1000a1f0:	9080040c 	andi	r2,r18,16
1000a1f4:	1001ef26 	beq	r2,zero,1000a9b4 <___vfiprintf_internal_r+0x1198>
1000a1f8:	d9012317 	ldw	r4,1164(sp)
1000a1fc:	002b883a 	mov	r21,zero
1000a200:	0005883a 	mov	r2,zero
1000a204:	24c00017 	ldw	r19,0(r4)
1000a208:	21000104 	addi	r4,r4,4
1000a20c:	d9012315 	stw	r4,1164(sp)
1000a210:	9807883a 	mov	r3,r19
1000a214:	003f6e06 	br	10009fd0 <__alt_data_end+0xf8009fd0>
1000a218:	d8c12317 	ldw	r3,1164(sp)
1000a21c:	9811883a 	mov	r8,r19
1000a220:	00800c04 	movi	r2,48
1000a224:	1cc00017 	ldw	r19,0(r3)
1000a228:	01040074 	movhi	r4,4097
1000a22c:	18c00104 	addi	r3,r3,4
1000a230:	d8811d05 	stb	r2,1140(sp)
1000a234:	2106d204 	addi	r4,r4,6984
1000a238:	00801e04 	movi	r2,120
1000a23c:	d8811d45 	stb	r2,1141(sp)
1000a240:	d8c12315 	stw	r3,1164(sp)
1000a244:	002b883a 	mov	r21,zero
1000a248:	94800094 	ori	r18,r18,2
1000a24c:	d9012715 	stw	r4,1180(sp)
1000a250:	00800084 	movi	r2,2
1000a254:	9807883a 	mov	r3,r19
1000a258:	003f5d06 	br	10009fd0 <__alt_data_end+0xf8009fd0>
1000a25c:	d8c12203 	ldbu	r3,1160(sp)
1000a260:	9080080c 	andi	r2,r18,32
1000a264:	9811883a 	mov	r8,r19
1000a268:	d8c11d85 	stb	r3,1142(sp)
1000a26c:	1001b126 	beq	r2,zero,1000a934 <___vfiprintf_internal_r+0x1118>
1000a270:	d9012317 	ldw	r4,1164(sp)
1000a274:	d9412517 	ldw	r5,1172(sp)
1000a278:	20800017 	ldw	r2,0(r4)
1000a27c:	2807d7fa 	srai	r3,r5,31
1000a280:	21000104 	addi	r4,r4,4
1000a284:	d9012315 	stw	r4,1164(sp)
1000a288:	11400015 	stw	r5,0(r2)
1000a28c:	10c00115 	stw	r3,4(r2)
1000a290:	003d9a06 	br	100098fc <__alt_data_end+0xf80098fc>
1000a294:	d8812207 	ldb	r2,1160(sp)
1000a298:	1001c41e 	bne	r2,zero,1000a9ac <___vfiprintf_internal_r+0x1190>
1000a29c:	00c00804 	movi	r3,32
1000a2a0:	d8c12205 	stb	r3,1160(sp)
1000a2a4:	b9800007 	ldb	r6,0(r23)
1000a2a8:	003dbd06 	br	100099a0 <__alt_data_end+0xf80099a0>
1000a2ac:	00c00ac4 	movi	r3,43
1000a2b0:	d8c12205 	stb	r3,1160(sp)
1000a2b4:	b9800007 	ldb	r6,0(r23)
1000a2b8:	003db906 	br	100099a0 <__alt_data_end+0xf80099a0>
1000a2bc:	d8c12203 	ldbu	r3,1160(sp)
1000a2c0:	9080080c 	andi	r2,r18,32
1000a2c4:	9811883a 	mov	r8,r19
1000a2c8:	d8c11d85 	stb	r3,1142(sp)
1000a2cc:	d8c12317 	ldw	r3,1164(sp)
1000a2d0:	103e7e1e 	bne	r2,zero,10009ccc <__alt_data_end+0xf8009ccc>
1000a2d4:	9080040c 	andi	r2,r18,16
1000a2d8:	1001a926 	beq	r2,zero,1000a980 <___vfiprintf_internal_r+0x1164>
1000a2dc:	1cc00017 	ldw	r19,0(r3)
1000a2e0:	d9412317 	ldw	r5,1164(sp)
1000a2e4:	982bd7fa 	srai	r21,r19,31
1000a2e8:	29400104 	addi	r5,r5,4
1000a2ec:	d9412315 	stw	r5,1164(sp)
1000a2f0:	a805883a 	mov	r2,r21
1000a2f4:	003e7b06 	br	10009ce4 <__alt_data_end+0xf8009ce4>
1000a2f8:	94800054 	ori	r18,r18,1
1000a2fc:	b9800007 	ldb	r6,0(r23)
1000a300:	003da706 	br	100099a0 <__alt_data_end+0xf80099a0>
1000a304:	d8c12203 	ldbu	r3,1160(sp)
1000a308:	9811883a 	mov	r8,r19
1000a30c:	d8c11d85 	stb	r3,1142(sp)
1000a310:	30005826 	beq	r6,zero,1000a474 <___vfiprintf_internal_r+0xc58>
1000a314:	05400044 	movi	r21,1
1000a318:	d8c10004 	addi	r3,sp,1024
1000a31c:	d9810005 	stb	r6,1024(sp)
1000a320:	d8011d85 	stb	zero,1142(sp)
1000a324:	a829883a 	mov	r20,r21
1000a328:	d8c12215 	stw	r3,1160(sp)
1000a32c:	003f1a06 	br	10009f98 <__alt_data_end+0xf8009f98>
1000a330:	d9012117 	ldw	r4,1156(sp)
1000a334:	d9412017 	ldw	r5,1152(sp)
1000a338:	d9811a04 	addi	r6,sp,1128
1000a33c:	d9c12a15 	stw	r7,1192(sp)
1000a340:	db012b15 	stw	r12,1196(sp)
1000a344:	00097080 	call	10009708 <__sprint_r.part.0>
1000a348:	d9c12a17 	ldw	r7,1192(sp)
1000a34c:	db012b17 	ldw	r12,1196(sp)
1000a350:	10004e1e 	bne	r2,zero,1000a48c <___vfiprintf_internal_r+0xc70>
1000a354:	d9011b17 	ldw	r4,1132(sp)
1000a358:	d8c11c17 	ldw	r3,1136(sp)
1000a35c:	d811883a 	mov	r8,sp
1000a360:	21400044 	addi	r5,r4,1
1000a364:	003e9d06 	br	10009ddc <__alt_data_end+0xf8009ddc>
1000a368:	d9411b17 	ldw	r5,1132(sp)
1000a36c:	d8c11c17 	ldw	r3,1136(sp)
1000a370:	28800044 	addi	r2,r5,1
1000a374:	d9011d87 	ldb	r4,1142(sp)
1000a378:	203eb626 	beq	r4,zero,10009e54 <__alt_data_end+0xf8009e54>
1000a37c:	01000044 	movi	r4,1
1000a380:	d9411d84 	addi	r5,sp,1142
1000a384:	1907883a 	add	r3,r3,r4
1000a388:	41400015 	stw	r5,0(r8)
1000a38c:	41000115 	stw	r4,4(r8)
1000a390:	d8c11c15 	stw	r3,1136(sp)
1000a394:	d8811b15 	stw	r2,1132(sp)
1000a398:	014001c4 	movi	r5,7
1000a39c:	2880ce16 	blt	r5,r2,1000a6d8 <___vfiprintf_internal_r+0xebc>
1000a3a0:	100b883a 	mov	r5,r2
1000a3a4:	42000204 	addi	r8,r8,8
1000a3a8:	10800044 	addi	r2,r2,1
1000a3ac:	003ea906 	br	10009e54 <__alt_data_end+0xf8009e54>
1000a3b0:	d9012117 	ldw	r4,1156(sp)
1000a3b4:	d9412017 	ldw	r5,1152(sp)
1000a3b8:	d9811a04 	addi	r6,sp,1128
1000a3bc:	00097080 	call	10009708 <__sprint_r.part.0>
1000a3c0:	1000321e 	bne	r2,zero,1000a48c <___vfiprintf_internal_r+0xc70>
1000a3c4:	d9411b17 	ldw	r5,1132(sp)
1000a3c8:	d8c11c17 	ldw	r3,1136(sp)
1000a3cc:	d811883a 	mov	r8,sp
1000a3d0:	28800044 	addi	r2,r5,1
1000a3d4:	003eba06 	br	10009ec0 <__alt_data_end+0xf8009ec0>
1000a3d8:	10803fcc 	andi	r2,r2,255
1000a3dc:	00c00044 	movi	r3,1
1000a3e0:	10fe4d1e 	bne	r2,r3,10009d18 <__alt_data_end+0xf8009d18>
1000a3e4:	a800021e 	bne	r21,zero,1000a3f0 <___vfiprintf_internal_r+0xbd4>
1000a3e8:	00800244 	movi	r2,9
1000a3ec:	14c01b2e 	bgeu	r2,r19,1000a45c <___vfiprintf_internal_r+0xc40>
1000a3f0:	dc012215 	stw	r16,1160(sp)
1000a3f4:	dd010a04 	addi	r20,sp,1064
1000a3f8:	a821883a 	mov	r16,r21
1000a3fc:	402b883a 	mov	r21,r8
1000a400:	9809883a 	mov	r4,r19
1000a404:	800b883a 	mov	r5,r16
1000a408:	01800284 	movi	r6,10
1000a40c:	000f883a 	mov	r7,zero
1000a410:	000bbf00 	call	1000bbf0 <__umoddi3>
1000a414:	10800c04 	addi	r2,r2,48
1000a418:	a53fffc4 	addi	r20,r20,-1
1000a41c:	9809883a 	mov	r4,r19
1000a420:	800b883a 	mov	r5,r16
1000a424:	01800284 	movi	r6,10
1000a428:	000f883a 	mov	r7,zero
1000a42c:	a0800005 	stb	r2,0(r20)
1000a430:	000b5b00 	call	1000b5b0 <__udivdi3>
1000a434:	1027883a 	mov	r19,r2
1000a438:	10c4b03a 	or	r2,r2,r3
1000a43c:	1821883a 	mov	r16,r3
1000a440:	103fef1e 	bne	r2,zero,1000a400 <__alt_data_end+0xf800a400>
1000a444:	d9011e17 	ldw	r4,1144(sp)
1000a448:	dc012217 	ldw	r16,1160(sp)
1000a44c:	a811883a 	mov	r8,r21
1000a450:	dd012215 	stw	r20,1160(sp)
1000a454:	2529c83a 	sub	r20,r4,r20
1000a458:	003e4106 	br	10009d60 <__alt_data_end+0xf8009d60>
1000a45c:	9cc00c04 	addi	r19,r19,48
1000a460:	d8c109c4 	addi	r3,sp,1063
1000a464:	dcc109c5 	stb	r19,1063(sp)
1000a468:	dd012817 	ldw	r20,1184(sp)
1000a46c:	d8c12215 	stw	r3,1160(sp)
1000a470:	003e3b06 	br	10009d60 <__alt_data_end+0xf8009d60>
1000a474:	d8811c17 	ldw	r2,1136(sp)
1000a478:	10000426 	beq	r2,zero,1000a48c <___vfiprintf_internal_r+0xc70>
1000a47c:	d9012117 	ldw	r4,1156(sp)
1000a480:	d9412017 	ldw	r5,1152(sp)
1000a484:	d9811a04 	addi	r6,sp,1128
1000a488:	00097080 	call	10009708 <__sprint_r.part.0>
1000a48c:	d9412017 	ldw	r5,1152(sp)
1000a490:	2880030b 	ldhu	r2,12(r5)
1000a494:	1080100c 	andi	r2,r2,64
1000a498:	103ddc1e 	bne	r2,zero,10009c0c <__alt_data_end+0xf8009c0c>
1000a49c:	d8812517 	ldw	r2,1172(sp)
1000a4a0:	003ddb06 	br	10009c10 <__alt_data_end+0xf8009c10>
1000a4a4:	1801061e 	bne	r3,zero,1000a8c0 <___vfiprintf_internal_r+0x10a4>
1000a4a8:	d8c12217 	ldw	r3,1160(sp)
1000a4ac:	00800044 	movi	r2,1
1000a4b0:	dd000115 	stw	r20,4(sp)
1000a4b4:	d8c00015 	stw	r3,0(sp)
1000a4b8:	dd011c15 	stw	r20,1136(sp)
1000a4bc:	d8811b15 	stw	r2,1132(sp)
1000a4c0:	a007883a 	mov	r3,r20
1000a4c4:	d811883a 	mov	r8,sp
1000a4c8:	42000204 	addi	r8,r8,8
1000a4cc:	9480010c 	andi	r18,r18,4
1000a4d0:	90003426 	beq	r18,zero,1000a5a4 <___vfiprintf_internal_r+0xd88>
1000a4d4:	d9412417 	ldw	r5,1168(sp)
1000a4d8:	2d65c83a 	sub	r18,r5,r21
1000a4dc:	0480310e 	bge	zero,r18,1000a5a4 <___vfiprintf_internal_r+0xd88>
1000a4e0:	04000404 	movi	r16,16
1000a4e4:	8481ad0e 	bge	r16,r18,1000ab9c <___vfiprintf_internal_r+0x1380>
1000a4e8:	01440074 	movhi	r5,4097
1000a4ec:	29473704 	addi	r5,r5,7388
1000a4f0:	d9011b17 	ldw	r4,1132(sp)
1000a4f4:	d9412615 	stw	r5,1176(sp)
1000a4f8:	04c001c4 	movi	r19,7
1000a4fc:	dd012117 	ldw	r20,1156(sp)
1000a500:	dd812017 	ldw	r22,1152(sp)
1000a504:	00000506 	br	1000a51c <___vfiprintf_internal_r+0xd00>
1000a508:	21400084 	addi	r5,r4,2
1000a50c:	42000204 	addi	r8,r8,8
1000a510:	1009883a 	mov	r4,r2
1000a514:	94bffc04 	addi	r18,r18,-16
1000a518:	84800d0e 	bge	r16,r18,1000a550 <___vfiprintf_internal_r+0xd34>
1000a51c:	18c00404 	addi	r3,r3,16
1000a520:	20800044 	addi	r2,r4,1
1000a524:	47000015 	stw	fp,0(r8)
1000a528:	44000115 	stw	r16,4(r8)
1000a52c:	d8c11c15 	stw	r3,1136(sp)
1000a530:	d8811b15 	stw	r2,1132(sp)
1000a534:	98bff40e 	bge	r19,r2,1000a508 <__alt_data_end+0xf800a508>
1000a538:	1800291e 	bne	r3,zero,1000a5e0 <___vfiprintf_internal_r+0xdc4>
1000a53c:	94bffc04 	addi	r18,r18,-16
1000a540:	0009883a 	mov	r4,zero
1000a544:	01400044 	movi	r5,1
1000a548:	d811883a 	mov	r8,sp
1000a54c:	84bff316 	blt	r16,r18,1000a51c <__alt_data_end+0xf800a51c>
1000a550:	d8812617 	ldw	r2,1176(sp)
1000a554:	1c87883a 	add	r3,r3,r18
1000a558:	44800115 	stw	r18,4(r8)
1000a55c:	40800015 	stw	r2,0(r8)
1000a560:	d8c11c15 	stw	r3,1136(sp)
1000a564:	d9411b15 	stw	r5,1132(sp)
1000a568:	008001c4 	movi	r2,7
1000a56c:	11400d0e 	bge	r2,r5,1000a5a4 <___vfiprintf_internal_r+0xd88>
1000a570:	1800061e 	bne	r3,zero,1000a58c <___vfiprintf_internal_r+0xd70>
1000a574:	d8c12417 	ldw	r3,1168(sp)
1000a578:	a8c12e16 	blt	r21,r3,1000aa34 <___vfiprintf_internal_r+0x1218>
1000a57c:	d9012517 	ldw	r4,1172(sp)
1000a580:	2549883a 	add	r4,r4,r21
1000a584:	d9012515 	stw	r4,1172(sp)
1000a588:	00001206 	br	1000a5d4 <___vfiprintf_internal_r+0xdb8>
1000a58c:	d9012117 	ldw	r4,1156(sp)
1000a590:	d9412017 	ldw	r5,1152(sp)
1000a594:	d9811a04 	addi	r6,sp,1128
1000a598:	00097080 	call	10009708 <__sprint_r.part.0>
1000a59c:	103fbb1e 	bne	r2,zero,1000a48c <__alt_data_end+0xf800a48c>
1000a5a0:	d8c11c17 	ldw	r3,1136(sp)
1000a5a4:	d8812417 	ldw	r2,1168(sp)
1000a5a8:	a880010e 	bge	r21,r2,1000a5b0 <___vfiprintf_internal_r+0xd94>
1000a5ac:	102b883a 	mov	r21,r2
1000a5b0:	d9012517 	ldw	r4,1172(sp)
1000a5b4:	2549883a 	add	r4,r4,r21
1000a5b8:	d9012515 	stw	r4,1172(sp)
1000a5bc:	18000526 	beq	r3,zero,1000a5d4 <___vfiprintf_internal_r+0xdb8>
1000a5c0:	d9012117 	ldw	r4,1156(sp)
1000a5c4:	d9412017 	ldw	r5,1152(sp)
1000a5c8:	d9811a04 	addi	r6,sp,1128
1000a5cc:	00097080 	call	10009708 <__sprint_r.part.0>
1000a5d0:	103fae1e 	bne	r2,zero,1000a48c <__alt_data_end+0xf800a48c>
1000a5d4:	d8011b15 	stw	zero,1132(sp)
1000a5d8:	d811883a 	mov	r8,sp
1000a5dc:	003cc706 	br	100098fc <__alt_data_end+0xf80098fc>
1000a5e0:	a009883a 	mov	r4,r20
1000a5e4:	b00b883a 	mov	r5,r22
1000a5e8:	d9811a04 	addi	r6,sp,1128
1000a5ec:	00097080 	call	10009708 <__sprint_r.part.0>
1000a5f0:	103fa61e 	bne	r2,zero,1000a48c <__alt_data_end+0xf800a48c>
1000a5f4:	d9011b17 	ldw	r4,1132(sp)
1000a5f8:	d8c11c17 	ldw	r3,1136(sp)
1000a5fc:	d811883a 	mov	r8,sp
1000a600:	21400044 	addi	r5,r4,1
1000a604:	003fc306 	br	1000a514 <__alt_data_end+0xf800a514>
1000a608:	d9012417 	ldw	r4,1168(sp)
1000a60c:	256dc83a 	sub	r22,r4,r21
1000a610:	05be1f0e 	bge	zero,r22,10009e90 <__alt_data_end+0xf8009e90>
1000a614:	04c00404 	movi	r19,16
1000a618:	9d81720e 	bge	r19,r22,1000abe4 <___vfiprintf_internal_r+0x13c8>
1000a61c:	00840074 	movhi	r2,4097
1000a620:	10873304 	addi	r2,r2,7372
1000a624:	d8812615 	stw	r2,1176(sp)
1000a628:	028001c4 	movi	r10,7
1000a62c:	00000506 	br	1000a644 <___vfiprintf_internal_r+0xe28>
1000a630:	29000084 	addi	r4,r5,2
1000a634:	42000204 	addi	r8,r8,8
1000a638:	100b883a 	mov	r5,r2
1000a63c:	b5bffc04 	addi	r22,r22,-16
1000a640:	9d800d0e 	bge	r19,r22,1000a678 <___vfiprintf_internal_r+0xe5c>
1000a644:	18c00404 	addi	r3,r3,16
1000a648:	28800044 	addi	r2,r5,1
1000a64c:	44400015 	stw	r17,0(r8)
1000a650:	44c00115 	stw	r19,4(r8)
1000a654:	d8c11c15 	stw	r3,1136(sp)
1000a658:	d8811b15 	stw	r2,1132(sp)
1000a65c:	50bff40e 	bge	r10,r2,1000a630 <__alt_data_end+0xf800a630>
1000a660:	1800111e 	bne	r3,zero,1000a6a8 <___vfiprintf_internal_r+0xe8c>
1000a664:	b5bffc04 	addi	r22,r22,-16
1000a668:	000b883a 	mov	r5,zero
1000a66c:	01000044 	movi	r4,1
1000a670:	d811883a 	mov	r8,sp
1000a674:	9dbff316 	blt	r19,r22,1000a644 <__alt_data_end+0xf800a644>
1000a678:	d9412617 	ldw	r5,1176(sp)
1000a67c:	1d87883a 	add	r3,r3,r22
1000a680:	45800115 	stw	r22,4(r8)
1000a684:	41400015 	stw	r5,0(r8)
1000a688:	d8c11c15 	stw	r3,1136(sp)
1000a68c:	d9011b15 	stw	r4,1132(sp)
1000a690:	008001c4 	movi	r2,7
1000a694:	11008516 	blt	r2,r4,1000a8ac <___vfiprintf_internal_r+0x1090>
1000a698:	42000204 	addi	r8,r8,8
1000a69c:	20800044 	addi	r2,r4,1
1000a6a0:	200b883a 	mov	r5,r4
1000a6a4:	003dfa06 	br	10009e90 <__alt_data_end+0xf8009e90>
1000a6a8:	d9012117 	ldw	r4,1156(sp)
1000a6ac:	d9412017 	ldw	r5,1152(sp)
1000a6b0:	d9811a04 	addi	r6,sp,1128
1000a6b4:	da812a15 	stw	r10,1192(sp)
1000a6b8:	00097080 	call	10009708 <__sprint_r.part.0>
1000a6bc:	da812a17 	ldw	r10,1192(sp)
1000a6c0:	103f721e 	bne	r2,zero,1000a48c <__alt_data_end+0xf800a48c>
1000a6c4:	d9411b17 	ldw	r5,1132(sp)
1000a6c8:	d8c11c17 	ldw	r3,1136(sp)
1000a6cc:	d811883a 	mov	r8,sp
1000a6d0:	29000044 	addi	r4,r5,1
1000a6d4:	003fd906 	br	1000a63c <__alt_data_end+0xf800a63c>
1000a6d8:	1800681e 	bne	r3,zero,1000a87c <___vfiprintf_internal_r+0x1060>
1000a6dc:	50004d26 	beq	r10,zero,1000a814 <___vfiprintf_internal_r+0xff8>
1000a6e0:	d8811d04 	addi	r2,sp,1140
1000a6e4:	00c00084 	movi	r3,2
1000a6e8:	d8800015 	stw	r2,0(sp)
1000a6ec:	d8c00115 	stw	r3,4(sp)
1000a6f0:	2005883a 	mov	r2,r4
1000a6f4:	d811883a 	mov	r8,sp
1000a6f8:	003de006 	br	10009e7c <__alt_data_end+0xf8009e7c>
1000a6fc:	1800551e 	bne	r3,zero,1000a854 <___vfiprintf_internal_r+0x1038>
1000a700:	000b883a 	mov	r5,zero
1000a704:	00800044 	movi	r2,1
1000a708:	d811883a 	mov	r8,sp
1000a70c:	003dde06 	br	10009e88 <__alt_data_end+0xf8009e88>
1000a710:	10803fcc 	andi	r2,r2,255
1000a714:	1000191e 	bne	r2,zero,1000a77c <___vfiprintf_internal_r+0xf60>
1000a718:	9080004c 	andi	r2,r18,1
1000a71c:	10001726 	beq	r2,zero,1000a77c <___vfiprintf_internal_r+0xf60>
1000a720:	00800c04 	movi	r2,48
1000a724:	d8c109c4 	addi	r3,sp,1063
1000a728:	d88109c5 	stb	r2,1063(sp)
1000a72c:	dd012817 	ldw	r20,1184(sp)
1000a730:	d8c12215 	stw	r3,1160(sp)
1000a734:	003d8a06 	br	10009d60 <__alt_data_end+0xf8009d60>
1000a738:	d9012717 	ldw	r4,1180(sp)
1000a73c:	dd010a04 	addi	r20,sp,1064
1000a740:	988003cc 	andi	r2,r19,15
1000a744:	a806973a 	slli	r3,r21,28
1000a748:	2085883a 	add	r2,r4,r2
1000a74c:	9826d13a 	srli	r19,r19,4
1000a750:	10800003 	ldbu	r2,0(r2)
1000a754:	a82ad13a 	srli	r21,r21,4
1000a758:	a53fffc4 	addi	r20,r20,-1
1000a75c:	1ce6b03a 	or	r19,r3,r19
1000a760:	a0800005 	stb	r2,0(r20)
1000a764:	9d44b03a 	or	r2,r19,r21
1000a768:	103ff51e 	bne	r2,zero,1000a740 <__alt_data_end+0xf800a740>
1000a76c:	d9411e17 	ldw	r5,1144(sp)
1000a770:	dd012215 	stw	r20,1160(sp)
1000a774:	2d29c83a 	sub	r20,r5,r20
1000a778:	003d7906 	br	10009d60 <__alt_data_end+0xf8009d60>
1000a77c:	d8c10a04 	addi	r3,sp,1064
1000a780:	d8c12215 	stw	r3,1160(sp)
1000a784:	003d7606 	br	10009d60 <__alt_data_end+0xf8009d60>
1000a788:	18009e1e 	bne	r3,zero,1000aa04 <___vfiprintf_internal_r+0x11e8>
1000a78c:	d8811d87 	ldb	r2,1142(sp)
1000a790:	10005f26 	beq	r2,zero,1000a910 <___vfiprintf_internal_r+0x10f4>
1000a794:	00c00044 	movi	r3,1
1000a798:	d9011d84 	addi	r4,sp,1142
1000a79c:	1805883a 	mov	r2,r3
1000a7a0:	d9000015 	stw	r4,0(sp)
1000a7a4:	d8c00115 	stw	r3,4(sp)
1000a7a8:	d811883a 	mov	r8,sp
1000a7ac:	003efc06 	br	1000a3a0 <__alt_data_end+0xf800a3a0>
1000a7b0:	d9412417 	ldw	r5,1168(sp)
1000a7b4:	d811883a 	mov	r8,sp
1000a7b8:	2d65c83a 	sub	r18,r5,r21
1000a7bc:	04bf4816 	blt	zero,r18,1000a4e0 <__alt_data_end+0xf800a4e0>
1000a7c0:	003f6c06 	br	1000a574 <__alt_data_end+0xf800a574>
1000a7c4:	b829883a 	mov	r20,r23
1000a7c8:	003c6906 	br	10009970 <__alt_data_end+0xf8009970>
1000a7cc:	d9012117 	ldw	r4,1156(sp)
1000a7d0:	d9412017 	ldw	r5,1152(sp)
1000a7d4:	d9811a04 	addi	r6,sp,1128
1000a7d8:	00097080 	call	10009708 <__sprint_r.part.0>
1000a7dc:	103f2b1e 	bne	r2,zero,1000a48c <__alt_data_end+0xf800a48c>
1000a7e0:	d8c11c17 	ldw	r3,1136(sp)
1000a7e4:	d811883a 	mov	r8,sp
1000a7e8:	003f3806 	br	1000a4cc <__alt_data_end+0xf800a4cc>
1000a7ec:	00800084 	movi	r2,2
1000a7f0:	9d46b03a 	or	r3,r19,r21
1000a7f4:	003df606 	br	10009fd0 <__alt_data_end+0xf8009fd0>
1000a7f8:	d9012117 	ldw	r4,1156(sp)
1000a7fc:	d9412017 	ldw	r5,1152(sp)
1000a800:	d9811a04 	addi	r6,sp,1128
1000a804:	00097080 	call	10009708 <__sprint_r.part.0>
1000a808:	103f201e 	bne	r2,zero,1000a48c <__alt_data_end+0xf800a48c>
1000a80c:	d811883a 	mov	r8,sp
1000a810:	003cc606 	br	10009b2c <__alt_data_end+0xf8009b2c>
1000a814:	000b883a 	mov	r5,zero
1000a818:	2005883a 	mov	r2,r4
1000a81c:	d811883a 	mov	r8,sp
1000a820:	003d9906 	br	10009e88 <__alt_data_end+0xf8009e88>
1000a824:	10803fcc 	andi	r2,r2,255
1000a828:	1080201c 	xori	r2,r2,128
1000a82c:	10bfe004 	addi	r2,r2,-128
1000a830:	01000c04 	movi	r4,48
1000a834:	1100b226 	beq	r2,r4,1000ab00 <___vfiprintf_internal_r+0x12e4>
1000a838:	d9412217 	ldw	r5,1160(sp)
1000a83c:	d8811e17 	ldw	r2,1144(sp)
1000a840:	193fffc5 	stb	r4,-1(r3)
1000a844:	297fffc4 	addi	r5,r5,-1
1000a848:	d9412215 	stw	r5,1160(sp)
1000a84c:	1169c83a 	sub	r20,r2,r5
1000a850:	003d4306 	br	10009d60 <__alt_data_end+0xf8009d60>
1000a854:	d9012117 	ldw	r4,1156(sp)
1000a858:	d9412017 	ldw	r5,1152(sp)
1000a85c:	d9811a04 	addi	r6,sp,1128
1000a860:	00097080 	call	10009708 <__sprint_r.part.0>
1000a864:	103f091e 	bne	r2,zero,1000a48c <__alt_data_end+0xf800a48c>
1000a868:	d9411b17 	ldw	r5,1132(sp)
1000a86c:	d8c11c17 	ldw	r3,1136(sp)
1000a870:	d811883a 	mov	r8,sp
1000a874:	28800044 	addi	r2,r5,1
1000a878:	003d8306 	br	10009e88 <__alt_data_end+0xf8009e88>
1000a87c:	d9012117 	ldw	r4,1156(sp)
1000a880:	d9412017 	ldw	r5,1152(sp)
1000a884:	d9811a04 	addi	r6,sp,1128
1000a888:	da812a15 	stw	r10,1192(sp)
1000a88c:	00097080 	call	10009708 <__sprint_r.part.0>
1000a890:	da812a17 	ldw	r10,1192(sp)
1000a894:	103efd1e 	bne	r2,zero,1000a48c <__alt_data_end+0xf800a48c>
1000a898:	d9411b17 	ldw	r5,1132(sp)
1000a89c:	d8c11c17 	ldw	r3,1136(sp)
1000a8a0:	d811883a 	mov	r8,sp
1000a8a4:	28800044 	addi	r2,r5,1
1000a8a8:	003d6a06 	br	10009e54 <__alt_data_end+0xf8009e54>
1000a8ac:	1800a01e 	bne	r3,zero,1000ab30 <___vfiprintf_internal_r+0x1314>
1000a8b0:	000b883a 	mov	r5,zero
1000a8b4:	00800044 	movi	r2,1
1000a8b8:	d811883a 	mov	r8,sp
1000a8bc:	003d7406 	br	10009e90 <__alt_data_end+0xf8009e90>
1000a8c0:	d9012117 	ldw	r4,1156(sp)
1000a8c4:	d9412017 	ldw	r5,1152(sp)
1000a8c8:	d9811a04 	addi	r6,sp,1128
1000a8cc:	00097080 	call	10009708 <__sprint_r.part.0>
1000a8d0:	103eee1e 	bne	r2,zero,1000a48c <__alt_data_end+0xf800a48c>
1000a8d4:	d8811b17 	ldw	r2,1132(sp)
1000a8d8:	d8c11c17 	ldw	r3,1136(sp)
1000a8dc:	d811883a 	mov	r8,sp
1000a8e0:	10800044 	addi	r2,r2,1
1000a8e4:	003d8f06 	br	10009f24 <__alt_data_end+0xf8009f24>
1000a8e8:	04e7c83a 	sub	r19,zero,r19
1000a8ec:	9804c03a 	cmpne	r2,r19,zero
1000a8f0:	056bc83a 	sub	r21,zero,r21
1000a8f4:	a8abc83a 	sub	r21,r21,r2
1000a8f8:	05800b44 	movi	r22,45
1000a8fc:	dd811d85 	stb	r22,1142(sp)
1000a900:	8029883a 	mov	r20,r16
1000a904:	00800044 	movi	r2,1
1000a908:	9d46b03a 	or	r3,r19,r21
1000a90c:	003cfa06 	br	10009cf8 <__alt_data_end+0xf8009cf8>
1000a910:	000b883a 	mov	r5,zero
1000a914:	00800044 	movi	r2,1
1000a918:	d811883a 	mov	r8,sp
1000a91c:	503d5a26 	beq	r10,zero,10009e88 <__alt_data_end+0xf8009e88>
1000a920:	00c00084 	movi	r3,2
1000a924:	d9011d04 	addi	r4,sp,1140
1000a928:	d9000015 	stw	r4,0(sp)
1000a92c:	d8c00115 	stw	r3,4(sp)
1000a930:	003d5206 	br	10009e7c <__alt_data_end+0xf8009e7c>
1000a934:	9080040c 	andi	r2,r18,16
1000a938:	1000421e 	bne	r2,zero,1000aa44 <___vfiprintf_internal_r+0x1228>
1000a93c:	9480100c 	andi	r18,r18,64
1000a940:	90009c26 	beq	r18,zero,1000abb4 <___vfiprintf_internal_r+0x1398>
1000a944:	d9412317 	ldw	r5,1164(sp)
1000a948:	d8c12517 	ldw	r3,1172(sp)
1000a94c:	28800017 	ldw	r2,0(r5)
1000a950:	29400104 	addi	r5,r5,4
1000a954:	d9412315 	stw	r5,1164(sp)
1000a958:	10c0000d 	sth	r3,0(r2)
1000a95c:	003be706 	br	100098fc <__alt_data_end+0xf80098fc>
1000a960:	90c0100c 	andi	r3,r18,64
1000a964:	18003e26 	beq	r3,zero,1000aa60 <___vfiprintf_internal_r+0x1244>
1000a968:	d8c12317 	ldw	r3,1164(sp)
1000a96c:	14c0000b 	ldhu	r19,0(r2)
1000a970:	002b883a 	mov	r21,zero
1000a974:	18c00104 	addi	r3,r3,4
1000a978:	d8c12315 	stw	r3,1164(sp)
1000a97c:	003db706 	br	1000a05c <__alt_data_end+0xf800a05c>
1000a980:	9080100c 	andi	r2,r18,64
1000a984:	10004c26 	beq	r2,zero,1000aab8 <___vfiprintf_internal_r+0x129c>
1000a988:	1cc0000f 	ldh	r19,0(r3)
1000a98c:	d8812317 	ldw	r2,1164(sp)
1000a990:	982bd7fa 	srai	r21,r19,31
1000a994:	10800104 	addi	r2,r2,4
1000a998:	d8812315 	stw	r2,1164(sp)
1000a99c:	a805883a 	mov	r2,r21
1000a9a0:	003cd006 	br	10009ce4 <__alt_data_end+0xf8009ce4>
1000a9a4:	00800084 	movi	r2,2
1000a9a8:	003d8906 	br	10009fd0 <__alt_data_end+0xf8009fd0>
1000a9ac:	b9800007 	ldb	r6,0(r23)
1000a9b0:	003bfb06 	br	100099a0 <__alt_data_end+0xf80099a0>
1000a9b4:	9080100c 	andi	r2,r18,64
1000a9b8:	10003726 	beq	r2,zero,1000aa98 <___vfiprintf_internal_r+0x127c>
1000a9bc:	d9412317 	ldw	r5,1164(sp)
1000a9c0:	002b883a 	mov	r21,zero
1000a9c4:	0005883a 	mov	r2,zero
1000a9c8:	2cc0000b 	ldhu	r19,0(r5)
1000a9cc:	29400104 	addi	r5,r5,4
1000a9d0:	d9412315 	stw	r5,1164(sp)
1000a9d4:	9807883a 	mov	r3,r19
1000a9d8:	003d7d06 	br	10009fd0 <__alt_data_end+0xf8009fd0>
1000a9dc:	9080100c 	andi	r2,r18,64
1000a9e0:	10002526 	beq	r2,zero,1000aa78 <___vfiprintf_internal_r+0x125c>
1000a9e4:	d8812317 	ldw	r2,1164(sp)
1000a9e8:	002b883a 	mov	r21,zero
1000a9ec:	14c0000b 	ldhu	r19,0(r2)
1000a9f0:	10800104 	addi	r2,r2,4
1000a9f4:	d8812315 	stw	r2,1164(sp)
1000a9f8:	9807883a 	mov	r3,r19
1000a9fc:	00800044 	movi	r2,1
1000aa00:	003d7306 	br	10009fd0 <__alt_data_end+0xf8009fd0>
1000aa04:	d9012117 	ldw	r4,1156(sp)
1000aa08:	d9412017 	ldw	r5,1152(sp)
1000aa0c:	d9811a04 	addi	r6,sp,1128
1000aa10:	da812a15 	stw	r10,1192(sp)
1000aa14:	00097080 	call	10009708 <__sprint_r.part.0>
1000aa18:	da812a17 	ldw	r10,1192(sp)
1000aa1c:	103e9b1e 	bne	r2,zero,1000a48c <__alt_data_end+0xf800a48c>
1000aa20:	d9411b17 	ldw	r5,1132(sp)
1000aa24:	d8c11c17 	ldw	r3,1136(sp)
1000aa28:	d811883a 	mov	r8,sp
1000aa2c:	28800044 	addi	r2,r5,1
1000aa30:	003e5006 	br	1000a374 <__alt_data_end+0xf800a374>
1000aa34:	182b883a 	mov	r21,r3
1000aa38:	003ed006 	br	1000a57c <__alt_data_end+0xf800a57c>
1000aa3c:	8029883a 	mov	r20,r16
1000aa40:	003dc606 	br	1000a15c <__alt_data_end+0xf800a15c>
1000aa44:	d8c12317 	ldw	r3,1164(sp)
1000aa48:	d9012517 	ldw	r4,1172(sp)
1000aa4c:	18800017 	ldw	r2,0(r3)
1000aa50:	18c00104 	addi	r3,r3,4
1000aa54:	d8c12315 	stw	r3,1164(sp)
1000aa58:	11000015 	stw	r4,0(r2)
1000aa5c:	003ba706 	br	100098fc <__alt_data_end+0xf80098fc>
1000aa60:	d9012317 	ldw	r4,1164(sp)
1000aa64:	14c00017 	ldw	r19,0(r2)
1000aa68:	002b883a 	mov	r21,zero
1000aa6c:	21000104 	addi	r4,r4,4
1000aa70:	d9012315 	stw	r4,1164(sp)
1000aa74:	003d7906 	br	1000a05c <__alt_data_end+0xf800a05c>
1000aa78:	d8c12317 	ldw	r3,1164(sp)
1000aa7c:	002b883a 	mov	r21,zero
1000aa80:	00800044 	movi	r2,1
1000aa84:	1cc00017 	ldw	r19,0(r3)
1000aa88:	18c00104 	addi	r3,r3,4
1000aa8c:	d8c12315 	stw	r3,1164(sp)
1000aa90:	9807883a 	mov	r3,r19
1000aa94:	003d4e06 	br	10009fd0 <__alt_data_end+0xf8009fd0>
1000aa98:	d8812317 	ldw	r2,1164(sp)
1000aa9c:	002b883a 	mov	r21,zero
1000aaa0:	14c00017 	ldw	r19,0(r2)
1000aaa4:	10800104 	addi	r2,r2,4
1000aaa8:	d8812315 	stw	r2,1164(sp)
1000aaac:	9807883a 	mov	r3,r19
1000aab0:	0005883a 	mov	r2,zero
1000aab4:	003d4606 	br	10009fd0 <__alt_data_end+0xf8009fd0>
1000aab8:	1cc00017 	ldw	r19,0(r3)
1000aabc:	d8c12317 	ldw	r3,1164(sp)
1000aac0:	982bd7fa 	srai	r21,r19,31
1000aac4:	18c00104 	addi	r3,r3,4
1000aac8:	d8c12315 	stw	r3,1164(sp)
1000aacc:	a805883a 	mov	r2,r21
1000aad0:	003c8406 	br	10009ce4 <__alt_data_end+0xf8009ce4>
1000aad4:	01040074 	movhi	r4,4097
1000aad8:	21073304 	addi	r4,r4,7372
1000aadc:	d9012615 	stw	r4,1176(sp)
1000aae0:	003d0606 	br	10009efc <__alt_data_end+0xf8009efc>
1000aae4:	b9800043 	ldbu	r6,1(r23)
1000aae8:	94800814 	ori	r18,r18,32
1000aaec:	bdc00044 	addi	r23,r23,1
1000aaf0:	31803fcc 	andi	r6,r6,255
1000aaf4:	3180201c 	xori	r6,r6,128
1000aaf8:	31bfe004 	addi	r6,r6,-128
1000aafc:	003ba806 	br	100099a0 <__alt_data_end+0xf80099a0>
1000ab00:	d8811e17 	ldw	r2,1144(sp)
1000ab04:	d8c12217 	ldw	r3,1160(sp)
1000ab08:	10e9c83a 	sub	r20,r2,r3
1000ab0c:	003c9406 	br	10009d60 <__alt_data_end+0xf8009d60>
1000ab10:	da012a15 	stw	r8,1192(sp)
1000ab14:	000232c0 	call	1000232c <strlen>
1000ab18:	1029883a 	mov	r20,r2
1000ab1c:	dd811d83 	ldbu	r22,1142(sp)
1000ab20:	dcc12315 	stw	r19,1164(sp)
1000ab24:	0021883a 	mov	r16,zero
1000ab28:	da012a17 	ldw	r8,1192(sp)
1000ab2c:	003c8c06 	br	10009d60 <__alt_data_end+0xf8009d60>
1000ab30:	d9012117 	ldw	r4,1156(sp)
1000ab34:	d9412017 	ldw	r5,1152(sp)
1000ab38:	d9811a04 	addi	r6,sp,1128
1000ab3c:	00097080 	call	10009708 <__sprint_r.part.0>
1000ab40:	103e521e 	bne	r2,zero,1000a48c <__alt_data_end+0xf800a48c>
1000ab44:	d9411b17 	ldw	r5,1132(sp)
1000ab48:	d8c11c17 	ldw	r3,1136(sp)
1000ab4c:	d811883a 	mov	r8,sp
1000ab50:	28800044 	addi	r2,r5,1
1000ab54:	003cce06 	br	10009e90 <__alt_data_end+0xf8009e90>
1000ab58:	01440074 	movhi	r5,4097
1000ab5c:	29473704 	addi	r5,r5,7388
1000ab60:	d9412615 	stw	r5,1176(sp)
1000ab64:	d9411b17 	ldw	r5,1132(sp)
1000ab68:	29400044 	addi	r5,r5,1
1000ab6c:	003cad06 	br	10009e24 <__alt_data_end+0xf8009e24>
1000ab70:	00800184 	movi	r2,6
1000ab74:	1400012e 	bgeu	r2,r16,1000ab7c <___vfiprintf_internal_r+0x1360>
1000ab78:	1021883a 	mov	r16,r2
1000ab7c:	8029883a 	mov	r20,r16
1000ab80:	802b883a 	mov	r21,r16
1000ab84:	80001c16 	blt	r16,zero,1000abf8 <___vfiprintf_internal_r+0x13dc>
1000ab88:	00c40074 	movhi	r3,4097
1000ab8c:	18c6d704 	addi	r3,r3,7004
1000ab90:	dcc12315 	stw	r19,1164(sp)
1000ab94:	d8c12215 	stw	r3,1160(sp)
1000ab98:	003cff06 	br	10009f98 <__alt_data_end+0xf8009f98>
1000ab9c:	d9411b17 	ldw	r5,1132(sp)
1000aba0:	00840074 	movhi	r2,4097
1000aba4:	10873704 	addi	r2,r2,7388
1000aba8:	d8812615 	stw	r2,1176(sp)
1000abac:	29400044 	addi	r5,r5,1
1000abb0:	003e6706 	br	1000a550 <__alt_data_end+0xf800a550>
1000abb4:	d9012317 	ldw	r4,1164(sp)
1000abb8:	d9412517 	ldw	r5,1172(sp)
1000abbc:	20800017 	ldw	r2,0(r4)
1000abc0:	21000104 	addi	r4,r4,4
1000abc4:	d9012315 	stw	r4,1164(sp)
1000abc8:	11400015 	stw	r5,0(r2)
1000abcc:	003b4b06 	br	100098fc <__alt_data_end+0xf80098fc>
1000abd0:	8029883a 	mov	r20,r16
1000abd4:	dd811d83 	ldbu	r22,1142(sp)
1000abd8:	dcc12315 	stw	r19,1164(sp)
1000abdc:	0021883a 	mov	r16,zero
1000abe0:	003c5f06 	br	10009d60 <__alt_data_end+0xf8009d60>
1000abe4:	01040074 	movhi	r4,4097
1000abe8:	21073304 	addi	r4,r4,7372
1000abec:	d9012615 	stw	r4,1176(sp)
1000abf0:	1009883a 	mov	r4,r2
1000abf4:	003ea006 	br	1000a678 <__alt_data_end+0xf800a678>
1000abf8:	002b883a 	mov	r21,zero
1000abfc:	003fe206 	br	1000ab88 <__alt_data_end+0xf800ab88>
1000ac00:	d9412317 	ldw	r5,1164(sp)
1000ac04:	b807883a 	mov	r3,r23
1000ac08:	102f883a 	mov	r23,r2
1000ac0c:	2c000017 	ldw	r16,0(r5)
1000ac10:	29000104 	addi	r4,r5,4
1000ac14:	d9012315 	stw	r4,1164(sp)
1000ac18:	80000416 	blt	r16,zero,1000ac2c <___vfiprintf_internal_r+0x1410>
1000ac1c:	19800047 	ldb	r6,1(r3)
1000ac20:	003b5f06 	br	100099a0 <__alt_data_end+0xf80099a0>
1000ac24:	043fffc4 	movi	r16,-1
1000ac28:	003bef06 	br	10009be8 <__alt_data_end+0xf8009be8>
1000ac2c:	043fffc4 	movi	r16,-1
1000ac30:	19800047 	ldb	r6,1(r3)
1000ac34:	003b5a06 	br	100099a0 <__alt_data_end+0xf80099a0>
1000ac38:	282b883a 	mov	r21,r5
1000ac3c:	003cc706 	br	10009f5c <__alt_data_end+0xf8009f5c>

1000ac40 <__vfiprintf_internal>:
1000ac40:	2007883a 	mov	r3,r4
1000ac44:	01040074 	movhi	r4,4097
1000ac48:	210e3404 	addi	r4,r4,14544
1000ac4c:	21000017 	ldw	r4,0(r4)
1000ac50:	2805883a 	mov	r2,r5
1000ac54:	300f883a 	mov	r7,r6
1000ac58:	180b883a 	mov	r5,r3
1000ac5c:	100d883a 	mov	r6,r2
1000ac60:	000981c1 	jmpi	1000981c <___vfiprintf_internal_r>

1000ac64 <_write_r>:
1000ac64:	defffd04 	addi	sp,sp,-12
1000ac68:	dc000015 	stw	r16,0(sp)
1000ac6c:	04040074 	movhi	r16,4097
1000ac70:	dc400115 	stw	r17,4(sp)
1000ac74:	84150504 	addi	r16,r16,21524
1000ac78:	2023883a 	mov	r17,r4
1000ac7c:	2809883a 	mov	r4,r5
1000ac80:	300b883a 	mov	r5,r6
1000ac84:	380d883a 	mov	r6,r7
1000ac88:	dfc00215 	stw	ra,8(sp)
1000ac8c:	80000015 	stw	zero,0(r16)
1000ac90:	000f4800 	call	1000f480 <write>
1000ac94:	00ffffc4 	movi	r3,-1
1000ac98:	10c00526 	beq	r2,r3,1000acb0 <_write_r+0x4c>
1000ac9c:	dfc00217 	ldw	ra,8(sp)
1000aca0:	dc400117 	ldw	r17,4(sp)
1000aca4:	dc000017 	ldw	r16,0(sp)
1000aca8:	dec00304 	addi	sp,sp,12
1000acac:	f800283a 	ret
1000acb0:	80c00017 	ldw	r3,0(r16)
1000acb4:	183ff926 	beq	r3,zero,1000ac9c <__alt_data_end+0xf800ac9c>
1000acb8:	88c00015 	stw	r3,0(r17)
1000acbc:	003ff706 	br	1000ac9c <__alt_data_end+0xf800ac9c>

1000acc0 <_close_r>:
1000acc0:	defffd04 	addi	sp,sp,-12
1000acc4:	dc000015 	stw	r16,0(sp)
1000acc8:	04040074 	movhi	r16,4097
1000accc:	dc400115 	stw	r17,4(sp)
1000acd0:	84150504 	addi	r16,r16,21524
1000acd4:	2023883a 	mov	r17,r4
1000acd8:	2809883a 	mov	r4,r5
1000acdc:	dfc00215 	stw	ra,8(sp)
1000ace0:	80000015 	stw	zero,0(r16)
1000ace4:	000ebac0 	call	1000ebac <close>
1000ace8:	00ffffc4 	movi	r3,-1
1000acec:	10c00526 	beq	r2,r3,1000ad04 <_close_r+0x44>
1000acf0:	dfc00217 	ldw	ra,8(sp)
1000acf4:	dc400117 	ldw	r17,4(sp)
1000acf8:	dc000017 	ldw	r16,0(sp)
1000acfc:	dec00304 	addi	sp,sp,12
1000ad00:	f800283a 	ret
1000ad04:	80c00017 	ldw	r3,0(r16)
1000ad08:	183ff926 	beq	r3,zero,1000acf0 <__alt_data_end+0xf800acf0>
1000ad0c:	88c00015 	stw	r3,0(r17)
1000ad10:	003ff706 	br	1000acf0 <__alt_data_end+0xf800acf0>

1000ad14 <_calloc_r>:
1000ad14:	defffe04 	addi	sp,sp,-8
1000ad18:	dc000015 	stw	r16,0(sp)
1000ad1c:	2021883a 	mov	r16,r4
1000ad20:	2809883a 	mov	r4,r5
1000ad24:	300b883a 	mov	r5,r6
1000ad28:	dfc00115 	stw	ra,4(sp)
1000ad2c:	000c3380 	call	1000c338 <__mulsi3>
1000ad30:	8009883a 	mov	r4,r16
1000ad34:	100b883a 	mov	r5,r2
1000ad38:	00072300 	call	10007230 <_malloc_r>
1000ad3c:	1021883a 	mov	r16,r2
1000ad40:	10002826 	beq	r2,zero,1000ade4 <_calloc_r+0xd0>
1000ad44:	11bfff17 	ldw	r6,-4(r2)
1000ad48:	00bfff04 	movi	r2,-4
1000ad4c:	00c00904 	movi	r3,36
1000ad50:	308c703a 	and	r6,r6,r2
1000ad54:	308d883a 	add	r6,r6,r2
1000ad58:	19801436 	bltu	r3,r6,1000adac <_calloc_r+0x98>
1000ad5c:	008004c4 	movi	r2,19
1000ad60:	11800936 	bltu	r2,r6,1000ad88 <_calloc_r+0x74>
1000ad64:	8005883a 	mov	r2,r16
1000ad68:	10000015 	stw	zero,0(r2)
1000ad6c:	10000115 	stw	zero,4(r2)
1000ad70:	10000215 	stw	zero,8(r2)
1000ad74:	8005883a 	mov	r2,r16
1000ad78:	dfc00117 	ldw	ra,4(sp)
1000ad7c:	dc000017 	ldw	r16,0(sp)
1000ad80:	dec00204 	addi	sp,sp,8
1000ad84:	f800283a 	ret
1000ad88:	80000015 	stw	zero,0(r16)
1000ad8c:	80000115 	stw	zero,4(r16)
1000ad90:	008006c4 	movi	r2,27
1000ad94:	11800d2e 	bgeu	r2,r6,1000adcc <_calloc_r+0xb8>
1000ad98:	80000215 	stw	zero,8(r16)
1000ad9c:	80000315 	stw	zero,12(r16)
1000ada0:	30c00c26 	beq	r6,r3,1000add4 <_calloc_r+0xc0>
1000ada4:	80800404 	addi	r2,r16,16
1000ada8:	003fef06 	br	1000ad68 <__alt_data_end+0xf800ad68>
1000adac:	8009883a 	mov	r4,r16
1000adb0:	000b883a 	mov	r5,zero
1000adb4:	0007d540 	call	10007d54 <memset>
1000adb8:	8005883a 	mov	r2,r16
1000adbc:	dfc00117 	ldw	ra,4(sp)
1000adc0:	dc000017 	ldw	r16,0(sp)
1000adc4:	dec00204 	addi	sp,sp,8
1000adc8:	f800283a 	ret
1000adcc:	80800204 	addi	r2,r16,8
1000add0:	003fe506 	br	1000ad68 <__alt_data_end+0xf800ad68>
1000add4:	80000415 	stw	zero,16(r16)
1000add8:	80800604 	addi	r2,r16,24
1000addc:	80000515 	stw	zero,20(r16)
1000ade0:	003fe106 	br	1000ad68 <__alt_data_end+0xf800ad68>
1000ade4:	0005883a 	mov	r2,zero
1000ade8:	003fe306 	br	1000ad78 <__alt_data_end+0xf800ad78>

1000adec <_fclose_r>:
1000adec:	28003226 	beq	r5,zero,1000aeb8 <_fclose_r+0xcc>
1000adf0:	defffc04 	addi	sp,sp,-16
1000adf4:	dc400115 	stw	r17,4(sp)
1000adf8:	2023883a 	mov	r17,r4
1000adfc:	dc000015 	stw	r16,0(sp)
1000ae00:	dfc00315 	stw	ra,12(sp)
1000ae04:	dc800215 	stw	r18,8(sp)
1000ae08:	2821883a 	mov	r16,r5
1000ae0c:	00065300 	call	10006530 <__sfp_lock_acquire>
1000ae10:	88000226 	beq	r17,zero,1000ae1c <_fclose_r+0x30>
1000ae14:	88800e17 	ldw	r2,56(r17)
1000ae18:	10002926 	beq	r2,zero,1000aec0 <_fclose_r+0xd4>
1000ae1c:	8080030f 	ldh	r2,12(r16)
1000ae20:	10002226 	beq	r2,zero,1000aeac <_fclose_r+0xc0>
1000ae24:	8809883a 	mov	r4,r17
1000ae28:	800b883a 	mov	r5,r16
1000ae2c:	0005f640 	call	10005f64 <_fflush_r>
1000ae30:	1025883a 	mov	r18,r2
1000ae34:	80800b17 	ldw	r2,44(r16)
1000ae38:	10000426 	beq	r2,zero,1000ae4c <_fclose_r+0x60>
1000ae3c:	81400717 	ldw	r5,28(r16)
1000ae40:	8809883a 	mov	r4,r17
1000ae44:	103ee83a 	callr	r2
1000ae48:	10002616 	blt	r2,zero,1000aee4 <_fclose_r+0xf8>
1000ae4c:	8080030b 	ldhu	r2,12(r16)
1000ae50:	1080200c 	andi	r2,r2,128
1000ae54:	10001f1e 	bne	r2,zero,1000aed4 <_fclose_r+0xe8>
1000ae58:	81400c17 	ldw	r5,48(r16)
1000ae5c:	28000526 	beq	r5,zero,1000ae74 <_fclose_r+0x88>
1000ae60:	80801004 	addi	r2,r16,64
1000ae64:	28800226 	beq	r5,r2,1000ae70 <_fclose_r+0x84>
1000ae68:	8809883a 	mov	r4,r17
1000ae6c:	00066940 	call	10006694 <_free_r>
1000ae70:	80000c15 	stw	zero,48(r16)
1000ae74:	81401117 	ldw	r5,68(r16)
1000ae78:	28000326 	beq	r5,zero,1000ae88 <_fclose_r+0x9c>
1000ae7c:	8809883a 	mov	r4,r17
1000ae80:	00066940 	call	10006694 <_free_r>
1000ae84:	80001115 	stw	zero,68(r16)
1000ae88:	8000030d 	sth	zero,12(r16)
1000ae8c:	00065340 	call	10006534 <__sfp_lock_release>
1000ae90:	9005883a 	mov	r2,r18
1000ae94:	dfc00317 	ldw	ra,12(sp)
1000ae98:	dc800217 	ldw	r18,8(sp)
1000ae9c:	dc400117 	ldw	r17,4(sp)
1000aea0:	dc000017 	ldw	r16,0(sp)
1000aea4:	dec00404 	addi	sp,sp,16
1000aea8:	f800283a 	ret
1000aeac:	00065340 	call	10006534 <__sfp_lock_release>
1000aeb0:	0005883a 	mov	r2,zero
1000aeb4:	003ff706 	br	1000ae94 <__alt_data_end+0xf800ae94>
1000aeb8:	0005883a 	mov	r2,zero
1000aebc:	f800283a 	ret
1000aec0:	8809883a 	mov	r4,r17
1000aec4:	00065200 	call	10006520 <__sinit>
1000aec8:	8080030f 	ldh	r2,12(r16)
1000aecc:	103fd51e 	bne	r2,zero,1000ae24 <__alt_data_end+0xf800ae24>
1000aed0:	003ff606 	br	1000aeac <__alt_data_end+0xf800aeac>
1000aed4:	81400417 	ldw	r5,16(r16)
1000aed8:	8809883a 	mov	r4,r17
1000aedc:	00066940 	call	10006694 <_free_r>
1000aee0:	003fdd06 	br	1000ae58 <__alt_data_end+0xf800ae58>
1000aee4:	04bfffc4 	movi	r18,-1
1000aee8:	003fd806 	br	1000ae4c <__alt_data_end+0xf800ae4c>

1000aeec <fclose>:
1000aeec:	00840074 	movhi	r2,4097
1000aef0:	108e3404 	addi	r2,r2,14544
1000aef4:	200b883a 	mov	r5,r4
1000aef8:	11000017 	ldw	r4,0(r2)
1000aefc:	000adec1 	jmpi	1000adec <_fclose_r>

1000af00 <_fputwc_r>:
1000af00:	3080030b 	ldhu	r2,12(r6)
1000af04:	defff804 	addi	sp,sp,-32
1000af08:	dcc00415 	stw	r19,16(sp)
1000af0c:	dc800315 	stw	r18,12(sp)
1000af10:	dc000115 	stw	r16,4(sp)
1000af14:	dfc00715 	stw	ra,28(sp)
1000af18:	dd400615 	stw	r21,24(sp)
1000af1c:	dd000515 	stw	r20,20(sp)
1000af20:	dc400215 	stw	r17,8(sp)
1000af24:	10c8000c 	andi	r3,r2,8192
1000af28:	3021883a 	mov	r16,r6
1000af2c:	2027883a 	mov	r19,r4
1000af30:	2825883a 	mov	r18,r5
1000af34:	1800051e 	bne	r3,zero,1000af4c <_fputwc_r+0x4c>
1000af38:	30c01917 	ldw	r3,100(r6)
1000af3c:	10880014 	ori	r2,r2,8192
1000af40:	3080030d 	sth	r2,12(r6)
1000af44:	18880014 	ori	r2,r3,8192
1000af48:	30801915 	stw	r2,100(r6)
1000af4c:	00070200 	call	10007020 <__locale_mb_cur_max>
1000af50:	00c00044 	movi	r3,1
1000af54:	10c03e26 	beq	r2,r3,1000b050 <_fputwc_r+0x150>
1000af58:	9809883a 	mov	r4,r19
1000af5c:	d80b883a 	mov	r5,sp
1000af60:	900d883a 	mov	r6,r18
1000af64:	81c01704 	addi	r7,r16,92
1000af68:	000b3b00 	call	1000b3b0 <_wcrtomb_r>
1000af6c:	1029883a 	mov	r20,r2
1000af70:	00bfffc4 	movi	r2,-1
1000af74:	a0802026 	beq	r20,r2,1000aff8 <_fputwc_r+0xf8>
1000af78:	d9400003 	ldbu	r5,0(sp)
1000af7c:	a0001c26 	beq	r20,zero,1000aff0 <_fputwc_r+0xf0>
1000af80:	0023883a 	mov	r17,zero
1000af84:	05400284 	movi	r21,10
1000af88:	00000906 	br	1000afb0 <_fputwc_r+0xb0>
1000af8c:	80800017 	ldw	r2,0(r16)
1000af90:	11400005 	stb	r5,0(r2)
1000af94:	80c00017 	ldw	r3,0(r16)
1000af98:	18c00044 	addi	r3,r3,1
1000af9c:	80c00015 	stw	r3,0(r16)
1000afa0:	8c400044 	addi	r17,r17,1
1000afa4:	dc45883a 	add	r2,sp,r17
1000afa8:	8d00112e 	bgeu	r17,r20,1000aff0 <_fputwc_r+0xf0>
1000afac:	11400003 	ldbu	r5,0(r2)
1000afb0:	80c00217 	ldw	r3,8(r16)
1000afb4:	18ffffc4 	addi	r3,r3,-1
1000afb8:	80c00215 	stw	r3,8(r16)
1000afbc:	183ff30e 	bge	r3,zero,1000af8c <__alt_data_end+0xf800af8c>
1000afc0:	80800617 	ldw	r2,24(r16)
1000afc4:	18801916 	blt	r3,r2,1000b02c <_fputwc_r+0x12c>
1000afc8:	80800017 	ldw	r2,0(r16)
1000afcc:	11400005 	stb	r5,0(r2)
1000afd0:	80800017 	ldw	r2,0(r16)
1000afd4:	10c00003 	ldbu	r3,0(r2)
1000afd8:	10800044 	addi	r2,r2,1
1000afdc:	1d402326 	beq	r3,r21,1000b06c <_fputwc_r+0x16c>
1000afe0:	80800015 	stw	r2,0(r16)
1000afe4:	8c400044 	addi	r17,r17,1
1000afe8:	dc45883a 	add	r2,sp,r17
1000afec:	8d3fef36 	bltu	r17,r20,1000afac <__alt_data_end+0xf800afac>
1000aff0:	9005883a 	mov	r2,r18
1000aff4:	00000406 	br	1000b008 <_fputwc_r+0x108>
1000aff8:	80c0030b 	ldhu	r3,12(r16)
1000affc:	a005883a 	mov	r2,r20
1000b000:	18c01014 	ori	r3,r3,64
1000b004:	80c0030d 	sth	r3,12(r16)
1000b008:	dfc00717 	ldw	ra,28(sp)
1000b00c:	dd400617 	ldw	r21,24(sp)
1000b010:	dd000517 	ldw	r20,20(sp)
1000b014:	dcc00417 	ldw	r19,16(sp)
1000b018:	dc800317 	ldw	r18,12(sp)
1000b01c:	dc400217 	ldw	r17,8(sp)
1000b020:	dc000117 	ldw	r16,4(sp)
1000b024:	dec00804 	addi	sp,sp,32
1000b028:	f800283a 	ret
1000b02c:	9809883a 	mov	r4,r19
1000b030:	29403fcc 	andi	r5,r5,255
1000b034:	800d883a 	mov	r6,r16
1000b038:	000b2400 	call	1000b240 <__swbuf_r>
1000b03c:	10bfffe0 	cmpeqi	r2,r2,-1
1000b040:	10803fcc 	andi	r2,r2,255
1000b044:	103fd626 	beq	r2,zero,1000afa0 <__alt_data_end+0xf800afa0>
1000b048:	00bfffc4 	movi	r2,-1
1000b04c:	003fee06 	br	1000b008 <__alt_data_end+0xf800b008>
1000b050:	90ffffc4 	addi	r3,r18,-1
1000b054:	01003f84 	movi	r4,254
1000b058:	20ffbf36 	bltu	r4,r3,1000af58 <__alt_data_end+0xf800af58>
1000b05c:	900b883a 	mov	r5,r18
1000b060:	dc800005 	stb	r18,0(sp)
1000b064:	1029883a 	mov	r20,r2
1000b068:	003fc506 	br	1000af80 <__alt_data_end+0xf800af80>
1000b06c:	9809883a 	mov	r4,r19
1000b070:	a80b883a 	mov	r5,r21
1000b074:	800d883a 	mov	r6,r16
1000b078:	000b2400 	call	1000b240 <__swbuf_r>
1000b07c:	10bfffe0 	cmpeqi	r2,r2,-1
1000b080:	003fef06 	br	1000b040 <__alt_data_end+0xf800b040>

1000b084 <fputwc>:
1000b084:	defffc04 	addi	sp,sp,-16
1000b088:	dc000115 	stw	r16,4(sp)
1000b08c:	04040074 	movhi	r16,4097
1000b090:	840e3404 	addi	r16,r16,14544
1000b094:	dc400215 	stw	r17,8(sp)
1000b098:	2023883a 	mov	r17,r4
1000b09c:	81000017 	ldw	r4,0(r16)
1000b0a0:	dfc00315 	stw	ra,12(sp)
1000b0a4:	280d883a 	mov	r6,r5
1000b0a8:	20000626 	beq	r4,zero,1000b0c4 <fputwc+0x40>
1000b0ac:	20800e17 	ldw	r2,56(r4)
1000b0b0:	1000041e 	bne	r2,zero,1000b0c4 <fputwc+0x40>
1000b0b4:	d9400015 	stw	r5,0(sp)
1000b0b8:	00065200 	call	10006520 <__sinit>
1000b0bc:	81000017 	ldw	r4,0(r16)
1000b0c0:	d9800017 	ldw	r6,0(sp)
1000b0c4:	880b883a 	mov	r5,r17
1000b0c8:	dfc00317 	ldw	ra,12(sp)
1000b0cc:	dc400217 	ldw	r17,8(sp)
1000b0d0:	dc000117 	ldw	r16,4(sp)
1000b0d4:	dec00404 	addi	sp,sp,16
1000b0d8:	000af001 	jmpi	1000af00 <_fputwc_r>

1000b0dc <_fstat_r>:
1000b0dc:	defffd04 	addi	sp,sp,-12
1000b0e0:	dc000015 	stw	r16,0(sp)
1000b0e4:	04040074 	movhi	r16,4097
1000b0e8:	dc400115 	stw	r17,4(sp)
1000b0ec:	84150504 	addi	r16,r16,21524
1000b0f0:	2023883a 	mov	r17,r4
1000b0f4:	2809883a 	mov	r4,r5
1000b0f8:	300b883a 	mov	r5,r6
1000b0fc:	dfc00215 	stw	ra,8(sp)
1000b100:	80000015 	stw	zero,0(r16)
1000b104:	000ed000 	call	1000ed00 <fstat>
1000b108:	00ffffc4 	movi	r3,-1
1000b10c:	10c00526 	beq	r2,r3,1000b124 <_fstat_r+0x48>
1000b110:	dfc00217 	ldw	ra,8(sp)
1000b114:	dc400117 	ldw	r17,4(sp)
1000b118:	dc000017 	ldw	r16,0(sp)
1000b11c:	dec00304 	addi	sp,sp,12
1000b120:	f800283a 	ret
1000b124:	80c00017 	ldw	r3,0(r16)
1000b128:	183ff926 	beq	r3,zero,1000b110 <__alt_data_end+0xf800b110>
1000b12c:	88c00015 	stw	r3,0(r17)
1000b130:	003ff706 	br	1000b110 <__alt_data_end+0xf800b110>

1000b134 <_isatty_r>:
1000b134:	defffd04 	addi	sp,sp,-12
1000b138:	dc000015 	stw	r16,0(sp)
1000b13c:	04040074 	movhi	r16,4097
1000b140:	dc400115 	stw	r17,4(sp)
1000b144:	84150504 	addi	r16,r16,21524
1000b148:	2023883a 	mov	r17,r4
1000b14c:	2809883a 	mov	r4,r5
1000b150:	dfc00215 	stw	ra,8(sp)
1000b154:	80000015 	stw	zero,0(r16)
1000b158:	000ee080 	call	1000ee08 <isatty>
1000b15c:	00ffffc4 	movi	r3,-1
1000b160:	10c00526 	beq	r2,r3,1000b178 <_isatty_r+0x44>
1000b164:	dfc00217 	ldw	ra,8(sp)
1000b168:	dc400117 	ldw	r17,4(sp)
1000b16c:	dc000017 	ldw	r16,0(sp)
1000b170:	dec00304 	addi	sp,sp,12
1000b174:	f800283a 	ret
1000b178:	80c00017 	ldw	r3,0(r16)
1000b17c:	183ff926 	beq	r3,zero,1000b164 <__alt_data_end+0xf800b164>
1000b180:	88c00015 	stw	r3,0(r17)
1000b184:	003ff706 	br	1000b164 <__alt_data_end+0xf800b164>

1000b188 <_lseek_r>:
1000b188:	defffd04 	addi	sp,sp,-12
1000b18c:	dc000015 	stw	r16,0(sp)
1000b190:	04040074 	movhi	r16,4097
1000b194:	dc400115 	stw	r17,4(sp)
1000b198:	84150504 	addi	r16,r16,21524
1000b19c:	2023883a 	mov	r17,r4
1000b1a0:	2809883a 	mov	r4,r5
1000b1a4:	300b883a 	mov	r5,r6
1000b1a8:	380d883a 	mov	r6,r7
1000b1ac:	dfc00215 	stw	ra,8(sp)
1000b1b0:	80000015 	stw	zero,0(r16)
1000b1b4:	000efe80 	call	1000efe8 <lseek>
1000b1b8:	00ffffc4 	movi	r3,-1
1000b1bc:	10c00526 	beq	r2,r3,1000b1d4 <_lseek_r+0x4c>
1000b1c0:	dfc00217 	ldw	ra,8(sp)
1000b1c4:	dc400117 	ldw	r17,4(sp)
1000b1c8:	dc000017 	ldw	r16,0(sp)
1000b1cc:	dec00304 	addi	sp,sp,12
1000b1d0:	f800283a 	ret
1000b1d4:	80c00017 	ldw	r3,0(r16)
1000b1d8:	183ff926 	beq	r3,zero,1000b1c0 <__alt_data_end+0xf800b1c0>
1000b1dc:	88c00015 	stw	r3,0(r17)
1000b1e0:	003ff706 	br	1000b1c0 <__alt_data_end+0xf800b1c0>

1000b1e4 <_read_r>:
1000b1e4:	defffd04 	addi	sp,sp,-12
1000b1e8:	dc000015 	stw	r16,0(sp)
1000b1ec:	04040074 	movhi	r16,4097
1000b1f0:	dc400115 	stw	r17,4(sp)
1000b1f4:	84150504 	addi	r16,r16,21524
1000b1f8:	2023883a 	mov	r17,r4
1000b1fc:	2809883a 	mov	r4,r5
1000b200:	300b883a 	mov	r5,r6
1000b204:	380d883a 	mov	r6,r7
1000b208:	dfc00215 	stw	ra,8(sp)
1000b20c:	80000015 	stw	zero,0(r16)
1000b210:	000f1cc0 	call	1000f1cc <read>
1000b214:	00ffffc4 	movi	r3,-1
1000b218:	10c00526 	beq	r2,r3,1000b230 <_read_r+0x4c>
1000b21c:	dfc00217 	ldw	ra,8(sp)
1000b220:	dc400117 	ldw	r17,4(sp)
1000b224:	dc000017 	ldw	r16,0(sp)
1000b228:	dec00304 	addi	sp,sp,12
1000b22c:	f800283a 	ret
1000b230:	80c00017 	ldw	r3,0(r16)
1000b234:	183ff926 	beq	r3,zero,1000b21c <__alt_data_end+0xf800b21c>
1000b238:	88c00015 	stw	r3,0(r17)
1000b23c:	003ff706 	br	1000b21c <__alt_data_end+0xf800b21c>

1000b240 <__swbuf_r>:
1000b240:	defffc04 	addi	sp,sp,-16
1000b244:	dc800215 	stw	r18,8(sp)
1000b248:	dc400115 	stw	r17,4(sp)
1000b24c:	dc000015 	stw	r16,0(sp)
1000b250:	dfc00315 	stw	ra,12(sp)
1000b254:	2025883a 	mov	r18,r4
1000b258:	2823883a 	mov	r17,r5
1000b25c:	3021883a 	mov	r16,r6
1000b260:	20000226 	beq	r4,zero,1000b26c <__swbuf_r+0x2c>
1000b264:	20800e17 	ldw	r2,56(r4)
1000b268:	10004126 	beq	r2,zero,1000b370 <__swbuf_r+0x130>
1000b26c:	80c00617 	ldw	r3,24(r16)
1000b270:	8180030b 	ldhu	r6,12(r16)
1000b274:	80c00215 	stw	r3,8(r16)
1000b278:	30c0020c 	andi	r3,r6,8
1000b27c:	18003526 	beq	r3,zero,1000b354 <__swbuf_r+0x114>
1000b280:	80c00417 	ldw	r3,16(r16)
1000b284:	18003326 	beq	r3,zero,1000b354 <__swbuf_r+0x114>
1000b288:	3088000c 	andi	r2,r6,8192
1000b28c:	8c403fcc 	andi	r17,r17,255
1000b290:	10001726 	beq	r2,zero,1000b2f0 <__swbuf_r+0xb0>
1000b294:	80800017 	ldw	r2,0(r16)
1000b298:	81000517 	ldw	r4,20(r16)
1000b29c:	10c7c83a 	sub	r3,r2,r3
1000b2a0:	19001d0e 	bge	r3,r4,1000b318 <__swbuf_r+0xd8>
1000b2a4:	18c00044 	addi	r3,r3,1
1000b2a8:	81400217 	ldw	r5,8(r16)
1000b2ac:	11000044 	addi	r4,r2,1
1000b2b0:	81000015 	stw	r4,0(r16)
1000b2b4:	297fffc4 	addi	r5,r5,-1
1000b2b8:	81400215 	stw	r5,8(r16)
1000b2bc:	14400005 	stb	r17,0(r2)
1000b2c0:	80800517 	ldw	r2,20(r16)
1000b2c4:	10c01d26 	beq	r2,r3,1000b33c <__swbuf_r+0xfc>
1000b2c8:	8080030b 	ldhu	r2,12(r16)
1000b2cc:	1080004c 	andi	r2,r2,1
1000b2d0:	1000181e 	bne	r2,zero,1000b334 <__swbuf_r+0xf4>
1000b2d4:	8805883a 	mov	r2,r17
1000b2d8:	dfc00317 	ldw	ra,12(sp)
1000b2dc:	dc800217 	ldw	r18,8(sp)
1000b2e0:	dc400117 	ldw	r17,4(sp)
1000b2e4:	dc000017 	ldw	r16,0(sp)
1000b2e8:	dec00404 	addi	sp,sp,16
1000b2ec:	f800283a 	ret
1000b2f0:	81001917 	ldw	r4,100(r16)
1000b2f4:	00b7ffc4 	movi	r2,-8193
1000b2f8:	31880014 	ori	r6,r6,8192
1000b2fc:	2084703a 	and	r2,r4,r2
1000b300:	80801915 	stw	r2,100(r16)
1000b304:	80800017 	ldw	r2,0(r16)
1000b308:	81000517 	ldw	r4,20(r16)
1000b30c:	8180030d 	sth	r6,12(r16)
1000b310:	10c7c83a 	sub	r3,r2,r3
1000b314:	193fe316 	blt	r3,r4,1000b2a4 <__alt_data_end+0xf800b2a4>
1000b318:	9009883a 	mov	r4,r18
1000b31c:	800b883a 	mov	r5,r16
1000b320:	0005f640 	call	10005f64 <_fflush_r>
1000b324:	1000091e 	bne	r2,zero,1000b34c <__swbuf_r+0x10c>
1000b328:	80800017 	ldw	r2,0(r16)
1000b32c:	00c00044 	movi	r3,1
1000b330:	003fdd06 	br	1000b2a8 <__alt_data_end+0xf800b2a8>
1000b334:	00800284 	movi	r2,10
1000b338:	88bfe61e 	bne	r17,r2,1000b2d4 <__alt_data_end+0xf800b2d4>
1000b33c:	9009883a 	mov	r4,r18
1000b340:	800b883a 	mov	r5,r16
1000b344:	0005f640 	call	10005f64 <_fflush_r>
1000b348:	103fe226 	beq	r2,zero,1000b2d4 <__alt_data_end+0xf800b2d4>
1000b34c:	00bfffc4 	movi	r2,-1
1000b350:	003fe106 	br	1000b2d8 <__alt_data_end+0xf800b2d8>
1000b354:	9009883a 	mov	r4,r18
1000b358:	800b883a 	mov	r5,r16
1000b35c:	00044e40 	call	100044e4 <__swsetup_r>
1000b360:	1000051e 	bne	r2,zero,1000b378 <__swbuf_r+0x138>
1000b364:	8180030b 	ldhu	r6,12(r16)
1000b368:	80c00417 	ldw	r3,16(r16)
1000b36c:	003fc606 	br	1000b288 <__alt_data_end+0xf800b288>
1000b370:	00065200 	call	10006520 <__sinit>
1000b374:	003fbd06 	br	1000b26c <__alt_data_end+0xf800b26c>
1000b378:	80c0030b 	ldhu	r3,12(r16)
1000b37c:	00bfffc4 	movi	r2,-1
1000b380:	18c01014 	ori	r3,r3,64
1000b384:	80c0030d 	sth	r3,12(r16)
1000b388:	00c00244 	movi	r3,9
1000b38c:	90c00015 	stw	r3,0(r18)
1000b390:	003fd106 	br	1000b2d8 <__alt_data_end+0xf800b2d8>

1000b394 <__swbuf>:
1000b394:	00c40074 	movhi	r3,4097
1000b398:	18ce3404 	addi	r3,r3,14544
1000b39c:	2005883a 	mov	r2,r4
1000b3a0:	19000017 	ldw	r4,0(r3)
1000b3a4:	280d883a 	mov	r6,r5
1000b3a8:	100b883a 	mov	r5,r2
1000b3ac:	000b2401 	jmpi	1000b240 <__swbuf_r>

1000b3b0 <_wcrtomb_r>:
1000b3b0:	defff604 	addi	sp,sp,-40
1000b3b4:	00840074 	movhi	r2,4097
1000b3b8:	dc800815 	stw	r18,32(sp)
1000b3bc:	dc400715 	stw	r17,28(sp)
1000b3c0:	dc000615 	stw	r16,24(sp)
1000b3c4:	108e3804 	addi	r2,r2,14560
1000b3c8:	dfc00915 	stw	ra,36(sp)
1000b3cc:	2021883a 	mov	r16,r4
1000b3d0:	3823883a 	mov	r17,r7
1000b3d4:	14800017 	ldw	r18,0(r2)
1000b3d8:	28001426 	beq	r5,zero,1000b42c <_wcrtomb_r+0x7c>
1000b3dc:	d9400415 	stw	r5,16(sp)
1000b3e0:	d9800515 	stw	r6,20(sp)
1000b3e4:	00070140 	call	10007014 <__locale_charset>
1000b3e8:	d9400417 	ldw	r5,16(sp)
1000b3ec:	d9800517 	ldw	r6,20(sp)
1000b3f0:	8009883a 	mov	r4,r16
1000b3f4:	dc400015 	stw	r17,0(sp)
1000b3f8:	100f883a 	mov	r7,r2
1000b3fc:	903ee83a 	callr	r18
1000b400:	00ffffc4 	movi	r3,-1
1000b404:	10c0031e 	bne	r2,r3,1000b414 <_wcrtomb_r+0x64>
1000b408:	88000015 	stw	zero,0(r17)
1000b40c:	00c02284 	movi	r3,138
1000b410:	80c00015 	stw	r3,0(r16)
1000b414:	dfc00917 	ldw	ra,36(sp)
1000b418:	dc800817 	ldw	r18,32(sp)
1000b41c:	dc400717 	ldw	r17,28(sp)
1000b420:	dc000617 	ldw	r16,24(sp)
1000b424:	dec00a04 	addi	sp,sp,40
1000b428:	f800283a 	ret
1000b42c:	00070140 	call	10007014 <__locale_charset>
1000b430:	8009883a 	mov	r4,r16
1000b434:	dc400015 	stw	r17,0(sp)
1000b438:	d9400104 	addi	r5,sp,4
1000b43c:	000d883a 	mov	r6,zero
1000b440:	100f883a 	mov	r7,r2
1000b444:	903ee83a 	callr	r18
1000b448:	003fed06 	br	1000b400 <__alt_data_end+0xf800b400>

1000b44c <wcrtomb>:
1000b44c:	defff504 	addi	sp,sp,-44
1000b450:	dc400515 	stw	r17,20(sp)
1000b454:	dc000415 	stw	r16,16(sp)
1000b458:	dfc00a15 	stw	ra,40(sp)
1000b45c:	dd400915 	stw	r21,36(sp)
1000b460:	dd000815 	stw	r20,32(sp)
1000b464:	dcc00715 	stw	r19,28(sp)
1000b468:	dc800615 	stw	r18,24(sp)
1000b46c:	2021883a 	mov	r16,r4
1000b470:	3023883a 	mov	r17,r6
1000b474:	20001d26 	beq	r4,zero,1000b4ec <wcrtomb+0xa0>
1000b478:	04840074 	movhi	r18,4097
1000b47c:	948e3404 	addi	r18,r18,14544
1000b480:	00840074 	movhi	r2,4097
1000b484:	95400017 	ldw	r21,0(r18)
1000b488:	108e3804 	addi	r2,r2,14560
1000b48c:	15000017 	ldw	r20,0(r2)
1000b490:	2827883a 	mov	r19,r5
1000b494:	00070140 	call	10007014 <__locale_charset>
1000b498:	a809883a 	mov	r4,r21
1000b49c:	dc400015 	stw	r17,0(sp)
1000b4a0:	800b883a 	mov	r5,r16
1000b4a4:	980d883a 	mov	r6,r19
1000b4a8:	100f883a 	mov	r7,r2
1000b4ac:	a03ee83a 	callr	r20
1000b4b0:	00ffffc4 	movi	r3,-1
1000b4b4:	10c0041e 	bne	r2,r3,1000b4c8 <wcrtomb+0x7c>
1000b4b8:	90c00017 	ldw	r3,0(r18)
1000b4bc:	01002284 	movi	r4,138
1000b4c0:	88000015 	stw	zero,0(r17)
1000b4c4:	19000015 	stw	r4,0(r3)
1000b4c8:	dfc00a17 	ldw	ra,40(sp)
1000b4cc:	dd400917 	ldw	r21,36(sp)
1000b4d0:	dd000817 	ldw	r20,32(sp)
1000b4d4:	dcc00717 	ldw	r19,28(sp)
1000b4d8:	dc800617 	ldw	r18,24(sp)
1000b4dc:	dc400517 	ldw	r17,20(sp)
1000b4e0:	dc000417 	ldw	r16,16(sp)
1000b4e4:	dec00b04 	addi	sp,sp,44
1000b4e8:	f800283a 	ret
1000b4ec:	04840074 	movhi	r18,4097
1000b4f0:	948e3404 	addi	r18,r18,14544
1000b4f4:	00840074 	movhi	r2,4097
1000b4f8:	94c00017 	ldw	r19,0(r18)
1000b4fc:	108e3804 	addi	r2,r2,14560
1000b500:	14000017 	ldw	r16,0(r2)
1000b504:	00070140 	call	10007014 <__locale_charset>
1000b508:	9809883a 	mov	r4,r19
1000b50c:	dc400015 	stw	r17,0(sp)
1000b510:	d9400104 	addi	r5,sp,4
1000b514:	000d883a 	mov	r6,zero
1000b518:	100f883a 	mov	r7,r2
1000b51c:	803ee83a 	callr	r16
1000b520:	003fe306 	br	1000b4b0 <__alt_data_end+0xf800b4b0>

1000b524 <__ascii_wctomb>:
1000b524:	28000526 	beq	r5,zero,1000b53c <__ascii_wctomb+0x18>
1000b528:	00803fc4 	movi	r2,255
1000b52c:	11800536 	bltu	r2,r6,1000b544 <__ascii_wctomb+0x20>
1000b530:	29800005 	stb	r6,0(r5)
1000b534:	00800044 	movi	r2,1
1000b538:	f800283a 	ret
1000b53c:	0005883a 	mov	r2,zero
1000b540:	f800283a 	ret
1000b544:	00802284 	movi	r2,138
1000b548:	20800015 	stw	r2,0(r4)
1000b54c:	00bfffc4 	movi	r2,-1
1000b550:	f800283a 	ret

1000b554 <_wctomb_r>:
1000b554:	00840074 	movhi	r2,4097
1000b558:	defff904 	addi	sp,sp,-28
1000b55c:	108e3804 	addi	r2,r2,14560
1000b560:	dfc00615 	stw	ra,24(sp)
1000b564:	dc400515 	stw	r17,20(sp)
1000b568:	dc000415 	stw	r16,16(sp)
1000b56c:	3823883a 	mov	r17,r7
1000b570:	14000017 	ldw	r16,0(r2)
1000b574:	d9000115 	stw	r4,4(sp)
1000b578:	d9400215 	stw	r5,8(sp)
1000b57c:	d9800315 	stw	r6,12(sp)
1000b580:	00070140 	call	10007014 <__locale_charset>
1000b584:	d9000117 	ldw	r4,4(sp)
1000b588:	d9400217 	ldw	r5,8(sp)
1000b58c:	d9800317 	ldw	r6,12(sp)
1000b590:	dc400015 	stw	r17,0(sp)
1000b594:	100f883a 	mov	r7,r2
1000b598:	803ee83a 	callr	r16
1000b59c:	dfc00617 	ldw	ra,24(sp)
1000b5a0:	dc400517 	ldw	r17,20(sp)
1000b5a4:	dc000417 	ldw	r16,16(sp)
1000b5a8:	dec00704 	addi	sp,sp,28
1000b5ac:	f800283a 	ret

1000b5b0 <__udivdi3>:
1000b5b0:	defff504 	addi	sp,sp,-44
1000b5b4:	dcc00415 	stw	r19,16(sp)
1000b5b8:	dc000115 	stw	r16,4(sp)
1000b5bc:	dfc00a15 	stw	ra,40(sp)
1000b5c0:	df000915 	stw	fp,36(sp)
1000b5c4:	ddc00815 	stw	r23,32(sp)
1000b5c8:	dd800715 	stw	r22,28(sp)
1000b5cc:	dd400615 	stw	r21,24(sp)
1000b5d0:	dd000515 	stw	r20,20(sp)
1000b5d4:	dc800315 	stw	r18,12(sp)
1000b5d8:	dc400215 	stw	r17,8(sp)
1000b5dc:	2027883a 	mov	r19,r4
1000b5e0:	2821883a 	mov	r16,r5
1000b5e4:	3800471e 	bne	r7,zero,1000b704 <__udivdi3+0x154>
1000b5e8:	3025883a 	mov	r18,r6
1000b5ec:	2023883a 	mov	r17,r4
1000b5f0:	2980592e 	bgeu	r5,r6,1000b758 <__udivdi3+0x1a8>
1000b5f4:	00bfffd4 	movui	r2,65535
1000b5f8:	2829883a 	mov	r20,r5
1000b5fc:	1180b236 	bltu	r2,r6,1000b8c8 <__udivdi3+0x318>
1000b600:	00803fc4 	movi	r2,255
1000b604:	1181622e 	bgeu	r2,r6,1000bb90 <__udivdi3+0x5e0>
1000b608:	00800204 	movi	r2,8
1000b60c:	1007883a 	mov	r3,r2
1000b610:	3084d83a 	srl	r2,r6,r2
1000b614:	01040074 	movhi	r4,4097
1000b618:	21073b04 	addi	r4,r4,7404
1000b61c:	2085883a 	add	r2,r4,r2
1000b620:	11000003 	ldbu	r4,0(r2)
1000b624:	20c9883a 	add	r4,r4,r3
1000b628:	00c00804 	movi	r3,32
1000b62c:	1907c83a 	sub	r3,r3,r4
1000b630:	18000526 	beq	r3,zero,1000b648 <__udivdi3+0x98>
1000b634:	80e0983a 	sll	r16,r16,r3
1000b638:	9908d83a 	srl	r4,r19,r4
1000b63c:	30e4983a 	sll	r18,r6,r3
1000b640:	98e2983a 	sll	r17,r19,r3
1000b644:	8128b03a 	or	r20,r16,r4
1000b648:	902ad43a 	srli	r21,r18,16
1000b64c:	a009883a 	mov	r4,r20
1000b650:	95bfffcc 	andi	r22,r18,65535
1000b654:	a80b883a 	mov	r5,r21
1000b658:	000c3300 	call	1000c330 <__umodsi3>
1000b65c:	a009883a 	mov	r4,r20
1000b660:	a80b883a 	mov	r5,r21
1000b664:	102f883a 	mov	r23,r2
1000b668:	000c3280 	call	1000c328 <__udivsi3>
1000b66c:	1009883a 	mov	r4,r2
1000b670:	b00b883a 	mov	r5,r22
1000b674:	1021883a 	mov	r16,r2
1000b678:	000c3380 	call	1000c338 <__mulsi3>
1000b67c:	b82e943a 	slli	r23,r23,16
1000b680:	8808d43a 	srli	r4,r17,16
1000b684:	b906b03a 	or	r3,r23,r4
1000b688:	1880052e 	bgeu	r3,r2,1000b6a0 <__udivdi3+0xf0>
1000b68c:	1c87883a 	add	r3,r3,r18
1000b690:	813fffc4 	addi	r4,r16,-1
1000b694:	1c800136 	bltu	r3,r18,1000b69c <__udivdi3+0xec>
1000b698:	18815236 	bltu	r3,r2,1000bbe4 <__udivdi3+0x634>
1000b69c:	2021883a 	mov	r16,r4
1000b6a0:	18a7c83a 	sub	r19,r3,r2
1000b6a4:	9809883a 	mov	r4,r19
1000b6a8:	a80b883a 	mov	r5,r21
1000b6ac:	000c3300 	call	1000c330 <__umodsi3>
1000b6b0:	1029883a 	mov	r20,r2
1000b6b4:	9809883a 	mov	r4,r19
1000b6b8:	a80b883a 	mov	r5,r21
1000b6bc:	a028943a 	slli	r20,r20,16
1000b6c0:	000c3280 	call	1000c328 <__udivsi3>
1000b6c4:	1009883a 	mov	r4,r2
1000b6c8:	b00b883a 	mov	r5,r22
1000b6cc:	8c7fffcc 	andi	r17,r17,65535
1000b6d0:	1027883a 	mov	r19,r2
1000b6d4:	a462b03a 	or	r17,r20,r17
1000b6d8:	000c3380 	call	1000c338 <__mulsi3>
1000b6dc:	8880052e 	bgeu	r17,r2,1000b6f4 <__udivdi3+0x144>
1000b6e0:	8ca3883a 	add	r17,r17,r18
1000b6e4:	98ffffc4 	addi	r3,r19,-1
1000b6e8:	8c811036 	bltu	r17,r18,1000bb2c <__udivdi3+0x57c>
1000b6ec:	88810f2e 	bgeu	r17,r2,1000bb2c <__udivdi3+0x57c>
1000b6f0:	9cffff84 	addi	r19,r19,-2
1000b6f4:	8020943a 	slli	r16,r16,16
1000b6f8:	0007883a 	mov	r3,zero
1000b6fc:	9c04b03a 	or	r2,r19,r16
1000b700:	00006006 	br	1000b884 <__udivdi3+0x2d4>
1000b704:	29c05d36 	bltu	r5,r7,1000b87c <__udivdi3+0x2cc>
1000b708:	00bfffd4 	movui	r2,65535
1000b70c:	11c0692e 	bgeu	r2,r7,1000b8b4 <__udivdi3+0x304>
1000b710:	00804034 	movhi	r2,256
1000b714:	10bfffc4 	addi	r2,r2,-1
1000b718:	11c10e2e 	bgeu	r2,r7,1000bb54 <__udivdi3+0x5a4>
1000b71c:	01400604 	movi	r5,24
1000b720:	2811883a 	mov	r8,r5
1000b724:	394ad83a 	srl	r5,r7,r5
1000b728:	00840074 	movhi	r2,4097
1000b72c:	10873b04 	addi	r2,r2,7404
1000b730:	114b883a 	add	r5,r2,r5
1000b734:	29400003 	ldbu	r5,0(r5)
1000b738:	00c00804 	movi	r3,32
1000b73c:	2a0b883a 	add	r5,r5,r8
1000b740:	196fc83a 	sub	r23,r3,r5
1000b744:	b8006b1e 	bne	r23,zero,1000b8f4 <__udivdi3+0x344>
1000b748:	3c011436 	bltu	r7,r16,1000bb9c <__udivdi3+0x5ec>
1000b74c:	9985403a 	cmpgeu	r2,r19,r6
1000b750:	0007883a 	mov	r3,zero
1000b754:	00004b06 	br	1000b884 <__udivdi3+0x2d4>
1000b758:	3000041e 	bne	r6,zero,1000b76c <__udivdi3+0x1bc>
1000b75c:	01000044 	movi	r4,1
1000b760:	000b883a 	mov	r5,zero
1000b764:	000c3280 	call	1000c328 <__udivsi3>
1000b768:	1025883a 	mov	r18,r2
1000b76c:	00bfffd4 	movui	r2,65535
1000b770:	14805b2e 	bgeu	r2,r18,1000b8e0 <__udivdi3+0x330>
1000b774:	00804034 	movhi	r2,256
1000b778:	10bfffc4 	addi	r2,r2,-1
1000b77c:	1480fe2e 	bgeu	r2,r18,1000bb78 <__udivdi3+0x5c8>
1000b780:	00800604 	movi	r2,24
1000b784:	1007883a 	mov	r3,r2
1000b788:	9084d83a 	srl	r2,r18,r2
1000b78c:	01040074 	movhi	r4,4097
1000b790:	21073b04 	addi	r4,r4,7404
1000b794:	2085883a 	add	r2,r4,r2
1000b798:	11800003 	ldbu	r6,0(r2)
1000b79c:	01c00804 	movi	r7,32
1000b7a0:	30c7883a 	add	r3,r6,r3
1000b7a4:	38cfc83a 	sub	r7,r7,r3
1000b7a8:	3800a71e 	bne	r7,zero,1000ba48 <__udivdi3+0x498>
1000b7ac:	9028d43a 	srli	r20,r18,16
1000b7b0:	84a1c83a 	sub	r16,r16,r18
1000b7b4:	957fffcc 	andi	r21,r18,65535
1000b7b8:	00c00044 	movi	r3,1
1000b7bc:	8009883a 	mov	r4,r16
1000b7c0:	a00b883a 	mov	r5,r20
1000b7c4:	d8c00015 	stw	r3,0(sp)
1000b7c8:	000c3300 	call	1000c330 <__umodsi3>
1000b7cc:	8009883a 	mov	r4,r16
1000b7d0:	a00b883a 	mov	r5,r20
1000b7d4:	102d883a 	mov	r22,r2
1000b7d8:	000c3280 	call	1000c328 <__udivsi3>
1000b7dc:	1009883a 	mov	r4,r2
1000b7e0:	a80b883a 	mov	r5,r21
1000b7e4:	1021883a 	mov	r16,r2
1000b7e8:	000c3380 	call	1000c338 <__mulsi3>
1000b7ec:	b02c943a 	slli	r22,r22,16
1000b7f0:	880ed43a 	srli	r7,r17,16
1000b7f4:	d8c00017 	ldw	r3,0(sp)
1000b7f8:	b1ccb03a 	or	r6,r22,r7
1000b7fc:	3080052e 	bgeu	r6,r2,1000b814 <__udivdi3+0x264>
1000b800:	348d883a 	add	r6,r6,r18
1000b804:	813fffc4 	addi	r4,r16,-1
1000b808:	34800136 	bltu	r6,r18,1000b810 <__udivdi3+0x260>
1000b80c:	3080f236 	bltu	r6,r2,1000bbd8 <__udivdi3+0x628>
1000b810:	2021883a 	mov	r16,r4
1000b814:	30a7c83a 	sub	r19,r6,r2
1000b818:	9809883a 	mov	r4,r19
1000b81c:	a00b883a 	mov	r5,r20
1000b820:	d8c00015 	stw	r3,0(sp)
1000b824:	000c3300 	call	1000c330 <__umodsi3>
1000b828:	102d883a 	mov	r22,r2
1000b82c:	9809883a 	mov	r4,r19
1000b830:	a00b883a 	mov	r5,r20
1000b834:	b02c943a 	slli	r22,r22,16
1000b838:	000c3280 	call	1000c328 <__udivsi3>
1000b83c:	1009883a 	mov	r4,r2
1000b840:	a80b883a 	mov	r5,r21
1000b844:	8c7fffcc 	andi	r17,r17,65535
1000b848:	1027883a 	mov	r19,r2
1000b84c:	b462b03a 	or	r17,r22,r17
1000b850:	000c3380 	call	1000c338 <__mulsi3>
1000b854:	d8c00017 	ldw	r3,0(sp)
1000b858:	8880052e 	bgeu	r17,r2,1000b870 <__udivdi3+0x2c0>
1000b85c:	8ca3883a 	add	r17,r17,r18
1000b860:	993fffc4 	addi	r4,r19,-1
1000b864:	8c80af36 	bltu	r17,r18,1000bb24 <__udivdi3+0x574>
1000b868:	8880ae2e 	bgeu	r17,r2,1000bb24 <__udivdi3+0x574>
1000b86c:	9cffff84 	addi	r19,r19,-2
1000b870:	8020943a 	slli	r16,r16,16
1000b874:	9c04b03a 	or	r2,r19,r16
1000b878:	00000206 	br	1000b884 <__udivdi3+0x2d4>
1000b87c:	0007883a 	mov	r3,zero
1000b880:	0005883a 	mov	r2,zero
1000b884:	dfc00a17 	ldw	ra,40(sp)
1000b888:	df000917 	ldw	fp,36(sp)
1000b88c:	ddc00817 	ldw	r23,32(sp)
1000b890:	dd800717 	ldw	r22,28(sp)
1000b894:	dd400617 	ldw	r21,24(sp)
1000b898:	dd000517 	ldw	r20,20(sp)
1000b89c:	dcc00417 	ldw	r19,16(sp)
1000b8a0:	dc800317 	ldw	r18,12(sp)
1000b8a4:	dc400217 	ldw	r17,8(sp)
1000b8a8:	dc000117 	ldw	r16,4(sp)
1000b8ac:	dec00b04 	addi	sp,sp,44
1000b8b0:	f800283a 	ret
1000b8b4:	00803fc4 	movi	r2,255
1000b8b8:	11c0a92e 	bgeu	r2,r7,1000bb60 <__udivdi3+0x5b0>
1000b8bc:	01400204 	movi	r5,8
1000b8c0:	2811883a 	mov	r8,r5
1000b8c4:	003f9706 	br	1000b724 <__alt_data_end+0xf800b724>
1000b8c8:	00804034 	movhi	r2,256
1000b8cc:	10bfffc4 	addi	r2,r2,-1
1000b8d0:	1180a62e 	bgeu	r2,r6,1000bb6c <__udivdi3+0x5bc>
1000b8d4:	00800604 	movi	r2,24
1000b8d8:	1007883a 	mov	r3,r2
1000b8dc:	003f4c06 	br	1000b610 <__alt_data_end+0xf800b610>
1000b8e0:	00803fc4 	movi	r2,255
1000b8e4:	1480a72e 	bgeu	r2,r18,1000bb84 <__udivdi3+0x5d4>
1000b8e8:	00800204 	movi	r2,8
1000b8ec:	1007883a 	mov	r3,r2
1000b8f0:	003fa506 	br	1000b788 <__alt_data_end+0xf800b788>
1000b8f4:	3178d83a 	srl	fp,r6,r5
1000b8f8:	3dce983a 	sll	r7,r7,r23
1000b8fc:	8168d83a 	srl	r20,r16,r5
1000b900:	9950d83a 	srl	r8,r19,r5
1000b904:	3f38b03a 	or	fp,r7,fp
1000b908:	e024d43a 	srli	r18,fp,16
1000b90c:	85e0983a 	sll	r16,r16,r23
1000b910:	a009883a 	mov	r4,r20
1000b914:	900b883a 	mov	r5,r18
1000b918:	8220b03a 	or	r16,r16,r8
1000b91c:	35ea983a 	sll	r21,r6,r23
1000b920:	000c3300 	call	1000c330 <__umodsi3>
1000b924:	a009883a 	mov	r4,r20
1000b928:	900b883a 	mov	r5,r18
1000b92c:	1023883a 	mov	r17,r2
1000b930:	e5bfffcc 	andi	r22,fp,65535
1000b934:	000c3280 	call	1000c328 <__udivsi3>
1000b938:	1009883a 	mov	r4,r2
1000b93c:	b00b883a 	mov	r5,r22
1000b940:	1029883a 	mov	r20,r2
1000b944:	000c3380 	call	1000c338 <__mulsi3>
1000b948:	8806943a 	slli	r3,r17,16
1000b94c:	8014d43a 	srli	r10,r16,16
1000b950:	1a92b03a 	or	r9,r3,r10
1000b954:	4880042e 	bgeu	r9,r2,1000b968 <__udivdi3+0x3b8>
1000b958:	4f13883a 	add	r9,r9,fp
1000b95c:	a0ffffc4 	addi	r3,r20,-1
1000b960:	4f00952e 	bgeu	r9,fp,1000bbb8 <__udivdi3+0x608>
1000b964:	1829883a 	mov	r20,r3
1000b968:	48a3c83a 	sub	r17,r9,r2
1000b96c:	8809883a 	mov	r4,r17
1000b970:	900b883a 	mov	r5,r18
1000b974:	000c3300 	call	1000c330 <__umodsi3>
1000b978:	8809883a 	mov	r4,r17
1000b97c:	900b883a 	mov	r5,r18
1000b980:	d8800015 	stw	r2,0(sp)
1000b984:	000c3280 	call	1000c328 <__udivsi3>
1000b988:	1009883a 	mov	r4,r2
1000b98c:	b00b883a 	mov	r5,r22
1000b990:	1023883a 	mov	r17,r2
1000b994:	000c3380 	call	1000c338 <__mulsi3>
1000b998:	d8c00017 	ldw	r3,0(sp)
1000b99c:	823fffcc 	andi	r8,r16,65535
1000b9a0:	1806943a 	slli	r3,r3,16
1000b9a4:	1a20b03a 	or	r16,r3,r8
1000b9a8:	8080042e 	bgeu	r16,r2,1000b9bc <__udivdi3+0x40c>
1000b9ac:	8721883a 	add	r16,r16,fp
1000b9b0:	88ffffc4 	addi	r3,r17,-1
1000b9b4:	87007c2e 	bgeu	r16,fp,1000bba8 <__udivdi3+0x5f8>
1000b9b8:	1823883a 	mov	r17,r3
1000b9bc:	a028943a 	slli	r20,r20,16
1000b9c0:	acbfffcc 	andi	r18,r21,65535
1000b9c4:	900b883a 	mov	r5,r18
1000b9c8:	8d28b03a 	or	r20,r17,r20
1000b9cc:	a022d43a 	srli	r17,r20,16
1000b9d0:	a5bfffcc 	andi	r22,r20,65535
1000b9d4:	b009883a 	mov	r4,r22
1000b9d8:	a82ad43a 	srli	r21,r21,16
1000b9dc:	80a1c83a 	sub	r16,r16,r2
1000b9e0:	000c3380 	call	1000c338 <__mulsi3>
1000b9e4:	8809883a 	mov	r4,r17
1000b9e8:	900b883a 	mov	r5,r18
1000b9ec:	1039883a 	mov	fp,r2
1000b9f0:	000c3380 	call	1000c338 <__mulsi3>
1000b9f4:	8809883a 	mov	r4,r17
1000b9f8:	a80b883a 	mov	r5,r21
1000b9fc:	1025883a 	mov	r18,r2
1000ba00:	000c3380 	call	1000c338 <__mulsi3>
1000ba04:	b009883a 	mov	r4,r22
1000ba08:	a80b883a 	mov	r5,r21
1000ba0c:	1023883a 	mov	r17,r2
1000ba10:	000c3380 	call	1000c338 <__mulsi3>
1000ba14:	e006d43a 	srli	r3,fp,16
1000ba18:	9085883a 	add	r2,r18,r2
1000ba1c:	10c7883a 	add	r3,r2,r3
1000ba20:	1c80022e 	bgeu	r3,r18,1000ba2c <__udivdi3+0x47c>
1000ba24:	00800074 	movhi	r2,1
1000ba28:	88a3883a 	add	r17,r17,r2
1000ba2c:	1808d43a 	srli	r4,r3,16
1000ba30:	8909883a 	add	r4,r17,r4
1000ba34:	81004436 	bltu	r16,r4,1000bb48 <__udivdi3+0x598>
1000ba38:	81003e26 	beq	r16,r4,1000bb34 <__udivdi3+0x584>
1000ba3c:	a005883a 	mov	r2,r20
1000ba40:	0007883a 	mov	r3,zero
1000ba44:	003f8f06 	br	1000b884 <__alt_data_end+0xf800b884>
1000ba48:	91e4983a 	sll	r18,r18,r7
1000ba4c:	80eed83a 	srl	r23,r16,r3
1000ba50:	81cc983a 	sll	r6,r16,r7
1000ba54:	9028d43a 	srli	r20,r18,16
1000ba58:	98c6d83a 	srl	r3,r19,r3
1000ba5c:	b809883a 	mov	r4,r23
1000ba60:	a00b883a 	mov	r5,r20
1000ba64:	30ecb03a 	or	r22,r6,r3
1000ba68:	99e2983a 	sll	r17,r19,r7
1000ba6c:	000c3300 	call	1000c330 <__umodsi3>
1000ba70:	b809883a 	mov	r4,r23
1000ba74:	a00b883a 	mov	r5,r20
1000ba78:	1021883a 	mov	r16,r2
1000ba7c:	957fffcc 	andi	r21,r18,65535
1000ba80:	000c3280 	call	1000c328 <__udivsi3>
1000ba84:	a80b883a 	mov	r5,r21
1000ba88:	1009883a 	mov	r4,r2
1000ba8c:	102f883a 	mov	r23,r2
1000ba90:	000c3380 	call	1000c338 <__mulsi3>
1000ba94:	8020943a 	slli	r16,r16,16
1000ba98:	b00ad43a 	srli	r5,r22,16
1000ba9c:	814cb03a 	or	r6,r16,r5
1000baa0:	3080062e 	bgeu	r6,r2,1000babc <__udivdi3+0x50c>
1000baa4:	348d883a 	add	r6,r6,r18
1000baa8:	b8ffffc4 	addi	r3,r23,-1
1000baac:	34804836 	bltu	r6,r18,1000bbd0 <__udivdi3+0x620>
1000bab0:	3080472e 	bgeu	r6,r2,1000bbd0 <__udivdi3+0x620>
1000bab4:	bdffff84 	addi	r23,r23,-2
1000bab8:	348d883a 	add	r6,r6,r18
1000babc:	30a7c83a 	sub	r19,r6,r2
1000bac0:	9809883a 	mov	r4,r19
1000bac4:	a00b883a 	mov	r5,r20
1000bac8:	000c3300 	call	1000c330 <__umodsi3>
1000bacc:	9809883a 	mov	r4,r19
1000bad0:	a00b883a 	mov	r5,r20
1000bad4:	1039883a 	mov	fp,r2
1000bad8:	000c3280 	call	1000c328 <__udivsi3>
1000badc:	1009883a 	mov	r4,r2
1000bae0:	a80b883a 	mov	r5,r21
1000bae4:	e038943a 	slli	fp,fp,16
1000bae8:	1027883a 	mov	r19,r2
1000baec:	000c3380 	call	1000c338 <__mulsi3>
1000baf0:	b1bfffcc 	andi	r6,r22,65535
1000baf4:	e18cb03a 	or	r6,fp,r6
1000baf8:	3080062e 	bgeu	r6,r2,1000bb14 <__udivdi3+0x564>
1000bafc:	348d883a 	add	r6,r6,r18
1000bb00:	98ffffc4 	addi	r3,r19,-1
1000bb04:	34803036 	bltu	r6,r18,1000bbc8 <__udivdi3+0x618>
1000bb08:	30802f2e 	bgeu	r6,r2,1000bbc8 <__udivdi3+0x618>
1000bb0c:	9cffff84 	addi	r19,r19,-2
1000bb10:	348d883a 	add	r6,r6,r18
1000bb14:	b82e943a 	slli	r23,r23,16
1000bb18:	30a1c83a 	sub	r16,r6,r2
1000bb1c:	9dc6b03a 	or	r3,r19,r23
1000bb20:	003f2606 	br	1000b7bc <__alt_data_end+0xf800b7bc>
1000bb24:	2027883a 	mov	r19,r4
1000bb28:	003f5106 	br	1000b870 <__alt_data_end+0xf800b870>
1000bb2c:	1827883a 	mov	r19,r3
1000bb30:	003ef006 	br	1000b6f4 <__alt_data_end+0xf800b6f4>
1000bb34:	1808943a 	slli	r4,r3,16
1000bb38:	9dc6983a 	sll	r3,r19,r23
1000bb3c:	e73fffcc 	andi	fp,fp,65535
1000bb40:	2709883a 	add	r4,r4,fp
1000bb44:	193fbd2e 	bgeu	r3,r4,1000ba3c <__alt_data_end+0xf800ba3c>
1000bb48:	a0bfffc4 	addi	r2,r20,-1
1000bb4c:	0007883a 	mov	r3,zero
1000bb50:	003f4c06 	br	1000b884 <__alt_data_end+0xf800b884>
1000bb54:	01400404 	movi	r5,16
1000bb58:	2811883a 	mov	r8,r5
1000bb5c:	003ef106 	br	1000b724 <__alt_data_end+0xf800b724>
1000bb60:	000b883a 	mov	r5,zero
1000bb64:	0011883a 	mov	r8,zero
1000bb68:	003eee06 	br	1000b724 <__alt_data_end+0xf800b724>
1000bb6c:	00800404 	movi	r2,16
1000bb70:	1007883a 	mov	r3,r2
1000bb74:	003ea606 	br	1000b610 <__alt_data_end+0xf800b610>
1000bb78:	00800404 	movi	r2,16
1000bb7c:	1007883a 	mov	r3,r2
1000bb80:	003f0106 	br	1000b788 <__alt_data_end+0xf800b788>
1000bb84:	0005883a 	mov	r2,zero
1000bb88:	0007883a 	mov	r3,zero
1000bb8c:	003efe06 	br	1000b788 <__alt_data_end+0xf800b788>
1000bb90:	0005883a 	mov	r2,zero
1000bb94:	0007883a 	mov	r3,zero
1000bb98:	003e9d06 	br	1000b610 <__alt_data_end+0xf800b610>
1000bb9c:	0007883a 	mov	r3,zero
1000bba0:	00800044 	movi	r2,1
1000bba4:	003f3706 	br	1000b884 <__alt_data_end+0xf800b884>
1000bba8:	80bf832e 	bgeu	r16,r2,1000b9b8 <__alt_data_end+0xf800b9b8>
1000bbac:	8c7fff84 	addi	r17,r17,-2
1000bbb0:	8721883a 	add	r16,r16,fp
1000bbb4:	003f8106 	br	1000b9bc <__alt_data_end+0xf800b9bc>
1000bbb8:	48bf6a2e 	bgeu	r9,r2,1000b964 <__alt_data_end+0xf800b964>
1000bbbc:	a53fff84 	addi	r20,r20,-2
1000bbc0:	4f13883a 	add	r9,r9,fp
1000bbc4:	003f6806 	br	1000b968 <__alt_data_end+0xf800b968>
1000bbc8:	1827883a 	mov	r19,r3
1000bbcc:	003fd106 	br	1000bb14 <__alt_data_end+0xf800bb14>
1000bbd0:	182f883a 	mov	r23,r3
1000bbd4:	003fb906 	br	1000babc <__alt_data_end+0xf800babc>
1000bbd8:	843fff84 	addi	r16,r16,-2
1000bbdc:	348d883a 	add	r6,r6,r18
1000bbe0:	003f0c06 	br	1000b814 <__alt_data_end+0xf800b814>
1000bbe4:	843fff84 	addi	r16,r16,-2
1000bbe8:	1c87883a 	add	r3,r3,r18
1000bbec:	003eac06 	br	1000b6a0 <__alt_data_end+0xf800b6a0>

1000bbf0 <__umoddi3>:
1000bbf0:	defff404 	addi	sp,sp,-48
1000bbf4:	dd800815 	stw	r22,32(sp)
1000bbf8:	dc400315 	stw	r17,12(sp)
1000bbfc:	dc000215 	stw	r16,8(sp)
1000bc00:	dfc00b15 	stw	ra,44(sp)
1000bc04:	df000a15 	stw	fp,40(sp)
1000bc08:	ddc00915 	stw	r23,36(sp)
1000bc0c:	dd400715 	stw	r21,28(sp)
1000bc10:	dd000615 	stw	r20,24(sp)
1000bc14:	dcc00515 	stw	r19,20(sp)
1000bc18:	dc800415 	stw	r18,16(sp)
1000bc1c:	2021883a 	mov	r16,r4
1000bc20:	2823883a 	mov	r17,r5
1000bc24:	282d883a 	mov	r22,r5
1000bc28:	38003c1e 	bne	r7,zero,1000bd1c <__umoddi3+0x12c>
1000bc2c:	3027883a 	mov	r19,r6
1000bc30:	2029883a 	mov	r20,r4
1000bc34:	2980522e 	bgeu	r5,r6,1000bd80 <__umoddi3+0x190>
1000bc38:	00bfffd4 	movui	r2,65535
1000bc3c:	1180a436 	bltu	r2,r6,1000bed0 <__umoddi3+0x2e0>
1000bc40:	00803fc4 	movi	r2,255
1000bc44:	11815e2e 	bgeu	r2,r6,1000c1c0 <__umoddi3+0x5d0>
1000bc48:	01400204 	movi	r5,8
1000bc4c:	2805883a 	mov	r2,r5
1000bc50:	314ad83a 	srl	r5,r6,r5
1000bc54:	00c40074 	movhi	r3,4097
1000bc58:	18c73b04 	addi	r3,r3,7404
1000bc5c:	194b883a 	add	r5,r3,r5
1000bc60:	29000003 	ldbu	r4,0(r5)
1000bc64:	2089883a 	add	r4,r4,r2
1000bc68:	00800804 	movi	r2,32
1000bc6c:	1105c83a 	sub	r2,r2,r4
1000bc70:	10010c26 	beq	r2,zero,1000c0a4 <__umoddi3+0x4b4>
1000bc74:	88a2983a 	sll	r17,r17,r2
1000bc78:	8108d83a 	srl	r4,r16,r4
1000bc7c:	30a6983a 	sll	r19,r6,r2
1000bc80:	80a8983a 	sll	r20,r16,r2
1000bc84:	1025883a 	mov	r18,r2
1000bc88:	892cb03a 	or	r22,r17,r4
1000bc8c:	9822d43a 	srli	r17,r19,16
1000bc90:	b009883a 	mov	r4,r22
1000bc94:	9d7fffcc 	andi	r21,r19,65535
1000bc98:	880b883a 	mov	r5,r17
1000bc9c:	000c3300 	call	1000c330 <__umodsi3>
1000bca0:	b009883a 	mov	r4,r22
1000bca4:	880b883a 	mov	r5,r17
1000bca8:	102f883a 	mov	r23,r2
1000bcac:	000c3280 	call	1000c328 <__udivsi3>
1000bcb0:	1009883a 	mov	r4,r2
1000bcb4:	a80b883a 	mov	r5,r21
1000bcb8:	000c3380 	call	1000c338 <__mulsi3>
1000bcbc:	b82e943a 	slli	r23,r23,16
1000bcc0:	a008d43a 	srli	r4,r20,16
1000bcc4:	b906b03a 	or	r3,r23,r4
1000bcc8:	1880042e 	bgeu	r3,r2,1000bcdc <__umoddi3+0xec>
1000bccc:	1cc7883a 	add	r3,r3,r19
1000bcd0:	1cc00236 	bltu	r3,r19,1000bcdc <__umoddi3+0xec>
1000bcd4:	1880012e 	bgeu	r3,r2,1000bcdc <__umoddi3+0xec>
1000bcd8:	1cc7883a 	add	r3,r3,r19
1000bcdc:	18a1c83a 	sub	r16,r3,r2
1000bce0:	8009883a 	mov	r4,r16
1000bce4:	880b883a 	mov	r5,r17
1000bce8:	000c3300 	call	1000c330 <__umodsi3>
1000bcec:	8009883a 	mov	r4,r16
1000bcf0:	880b883a 	mov	r5,r17
1000bcf4:	102d883a 	mov	r22,r2
1000bcf8:	000c3280 	call	1000c328 <__udivsi3>
1000bcfc:	1009883a 	mov	r4,r2
1000bd00:	a80b883a 	mov	r5,r21
1000bd04:	b02c943a 	slli	r22,r22,16
1000bd08:	000c3380 	call	1000c338 <__mulsi3>
1000bd0c:	a13fffcc 	andi	r4,r20,65535
1000bd10:	b106b03a 	or	r3,r22,r4
1000bd14:	1880572e 	bgeu	r3,r2,1000be74 <__umoddi3+0x284>
1000bd18:	00005206 	br	1000be64 <__umoddi3+0x274>
1000bd1c:	29c05936 	bltu	r5,r7,1000be84 <__umoddi3+0x294>
1000bd20:	00bfffd4 	movui	r2,65535
1000bd24:	11c0652e 	bgeu	r2,r7,1000bebc <__umoddi3+0x2cc>
1000bd28:	00804034 	movhi	r2,256
1000bd2c:	10bfffc4 	addi	r2,r2,-1
1000bd30:	11c1172e 	bgeu	r2,r7,1000c190 <__umoddi3+0x5a0>
1000bd34:	01400604 	movi	r5,24
1000bd38:	282b883a 	mov	r21,r5
1000bd3c:	394ad83a 	srl	r5,r7,r5
1000bd40:	00c40074 	movhi	r3,4097
1000bd44:	18c73b04 	addi	r3,r3,7404
1000bd48:	194b883a 	add	r5,r3,r5
1000bd4c:	28800003 	ldbu	r2,0(r5)
1000bd50:	00c00804 	movi	r3,32
1000bd54:	156b883a 	add	r21,r2,r21
1000bd58:	1d69c83a 	sub	r20,r3,r21
1000bd5c:	a000671e 	bne	r20,zero,1000befc <__umoddi3+0x30c>
1000bd60:	3c400136 	bltu	r7,r17,1000bd68 <__umoddi3+0x178>
1000bd64:	81812336 	bltu	r16,r6,1000c1f4 <__umoddi3+0x604>
1000bd68:	8185c83a 	sub	r2,r16,r6
1000bd6c:	89e3c83a 	sub	r17,r17,r7
1000bd70:	8087803a 	cmpltu	r3,r16,r2
1000bd74:	88edc83a 	sub	r22,r17,r3
1000bd78:	b007883a 	mov	r3,r22
1000bd7c:	00004306 	br	1000be8c <__umoddi3+0x29c>
1000bd80:	3000041e 	bne	r6,zero,1000bd94 <__umoddi3+0x1a4>
1000bd84:	01000044 	movi	r4,1
1000bd88:	000b883a 	mov	r5,zero
1000bd8c:	000c3280 	call	1000c328 <__udivsi3>
1000bd90:	1027883a 	mov	r19,r2
1000bd94:	00bfffd4 	movui	r2,65535
1000bd98:	14c0532e 	bgeu	r2,r19,1000bee8 <__umoddi3+0x2f8>
1000bd9c:	00804034 	movhi	r2,256
1000bda0:	10bfffc4 	addi	r2,r2,-1
1000bda4:	14c1032e 	bgeu	r2,r19,1000c1b4 <__umoddi3+0x5c4>
1000bda8:	00800604 	movi	r2,24
1000bdac:	1007883a 	mov	r3,r2
1000bdb0:	9884d83a 	srl	r2,r19,r2
1000bdb4:	01040074 	movhi	r4,4097
1000bdb8:	21073b04 	addi	r4,r4,7404
1000bdbc:	2085883a 	add	r2,r4,r2
1000bdc0:	11000003 	ldbu	r4,0(r2)
1000bdc4:	00800804 	movi	r2,32
1000bdc8:	20c7883a 	add	r3,r4,r3
1000bdcc:	10c5c83a 	sub	r2,r2,r3
1000bdd0:	1000b61e 	bne	r2,zero,1000c0ac <__umoddi3+0x4bc>
1000bdd4:	982ad43a 	srli	r21,r19,16
1000bdd8:	8ce3c83a 	sub	r17,r17,r19
1000bddc:	9dbfffcc 	andi	r22,r19,65535
1000bde0:	0025883a 	mov	r18,zero
1000bde4:	8809883a 	mov	r4,r17
1000bde8:	a80b883a 	mov	r5,r21
1000bdec:	000c3300 	call	1000c330 <__umodsi3>
1000bdf0:	8809883a 	mov	r4,r17
1000bdf4:	a80b883a 	mov	r5,r21
1000bdf8:	102f883a 	mov	r23,r2
1000bdfc:	000c3280 	call	1000c328 <__udivsi3>
1000be00:	1009883a 	mov	r4,r2
1000be04:	b00b883a 	mov	r5,r22
1000be08:	000c3380 	call	1000c338 <__mulsi3>
1000be0c:	b82e943a 	slli	r23,r23,16
1000be10:	a008d43a 	srli	r4,r20,16
1000be14:	b906b03a 	or	r3,r23,r4
1000be18:	1880032e 	bgeu	r3,r2,1000be28 <__umoddi3+0x238>
1000be1c:	1cc7883a 	add	r3,r3,r19
1000be20:	1cc00136 	bltu	r3,r19,1000be28 <__umoddi3+0x238>
1000be24:	1880f136 	bltu	r3,r2,1000c1ec <__umoddi3+0x5fc>
1000be28:	18a1c83a 	sub	r16,r3,r2
1000be2c:	8009883a 	mov	r4,r16
1000be30:	a80b883a 	mov	r5,r21
1000be34:	000c3300 	call	1000c330 <__umodsi3>
1000be38:	8009883a 	mov	r4,r16
1000be3c:	a80b883a 	mov	r5,r21
1000be40:	1023883a 	mov	r17,r2
1000be44:	000c3280 	call	1000c328 <__udivsi3>
1000be48:	1009883a 	mov	r4,r2
1000be4c:	b00b883a 	mov	r5,r22
1000be50:	8822943a 	slli	r17,r17,16
1000be54:	000c3380 	call	1000c338 <__mulsi3>
1000be58:	a13fffcc 	andi	r4,r20,65535
1000be5c:	8906b03a 	or	r3,r17,r4
1000be60:	1880042e 	bgeu	r3,r2,1000be74 <__umoddi3+0x284>
1000be64:	1cc7883a 	add	r3,r3,r19
1000be68:	1cc00236 	bltu	r3,r19,1000be74 <__umoddi3+0x284>
1000be6c:	1880012e 	bgeu	r3,r2,1000be74 <__umoddi3+0x284>
1000be70:	1cc7883a 	add	r3,r3,r19
1000be74:	1887c83a 	sub	r3,r3,r2
1000be78:	1c84d83a 	srl	r2,r3,r18
1000be7c:	0007883a 	mov	r3,zero
1000be80:	00000206 	br	1000be8c <__umoddi3+0x29c>
1000be84:	2005883a 	mov	r2,r4
1000be88:	2807883a 	mov	r3,r5
1000be8c:	dfc00b17 	ldw	ra,44(sp)
1000be90:	df000a17 	ldw	fp,40(sp)
1000be94:	ddc00917 	ldw	r23,36(sp)
1000be98:	dd800817 	ldw	r22,32(sp)
1000be9c:	dd400717 	ldw	r21,28(sp)
1000bea0:	dd000617 	ldw	r20,24(sp)
1000bea4:	dcc00517 	ldw	r19,20(sp)
1000bea8:	dc800417 	ldw	r18,16(sp)
1000beac:	dc400317 	ldw	r17,12(sp)
1000beb0:	dc000217 	ldw	r16,8(sp)
1000beb4:	dec00c04 	addi	sp,sp,48
1000beb8:	f800283a 	ret
1000bebc:	00803fc4 	movi	r2,255
1000bec0:	11c0b02e 	bgeu	r2,r7,1000c184 <__umoddi3+0x594>
1000bec4:	01400204 	movi	r5,8
1000bec8:	282b883a 	mov	r21,r5
1000becc:	003f9b06 	br	1000bd3c <__alt_data_end+0xf800bd3c>
1000bed0:	00804034 	movhi	r2,256
1000bed4:	10bfffc4 	addi	r2,r2,-1
1000bed8:	1180b02e 	bgeu	r2,r6,1000c19c <__umoddi3+0x5ac>
1000bedc:	01400604 	movi	r5,24
1000bee0:	2805883a 	mov	r2,r5
1000bee4:	003f5a06 	br	1000bc50 <__alt_data_end+0xf800bc50>
1000bee8:	00803fc4 	movi	r2,255
1000beec:	14c0ae2e 	bgeu	r2,r19,1000c1a8 <__umoddi3+0x5b8>
1000bef0:	00800204 	movi	r2,8
1000bef4:	1007883a 	mov	r3,r2
1000bef8:	003fad06 	br	1000bdb0 <__alt_data_end+0xf800bdb0>
1000befc:	3d0a983a 	sll	r5,r7,r20
1000bf00:	356cd83a 	srl	r22,r6,r21
1000bf04:	8d78d83a 	srl	fp,r17,r21
1000bf08:	8d10983a 	sll	r8,r17,r20
1000bf0c:	2dacb03a 	or	r22,r5,r22
1000bf10:	b02ed43a 	srli	r23,r22,16
1000bf14:	8564d83a 	srl	r18,r16,r21
1000bf18:	e009883a 	mov	r4,fp
1000bf1c:	b80b883a 	mov	r5,r23
1000bf20:	44a4b03a 	or	r18,r8,r18
1000bf24:	3526983a 	sll	r19,r6,r20
1000bf28:	000c3300 	call	1000c330 <__umodsi3>
1000bf2c:	e009883a 	mov	r4,fp
1000bf30:	b80b883a 	mov	r5,r23
1000bf34:	b47fffcc 	andi	r17,r22,65535
1000bf38:	d8800015 	stw	r2,0(sp)
1000bf3c:	000c3280 	call	1000c328 <__udivsi3>
1000bf40:	1009883a 	mov	r4,r2
1000bf44:	880b883a 	mov	r5,r17
1000bf48:	1039883a 	mov	fp,r2
1000bf4c:	000c3380 	call	1000c338 <__mulsi3>
1000bf50:	d9800017 	ldw	r6,0(sp)
1000bf54:	9008d43a 	srli	r4,r18,16
1000bf58:	8520983a 	sll	r16,r16,r20
1000bf5c:	300c943a 	slli	r6,r6,16
1000bf60:	3106b03a 	or	r3,r6,r4
1000bf64:	1880042e 	bgeu	r3,r2,1000bf78 <__umoddi3+0x388>
1000bf68:	1d87883a 	add	r3,r3,r22
1000bf6c:	e13fffc4 	addi	r4,fp,-1
1000bf70:	1d809a2e 	bgeu	r3,r22,1000c1dc <__umoddi3+0x5ec>
1000bf74:	2039883a 	mov	fp,r4
1000bf78:	1887c83a 	sub	r3,r3,r2
1000bf7c:	1809883a 	mov	r4,r3
1000bf80:	b80b883a 	mov	r5,r23
1000bf84:	d8c00115 	stw	r3,4(sp)
1000bf88:	000c3300 	call	1000c330 <__umodsi3>
1000bf8c:	d8c00117 	ldw	r3,4(sp)
1000bf90:	b80b883a 	mov	r5,r23
1000bf94:	d8800015 	stw	r2,0(sp)
1000bf98:	1809883a 	mov	r4,r3
1000bf9c:	000c3280 	call	1000c328 <__udivsi3>
1000bfa0:	880b883a 	mov	r5,r17
1000bfa4:	1009883a 	mov	r4,r2
1000bfa8:	102f883a 	mov	r23,r2
1000bfac:	000c3380 	call	1000c338 <__mulsi3>
1000bfb0:	d9800017 	ldw	r6,0(sp)
1000bfb4:	947fffcc 	andi	r17,r18,65535
1000bfb8:	300c943a 	slli	r6,r6,16
1000bfbc:	3464b03a 	or	r18,r6,r17
1000bfc0:	9080042e 	bgeu	r18,r2,1000bfd4 <__umoddi3+0x3e4>
1000bfc4:	95a5883a 	add	r18,r18,r22
1000bfc8:	b8ffffc4 	addi	r3,r23,-1
1000bfcc:	95807f2e 	bgeu	r18,r22,1000c1cc <__umoddi3+0x5dc>
1000bfd0:	182f883a 	mov	r23,r3
1000bfd4:	e038943a 	slli	fp,fp,16
1000bfd8:	980cd43a 	srli	r6,r19,16
1000bfdc:	98ffffcc 	andi	r3,r19,65535
1000bfe0:	bf38b03a 	or	fp,r23,fp
1000bfe4:	e02ed43a 	srli	r23,fp,16
1000bfe8:	e73fffcc 	andi	fp,fp,65535
1000bfec:	180b883a 	mov	r5,r3
1000bff0:	e009883a 	mov	r4,fp
1000bff4:	d9800015 	stw	r6,0(sp)
1000bff8:	d8c00115 	stw	r3,4(sp)
1000bffc:	90a5c83a 	sub	r18,r18,r2
1000c000:	000c3380 	call	1000c338 <__mulsi3>
1000c004:	d8c00117 	ldw	r3,4(sp)
1000c008:	b809883a 	mov	r4,r23
1000c00c:	1023883a 	mov	r17,r2
1000c010:	180b883a 	mov	r5,r3
1000c014:	000c3380 	call	1000c338 <__mulsi3>
1000c018:	d9800017 	ldw	r6,0(sp)
1000c01c:	b809883a 	mov	r4,r23
1000c020:	d8800115 	stw	r2,4(sp)
1000c024:	300b883a 	mov	r5,r6
1000c028:	302f883a 	mov	r23,r6
1000c02c:	000c3380 	call	1000c338 <__mulsi3>
1000c030:	e009883a 	mov	r4,fp
1000c034:	b80b883a 	mov	r5,r23
1000c038:	d8800015 	stw	r2,0(sp)
1000c03c:	000c3380 	call	1000c338 <__mulsi3>
1000c040:	d8c00117 	ldw	r3,4(sp)
1000c044:	880cd43a 	srli	r6,r17,16
1000c048:	d9c00017 	ldw	r7,0(sp)
1000c04c:	1885883a 	add	r2,r3,r2
1000c050:	118d883a 	add	r6,r2,r6
1000c054:	30c0022e 	bgeu	r6,r3,1000c060 <__umoddi3+0x470>
1000c058:	00800074 	movhi	r2,1
1000c05c:	388f883a 	add	r7,r7,r2
1000c060:	3006d43a 	srli	r3,r6,16
1000c064:	300c943a 	slli	r6,r6,16
1000c068:	8c7fffcc 	andi	r17,r17,65535
1000c06c:	38c7883a 	add	r3,r7,r3
1000c070:	3463883a 	add	r17,r6,r17
1000c074:	90c03d36 	bltu	r18,r3,1000c16c <__umoddi3+0x57c>
1000c078:	90c06026 	beq	r18,r3,1000c1fc <__umoddi3+0x60c>
1000c07c:	90c9c83a 	sub	r4,r18,r3
1000c080:	880f883a 	mov	r7,r17
1000c084:	81cfc83a 	sub	r7,r16,r7
1000c088:	81c7803a 	cmpltu	r3,r16,r7
1000c08c:	20c7c83a 	sub	r3,r4,r3
1000c090:	1d44983a 	sll	r2,r3,r21
1000c094:	3d0ed83a 	srl	r7,r7,r20
1000c098:	1d06d83a 	srl	r3,r3,r20
1000c09c:	11c4b03a 	or	r2,r2,r7
1000c0a0:	003f7a06 	br	1000be8c <__alt_data_end+0xf800be8c>
1000c0a4:	0025883a 	mov	r18,zero
1000c0a8:	003ef806 	br	1000bc8c <__alt_data_end+0xf800bc8c>
1000c0ac:	98a6983a 	sll	r19,r19,r2
1000c0b0:	88e8d83a 	srl	r20,r17,r3
1000c0b4:	80c6d83a 	srl	r3,r16,r3
1000c0b8:	982ad43a 	srli	r21,r19,16
1000c0bc:	88a2983a 	sll	r17,r17,r2
1000c0c0:	a009883a 	mov	r4,r20
1000c0c4:	a80b883a 	mov	r5,r21
1000c0c8:	88eeb03a 	or	r23,r17,r3
1000c0cc:	1025883a 	mov	r18,r2
1000c0d0:	000c3300 	call	1000c330 <__umodsi3>
1000c0d4:	a009883a 	mov	r4,r20
1000c0d8:	a80b883a 	mov	r5,r21
1000c0dc:	1023883a 	mov	r17,r2
1000c0e0:	9dbfffcc 	andi	r22,r19,65535
1000c0e4:	000c3280 	call	1000c328 <__udivsi3>
1000c0e8:	1009883a 	mov	r4,r2
1000c0ec:	b00b883a 	mov	r5,r22
1000c0f0:	000c3380 	call	1000c338 <__mulsi3>
1000c0f4:	8822943a 	slli	r17,r17,16
1000c0f8:	b808d43a 	srli	r4,r23,16
1000c0fc:	84a8983a 	sll	r20,r16,r18
1000c100:	8906b03a 	or	r3,r17,r4
1000c104:	1880042e 	bgeu	r3,r2,1000c118 <__umoddi3+0x528>
1000c108:	1cc7883a 	add	r3,r3,r19
1000c10c:	1cc00236 	bltu	r3,r19,1000c118 <__umoddi3+0x528>
1000c110:	1880012e 	bgeu	r3,r2,1000c118 <__umoddi3+0x528>
1000c114:	1cc7883a 	add	r3,r3,r19
1000c118:	18a1c83a 	sub	r16,r3,r2
1000c11c:	8009883a 	mov	r4,r16
1000c120:	a80b883a 	mov	r5,r21
1000c124:	000c3300 	call	1000c330 <__umodsi3>
1000c128:	8009883a 	mov	r4,r16
1000c12c:	a80b883a 	mov	r5,r21
1000c130:	1039883a 	mov	fp,r2
1000c134:	000c3280 	call	1000c328 <__udivsi3>
1000c138:	1009883a 	mov	r4,r2
1000c13c:	b00b883a 	mov	r5,r22
1000c140:	000c3380 	call	1000c338 <__mulsi3>
1000c144:	e006943a 	slli	r3,fp,16
1000c148:	b93fffcc 	andi	r4,r23,65535
1000c14c:	1906b03a 	or	r3,r3,r4
1000c150:	1880042e 	bgeu	r3,r2,1000c164 <__umoddi3+0x574>
1000c154:	1cc7883a 	add	r3,r3,r19
1000c158:	1cc00236 	bltu	r3,r19,1000c164 <__umoddi3+0x574>
1000c15c:	1880012e 	bgeu	r3,r2,1000c164 <__umoddi3+0x574>
1000c160:	1cc7883a 	add	r3,r3,r19
1000c164:	18a3c83a 	sub	r17,r3,r2
1000c168:	003f1e06 	br	1000bde4 <__alt_data_end+0xf800bde4>
1000c16c:	8ccfc83a 	sub	r7,r17,r19
1000c170:	1d89c83a 	sub	r4,r3,r22
1000c174:	89e3803a 	cmpltu	r17,r17,r7
1000c178:	2463c83a 	sub	r17,r4,r17
1000c17c:	9449c83a 	sub	r4,r18,r17
1000c180:	003fc006 	br	1000c084 <__alt_data_end+0xf800c084>
1000c184:	000b883a 	mov	r5,zero
1000c188:	002b883a 	mov	r21,zero
1000c18c:	003eeb06 	br	1000bd3c <__alt_data_end+0xf800bd3c>
1000c190:	01400404 	movi	r5,16
1000c194:	282b883a 	mov	r21,r5
1000c198:	003ee806 	br	1000bd3c <__alt_data_end+0xf800bd3c>
1000c19c:	01400404 	movi	r5,16
1000c1a0:	2805883a 	mov	r2,r5
1000c1a4:	003eaa06 	br	1000bc50 <__alt_data_end+0xf800bc50>
1000c1a8:	0005883a 	mov	r2,zero
1000c1ac:	0007883a 	mov	r3,zero
1000c1b0:	003eff06 	br	1000bdb0 <__alt_data_end+0xf800bdb0>
1000c1b4:	00800404 	movi	r2,16
1000c1b8:	1007883a 	mov	r3,r2
1000c1bc:	003efc06 	br	1000bdb0 <__alt_data_end+0xf800bdb0>
1000c1c0:	000b883a 	mov	r5,zero
1000c1c4:	0005883a 	mov	r2,zero
1000c1c8:	003ea106 	br	1000bc50 <__alt_data_end+0xf800bc50>
1000c1cc:	90bf802e 	bgeu	r18,r2,1000bfd0 <__alt_data_end+0xf800bfd0>
1000c1d0:	bdffff84 	addi	r23,r23,-2
1000c1d4:	95a5883a 	add	r18,r18,r22
1000c1d8:	003f7e06 	br	1000bfd4 <__alt_data_end+0xf800bfd4>
1000c1dc:	18bf652e 	bgeu	r3,r2,1000bf74 <__alt_data_end+0xf800bf74>
1000c1e0:	e73fff84 	addi	fp,fp,-2
1000c1e4:	1d87883a 	add	r3,r3,r22
1000c1e8:	003f6306 	br	1000bf78 <__alt_data_end+0xf800bf78>
1000c1ec:	1cc7883a 	add	r3,r3,r19
1000c1f0:	003f0d06 	br	1000be28 <__alt_data_end+0xf800be28>
1000c1f4:	8005883a 	mov	r2,r16
1000c1f8:	003edf06 	br	1000bd78 <__alt_data_end+0xf800bd78>
1000c1fc:	847fdb36 	bltu	r16,r17,1000c16c <__alt_data_end+0xf800c16c>
1000c200:	880f883a 	mov	r7,r17
1000c204:	0009883a 	mov	r4,zero
1000c208:	003f9e06 	br	1000c084 <__alt_data_end+0xf800c084>

1000c20c <udivmodsi4>:
1000c20c:	2900182e 	bgeu	r5,r4,1000c270 <udivmodsi4+0x64>
1000c210:	28001716 	blt	r5,zero,1000c270 <udivmodsi4+0x64>
1000c214:	00800804 	movi	r2,32
1000c218:	00c00044 	movi	r3,1
1000c21c:	00000206 	br	1000c228 <udivmodsi4+0x1c>
1000c220:	10001126 	beq	r2,zero,1000c268 <udivmodsi4+0x5c>
1000c224:	28000516 	blt	r5,zero,1000c23c <udivmodsi4+0x30>
1000c228:	294b883a 	add	r5,r5,r5
1000c22c:	10bfffc4 	addi	r2,r2,-1
1000c230:	18c7883a 	add	r3,r3,r3
1000c234:	293ffa36 	bltu	r5,r4,1000c220 <__alt_data_end+0xf800c220>
1000c238:	18000b26 	beq	r3,zero,1000c268 <udivmodsi4+0x5c>
1000c23c:	0005883a 	mov	r2,zero
1000c240:	21400236 	bltu	r4,r5,1000c24c <udivmodsi4+0x40>
1000c244:	2149c83a 	sub	r4,r4,r5
1000c248:	10c4b03a 	or	r2,r2,r3
1000c24c:	1806d07a 	srli	r3,r3,1
1000c250:	280ad07a 	srli	r5,r5,1
1000c254:	183ffa1e 	bne	r3,zero,1000c240 <__alt_data_end+0xf800c240>
1000c258:	3000011e 	bne	r6,zero,1000c260 <udivmodsi4+0x54>
1000c25c:	f800283a 	ret
1000c260:	2005883a 	mov	r2,r4
1000c264:	f800283a 	ret
1000c268:	0005883a 	mov	r2,zero
1000c26c:	003ffa06 	br	1000c258 <__alt_data_end+0xf800c258>
1000c270:	00c00044 	movi	r3,1
1000c274:	003ff106 	br	1000c23c <__alt_data_end+0xf800c23c>

1000c278 <__divsi3>:
1000c278:	defffe04 	addi	sp,sp,-8
1000c27c:	dfc00115 	stw	ra,4(sp)
1000c280:	dc000015 	stw	r16,0(sp)
1000c284:	20000b16 	blt	r4,zero,1000c2b4 <__divsi3+0x3c>
1000c288:	0021883a 	mov	r16,zero
1000c28c:	28000c16 	blt	r5,zero,1000c2c0 <__divsi3+0x48>
1000c290:	000d883a 	mov	r6,zero
1000c294:	000c20c0 	call	1000c20c <udivmodsi4>
1000c298:	0407c83a 	sub	r3,zero,r16
1000c29c:	1884f03a 	xor	r2,r3,r2
1000c2a0:	1405883a 	add	r2,r2,r16
1000c2a4:	dfc00117 	ldw	ra,4(sp)
1000c2a8:	dc000017 	ldw	r16,0(sp)
1000c2ac:	dec00204 	addi	sp,sp,8
1000c2b0:	f800283a 	ret
1000c2b4:	0109c83a 	sub	r4,zero,r4
1000c2b8:	04000044 	movi	r16,1
1000c2bc:	283ff40e 	bge	r5,zero,1000c290 <__alt_data_end+0xf800c290>
1000c2c0:	014bc83a 	sub	r5,zero,r5
1000c2c4:	8400005c 	xori	r16,r16,1
1000c2c8:	003ff106 	br	1000c290 <__alt_data_end+0xf800c290>

1000c2cc <__modsi3>:
1000c2cc:	defffd04 	addi	sp,sp,-12
1000c2d0:	dfc00215 	stw	ra,8(sp)
1000c2d4:	dc400115 	stw	r17,4(sp)
1000c2d8:	dc000015 	stw	r16,0(sp)
1000c2dc:	20000c16 	blt	r4,zero,1000c310 <__modsi3+0x44>
1000c2e0:	0023883a 	mov	r17,zero
1000c2e4:	0021883a 	mov	r16,zero
1000c2e8:	28000d16 	blt	r5,zero,1000c320 <__modsi3+0x54>
1000c2ec:	01800044 	movi	r6,1
1000c2f0:	000c20c0 	call	1000c20c <udivmodsi4>
1000c2f4:	1404f03a 	xor	r2,r2,r16
1000c2f8:	8885883a 	add	r2,r17,r2
1000c2fc:	dfc00217 	ldw	ra,8(sp)
1000c300:	dc400117 	ldw	r17,4(sp)
1000c304:	dc000017 	ldw	r16,0(sp)
1000c308:	dec00304 	addi	sp,sp,12
1000c30c:	f800283a 	ret
1000c310:	0109c83a 	sub	r4,zero,r4
1000c314:	04400044 	movi	r17,1
1000c318:	043fffc4 	movi	r16,-1
1000c31c:	283ff30e 	bge	r5,zero,1000c2ec <__alt_data_end+0xf800c2ec>
1000c320:	014bc83a 	sub	r5,zero,r5
1000c324:	003ff106 	br	1000c2ec <__alt_data_end+0xf800c2ec>

1000c328 <__udivsi3>:
1000c328:	000d883a 	mov	r6,zero
1000c32c:	000c20c1 	jmpi	1000c20c <udivmodsi4>

1000c330 <__umodsi3>:
1000c330:	01800044 	movi	r6,1
1000c334:	000c20c1 	jmpi	1000c20c <udivmodsi4>

1000c338 <__mulsi3>:
1000c338:	0005883a 	mov	r2,zero
1000c33c:	20000726 	beq	r4,zero,1000c35c <__mulsi3+0x24>
1000c340:	20c0004c 	andi	r3,r4,1
1000c344:	2008d07a 	srli	r4,r4,1
1000c348:	18000126 	beq	r3,zero,1000c350 <__mulsi3+0x18>
1000c34c:	1145883a 	add	r2,r2,r5
1000c350:	294b883a 	add	r5,r5,r5
1000c354:	203ffa1e 	bne	r4,zero,1000c340 <__alt_data_end+0xf800c340>
1000c358:	f800283a 	ret
1000c35c:	f800283a 	ret

1000c360 <__adddf3>:
1000c360:	02000434 	movhi	r8,16
1000c364:	423fffc4 	addi	r8,r8,-1
1000c368:	defffb04 	addi	sp,sp,-20
1000c36c:	2a12703a 	and	r9,r5,r8
1000c370:	2806d7fa 	srli	r3,r5,31
1000c374:	3a10703a 	and	r8,r7,r8
1000c378:	3804d53a 	srli	r2,r7,20
1000c37c:	3014d77a 	srli	r10,r6,29
1000c380:	dc000015 	stw	r16,0(sp)
1000c384:	481290fa 	slli	r9,r9,3
1000c388:	2820d53a 	srli	r16,r5,20
1000c38c:	401090fa 	slli	r8,r8,3
1000c390:	200ad77a 	srli	r5,r4,29
1000c394:	380ed7fa 	srli	r7,r7,31
1000c398:	dc800215 	stw	r18,8(sp)
1000c39c:	dc400115 	stw	r17,4(sp)
1000c3a0:	dfc00415 	stw	ra,16(sp)
1000c3a4:	dcc00315 	stw	r19,12(sp)
1000c3a8:	1c803fcc 	andi	r18,r3,255
1000c3ac:	8401ffcc 	andi	r16,r16,2047
1000c3b0:	494ab03a 	or	r5,r9,r5
1000c3b4:	202290fa 	slli	r17,r4,3
1000c3b8:	1081ffcc 	andi	r2,r2,2047
1000c3bc:	4290b03a 	or	r8,r8,r10
1000c3c0:	300c90fa 	slli	r6,r6,3
1000c3c4:	91c07026 	beq	r18,r7,1000c588 <__adddf3+0x228>
1000c3c8:	8087c83a 	sub	r3,r16,r2
1000c3cc:	00c0b30e 	bge	zero,r3,1000c69c <__adddf3+0x33c>
1000c3d0:	10002a1e 	bne	r2,zero,1000c47c <__adddf3+0x11c>
1000c3d4:	4184b03a 	or	r2,r8,r6
1000c3d8:	1000991e 	bne	r2,zero,1000c640 <__adddf3+0x2e0>
1000c3dc:	888001cc 	andi	r2,r17,7
1000c3e0:	10005b26 	beq	r2,zero,1000c550 <__adddf3+0x1f0>
1000c3e4:	88c003cc 	andi	r3,r17,15
1000c3e8:	00800104 	movi	r2,4
1000c3ec:	18805826 	beq	r3,r2,1000c550 <__adddf3+0x1f0>
1000c3f0:	89800104 	addi	r6,r17,4
1000c3f4:	3463803a 	cmpltu	r17,r6,r17
1000c3f8:	2c4b883a 	add	r5,r5,r17
1000c3fc:	2880202c 	andhi	r2,r5,128
1000c400:	9007883a 	mov	r3,r18
1000c404:	3023883a 	mov	r17,r6
1000c408:	10005426 	beq	r2,zero,1000c55c <__adddf3+0x1fc>
1000c40c:	84000044 	addi	r16,r16,1
1000c410:	0081ffc4 	movi	r2,2047
1000c414:	8080c126 	beq	r16,r2,1000c71c <__adddf3+0x3bc>
1000c418:	013fe034 	movhi	r4,65408
1000c41c:	213fffc4 	addi	r4,r4,-1
1000c420:	290a703a 	and	r5,r5,r4
1000c424:	2804977a 	slli	r2,r5,29
1000c428:	280a927a 	slli	r5,r5,9
1000c42c:	8822d0fa 	srli	r17,r17,3
1000c430:	8401ffcc 	andi	r16,r16,2047
1000c434:	2808d33a 	srli	r4,r5,12
1000c438:	1444b03a 	or	r2,r2,r17
1000c43c:	8401ffcc 	andi	r16,r16,2047
1000c440:	800a953a 	slli	r5,r16,20
1000c444:	18c03fcc 	andi	r3,r3,255
1000c448:	04000434 	movhi	r16,16
1000c44c:	180697fa 	slli	r3,r3,31
1000c450:	843fffc4 	addi	r16,r16,-1
1000c454:	2420703a 	and	r16,r4,r16
1000c458:	8160b03a 	or	r16,r16,r5
1000c45c:	80c6b03a 	or	r3,r16,r3
1000c460:	dfc00417 	ldw	ra,16(sp)
1000c464:	dcc00317 	ldw	r19,12(sp)
1000c468:	dc800217 	ldw	r18,8(sp)
1000c46c:	dc400117 	ldw	r17,4(sp)
1000c470:	dc000017 	ldw	r16,0(sp)
1000c474:	dec00504 	addi	sp,sp,20
1000c478:	f800283a 	ret
1000c47c:	0081ffc4 	movi	r2,2047
1000c480:	80bfd626 	beq	r16,r2,1000c3dc <__alt_data_end+0xf800c3dc>
1000c484:	42002034 	orhi	r8,r8,128
1000c488:	00800e04 	movi	r2,56
1000c48c:	10c0a616 	blt	r2,r3,1000c728 <__adddf3+0x3c8>
1000c490:	008007c4 	movi	r2,31
1000c494:	10c0c916 	blt	r2,r3,1000c7bc <__adddf3+0x45c>
1000c498:	00800804 	movi	r2,32
1000c49c:	10c5c83a 	sub	r2,r2,r3
1000c4a0:	408e983a 	sll	r7,r8,r2
1000c4a4:	30c8d83a 	srl	r4,r6,r3
1000c4a8:	3084983a 	sll	r2,r6,r2
1000c4ac:	40c6d83a 	srl	r3,r8,r3
1000c4b0:	390cb03a 	or	r6,r7,r4
1000c4b4:	1004c03a 	cmpne	r2,r2,zero
1000c4b8:	308cb03a 	or	r6,r6,r2
1000c4bc:	898dc83a 	sub	r6,r17,r6
1000c4c0:	89a3803a 	cmpltu	r17,r17,r6
1000c4c4:	28cbc83a 	sub	r5,r5,r3
1000c4c8:	2c4bc83a 	sub	r5,r5,r17
1000c4cc:	3023883a 	mov	r17,r6
1000c4d0:	2880202c 	andhi	r2,r5,128
1000c4d4:	10006d26 	beq	r2,zero,1000c68c <__adddf3+0x32c>
1000c4d8:	04c02034 	movhi	r19,128
1000c4dc:	9cffffc4 	addi	r19,r19,-1
1000c4e0:	2ce6703a 	and	r19,r5,r19
1000c4e4:	98007e26 	beq	r19,zero,1000c6e0 <__adddf3+0x380>
1000c4e8:	9809883a 	mov	r4,r19
1000c4ec:	000eaf80 	call	1000eaf8 <__clzsi2>
1000c4f0:	10fffe04 	addi	r3,r2,-8
1000c4f4:	010007c4 	movi	r4,31
1000c4f8:	20c07f16 	blt	r4,r3,1000c6f8 <__adddf3+0x398>
1000c4fc:	01400a04 	movi	r5,40
1000c500:	2885c83a 	sub	r2,r5,r2
1000c504:	888ad83a 	srl	r5,r17,r2
1000c508:	98e6983a 	sll	r19,r19,r3
1000c50c:	88e2983a 	sll	r17,r17,r3
1000c510:	2ce6b03a 	or	r19,r5,r19
1000c514:	1c007c16 	blt	r3,r16,1000c708 <__adddf3+0x3a8>
1000c518:	1c21c83a 	sub	r16,r3,r16
1000c51c:	81400044 	addi	r5,r16,1
1000c520:	00c007c4 	movi	r3,31
1000c524:	19409816 	blt	r3,r5,1000c788 <__adddf3+0x428>
1000c528:	1c21c83a 	sub	r16,r3,r16
1000c52c:	8c08983a 	sll	r4,r17,r16
1000c530:	8946d83a 	srl	r3,r17,r5
1000c534:	9c20983a 	sll	r16,r19,r16
1000c538:	2008c03a 	cmpne	r4,r4,zero
1000c53c:	994ad83a 	srl	r5,r19,r5
1000c540:	1c06b03a 	or	r3,r3,r16
1000c544:	1922b03a 	or	r17,r3,r4
1000c548:	0021883a 	mov	r16,zero
1000c54c:	003fa306 	br	1000c3dc <__alt_data_end+0xf800c3dc>
1000c550:	2880202c 	andhi	r2,r5,128
1000c554:	9007883a 	mov	r3,r18
1000c558:	103fac1e 	bne	r2,zero,1000c40c <__alt_data_end+0xf800c40c>
1000c55c:	2804977a 	slli	r2,r5,29
1000c560:	8822d0fa 	srli	r17,r17,3
1000c564:	0101ffc4 	movi	r4,2047
1000c568:	280ad0fa 	srli	r5,r5,3
1000c56c:	1444b03a 	or	r2,r2,r17
1000c570:	81002c26 	beq	r16,r4,1000c624 <__adddf3+0x2c4>
1000c574:	8120703a 	and	r16,r16,r4
1000c578:	01000434 	movhi	r4,16
1000c57c:	213fffc4 	addi	r4,r4,-1
1000c580:	2908703a 	and	r4,r5,r4
1000c584:	003fad06 	br	1000c43c <__alt_data_end+0xf800c43c>
1000c588:	8089c83a 	sub	r4,r16,r2
1000c58c:	01006a0e 	bge	zero,r4,1000c738 <__adddf3+0x3d8>
1000c590:	10003326 	beq	r2,zero,1000c660 <__adddf3+0x300>
1000c594:	0081ffc4 	movi	r2,2047
1000c598:	80bf9026 	beq	r16,r2,1000c3dc <__alt_data_end+0xf800c3dc>
1000c59c:	42002034 	orhi	r8,r8,128
1000c5a0:	00800e04 	movi	r2,56
1000c5a4:	1100b116 	blt	r2,r4,1000c86c <__adddf3+0x50c>
1000c5a8:	008007c4 	movi	r2,31
1000c5ac:	1100e216 	blt	r2,r4,1000c938 <__adddf3+0x5d8>
1000c5b0:	00800804 	movi	r2,32
1000c5b4:	1105c83a 	sub	r2,r2,r4
1000c5b8:	4092983a 	sll	r9,r8,r2
1000c5bc:	310ed83a 	srl	r7,r6,r4
1000c5c0:	3084983a 	sll	r2,r6,r2
1000c5c4:	4110d83a 	srl	r8,r8,r4
1000c5c8:	49ccb03a 	or	r6,r9,r7
1000c5cc:	1004c03a 	cmpne	r2,r2,zero
1000c5d0:	308cb03a 	or	r6,r6,r2
1000c5d4:	344d883a 	add	r6,r6,r17
1000c5d8:	3463803a 	cmpltu	r17,r6,r17
1000c5dc:	414b883a 	add	r5,r8,r5
1000c5e0:	2c4b883a 	add	r5,r5,r17
1000c5e4:	3023883a 	mov	r17,r6
1000c5e8:	2880202c 	andhi	r2,r5,128
1000c5ec:	10002726 	beq	r2,zero,1000c68c <__adddf3+0x32c>
1000c5f0:	84000044 	addi	r16,r16,1
1000c5f4:	0081ffc4 	movi	r2,2047
1000c5f8:	8080ae26 	beq	r16,r2,1000c8b4 <__adddf3+0x554>
1000c5fc:	00bfe034 	movhi	r2,65408
1000c600:	10bfffc4 	addi	r2,r2,-1
1000c604:	288a703a 	and	r5,r5,r2
1000c608:	880cd07a 	srli	r6,r17,1
1000c60c:	280897fa 	slli	r4,r5,31
1000c610:	88c0004c 	andi	r3,r17,1
1000c614:	30e2b03a 	or	r17,r6,r3
1000c618:	280ad07a 	srli	r5,r5,1
1000c61c:	8922b03a 	or	r17,r17,r4
1000c620:	003f6e06 	br	1000c3dc <__alt_data_end+0xf800c3dc>
1000c624:	1148b03a 	or	r4,r2,r5
1000c628:	20003c26 	beq	r4,zero,1000c71c <__adddf3+0x3bc>
1000c62c:	29000234 	orhi	r4,r5,8
1000c630:	01400434 	movhi	r5,16
1000c634:	297fffc4 	addi	r5,r5,-1
1000c638:	2148703a 	and	r4,r4,r5
1000c63c:	003f7f06 	br	1000c43c <__alt_data_end+0xf800c43c>
1000c640:	18ffffc4 	addi	r3,r3,-1
1000c644:	18004d1e 	bne	r3,zero,1000c77c <__adddf3+0x41c>
1000c648:	898dc83a 	sub	r6,r17,r6
1000c64c:	89a3803a 	cmpltu	r17,r17,r6
1000c650:	2a0bc83a 	sub	r5,r5,r8
1000c654:	2c4bc83a 	sub	r5,r5,r17
1000c658:	3023883a 	mov	r17,r6
1000c65c:	003f9c06 	br	1000c4d0 <__alt_data_end+0xf800c4d0>
1000c660:	4184b03a 	or	r2,r8,r6
1000c664:	103f5d26 	beq	r2,zero,1000c3dc <__alt_data_end+0xf800c3dc>
1000c668:	213fffc4 	addi	r4,r4,-1
1000c66c:	203fd926 	beq	r4,zero,1000c5d4 <__alt_data_end+0xf800c5d4>
1000c670:	0081ffc4 	movi	r2,2047
1000c674:	80bfca1e 	bne	r16,r2,1000c5a0 <__alt_data_end+0xf800c5a0>
1000c678:	003f5806 	br	1000c3dc <__alt_data_end+0xf800c3dc>
1000c67c:	10c8b03a 	or	r4,r2,r3
1000c680:	20008b26 	beq	r4,zero,1000c8b0 <__adddf3+0x550>
1000c684:	100b883a 	mov	r5,r2
1000c688:	1823883a 	mov	r17,r3
1000c68c:	888001cc 	andi	r2,r17,7
1000c690:	103f541e 	bne	r2,zero,1000c3e4 <__alt_data_end+0xf800c3e4>
1000c694:	9007883a 	mov	r3,r18
1000c698:	003fb006 	br	1000c55c <__alt_data_end+0xf800c55c>
1000c69c:	1800531e 	bne	r3,zero,1000c7ec <__adddf3+0x48c>
1000c6a0:	80800044 	addi	r2,r16,1
1000c6a4:	1081ffcc 	andi	r2,r2,2047
1000c6a8:	00c00044 	movi	r3,1
1000c6ac:	1880990e 	bge	r3,r2,1000c914 <__adddf3+0x5b4>
1000c6b0:	8985c83a 	sub	r2,r17,r6
1000c6b4:	8887803a 	cmpltu	r3,r17,r2
1000c6b8:	2a27c83a 	sub	r19,r5,r8
1000c6bc:	98e7c83a 	sub	r19,r19,r3
1000c6c0:	98c0202c 	andhi	r3,r19,128
1000c6c4:	18006226 	beq	r3,zero,1000c850 <__adddf3+0x4f0>
1000c6c8:	3463c83a 	sub	r17,r6,r17
1000c6cc:	4151c83a 	sub	r8,r8,r5
1000c6d0:	344d803a 	cmpltu	r6,r6,r17
1000c6d4:	41a7c83a 	sub	r19,r8,r6
1000c6d8:	3825883a 	mov	r18,r7
1000c6dc:	983f821e 	bne	r19,zero,1000c4e8 <__alt_data_end+0xf800c4e8>
1000c6e0:	8809883a 	mov	r4,r17
1000c6e4:	000eaf80 	call	1000eaf8 <__clzsi2>
1000c6e8:	10800804 	addi	r2,r2,32
1000c6ec:	10fffe04 	addi	r3,r2,-8
1000c6f0:	010007c4 	movi	r4,31
1000c6f4:	20ff810e 	bge	r4,r3,1000c4fc <__alt_data_end+0xf800c4fc>
1000c6f8:	14fff604 	addi	r19,r2,-40
1000c6fc:	8ce6983a 	sll	r19,r17,r19
1000c700:	0023883a 	mov	r17,zero
1000c704:	1c3f840e 	bge	r3,r16,1000c518 <__alt_data_end+0xf800c518>
1000c708:	017fe034 	movhi	r5,65408
1000c70c:	297fffc4 	addi	r5,r5,-1
1000c710:	80e1c83a 	sub	r16,r16,r3
1000c714:	994a703a 	and	r5,r19,r5
1000c718:	003f3006 	br	1000c3dc <__alt_data_end+0xf800c3dc>
1000c71c:	0009883a 	mov	r4,zero
1000c720:	0005883a 	mov	r2,zero
1000c724:	003f4506 	br	1000c43c <__alt_data_end+0xf800c43c>
1000c728:	418cb03a 	or	r6,r8,r6
1000c72c:	300cc03a 	cmpne	r6,r6,zero
1000c730:	0007883a 	mov	r3,zero
1000c734:	003f6106 	br	1000c4bc <__alt_data_end+0xf800c4bc>
1000c738:	2000921e 	bne	r4,zero,1000c984 <__adddf3+0x624>
1000c73c:	80800044 	addi	r2,r16,1
1000c740:	11c1ffcc 	andi	r7,r2,2047
1000c744:	01000044 	movi	r4,1
1000c748:	21c0610e 	bge	r4,r7,1000c8d0 <__adddf3+0x570>
1000c74c:	0101ffc4 	movi	r4,2047
1000c750:	1100a326 	beq	r2,r4,1000c9e0 <__adddf3+0x680>
1000c754:	344d883a 	add	r6,r6,r17
1000c758:	3463803a 	cmpltu	r17,r6,r17
1000c75c:	414b883a 	add	r5,r8,r5
1000c760:	2c4b883a 	add	r5,r5,r17
1000c764:	282297fa 	slli	r17,r5,31
1000c768:	300cd07a 	srli	r6,r6,1
1000c76c:	280ad07a 	srli	r5,r5,1
1000c770:	1021883a 	mov	r16,r2
1000c774:	89a2b03a 	or	r17,r17,r6
1000c778:	003f1806 	br	1000c3dc <__alt_data_end+0xf800c3dc>
1000c77c:	0081ffc4 	movi	r2,2047
1000c780:	80bf411e 	bne	r16,r2,1000c488 <__alt_data_end+0xf800c488>
1000c784:	003f1506 	br	1000c3dc <__alt_data_end+0xf800c3dc>
1000c788:	80bff844 	addi	r2,r16,-31
1000c78c:	00c00804 	movi	r3,32
1000c790:	9884d83a 	srl	r2,r19,r2
1000c794:	28c04a26 	beq	r5,r3,1000c8c0 <__adddf3+0x560>
1000c798:	00c00fc4 	movi	r3,63
1000c79c:	1c21c83a 	sub	r16,r3,r16
1000c7a0:	9c26983a 	sll	r19,r19,r16
1000c7a4:	9c62b03a 	or	r17,r19,r17
1000c7a8:	8822c03a 	cmpne	r17,r17,zero
1000c7ac:	88a2b03a 	or	r17,r17,r2
1000c7b0:	000b883a 	mov	r5,zero
1000c7b4:	0021883a 	mov	r16,zero
1000c7b8:	003fb406 	br	1000c68c <__alt_data_end+0xf800c68c>
1000c7bc:	18bff804 	addi	r2,r3,-32
1000c7c0:	01000804 	movi	r4,32
1000c7c4:	4084d83a 	srl	r2,r8,r2
1000c7c8:	19003f26 	beq	r3,r4,1000c8c8 <__adddf3+0x568>
1000c7cc:	01001004 	movi	r4,64
1000c7d0:	20c7c83a 	sub	r3,r4,r3
1000c7d4:	40d0983a 	sll	r8,r8,r3
1000c7d8:	418cb03a 	or	r6,r8,r6
1000c7dc:	300cc03a 	cmpne	r6,r6,zero
1000c7e0:	308cb03a 	or	r6,r6,r2
1000c7e4:	0007883a 	mov	r3,zero
1000c7e8:	003f3406 	br	1000c4bc <__alt_data_end+0xf800c4bc>
1000c7ec:	80002326 	beq	r16,zero,1000c87c <__adddf3+0x51c>
1000c7f0:	0101ffc4 	movi	r4,2047
1000c7f4:	11005e26 	beq	r2,r4,1000c970 <__adddf3+0x610>
1000c7f8:	00c7c83a 	sub	r3,zero,r3
1000c7fc:	29402034 	orhi	r5,r5,128
1000c800:	01000e04 	movi	r4,56
1000c804:	20c07216 	blt	r4,r3,1000c9d0 <__adddf3+0x670>
1000c808:	010007c4 	movi	r4,31
1000c80c:	20c0ce16 	blt	r4,r3,1000cb48 <__adddf3+0x7e8>
1000c810:	01000804 	movi	r4,32
1000c814:	20c9c83a 	sub	r4,r4,r3
1000c818:	2914983a 	sll	r10,r5,r4
1000c81c:	88d2d83a 	srl	r9,r17,r3
1000c820:	8908983a 	sll	r4,r17,r4
1000c824:	28c6d83a 	srl	r3,r5,r3
1000c828:	5262b03a 	or	r17,r10,r9
1000c82c:	2008c03a 	cmpne	r4,r4,zero
1000c830:	8922b03a 	or	r17,r17,r4
1000c834:	3463c83a 	sub	r17,r6,r17
1000c838:	40c7c83a 	sub	r3,r8,r3
1000c83c:	344d803a 	cmpltu	r6,r6,r17
1000c840:	198bc83a 	sub	r5,r3,r6
1000c844:	1021883a 	mov	r16,r2
1000c848:	3825883a 	mov	r18,r7
1000c84c:	003f2006 	br	1000c4d0 <__alt_data_end+0xf800c4d0>
1000c850:	9886b03a 	or	r3,r19,r2
1000c854:	1800141e 	bne	r3,zero,1000c8a8 <__adddf3+0x548>
1000c858:	0007883a 	mov	r3,zero
1000c85c:	000b883a 	mov	r5,zero
1000c860:	0023883a 	mov	r17,zero
1000c864:	0021883a 	mov	r16,zero
1000c868:	003f3c06 	br	1000c55c <__alt_data_end+0xf800c55c>
1000c86c:	418cb03a 	or	r6,r8,r6
1000c870:	300cc03a 	cmpne	r6,r6,zero
1000c874:	0011883a 	mov	r8,zero
1000c878:	003f5606 	br	1000c5d4 <__alt_data_end+0xf800c5d4>
1000c87c:	2c48b03a 	or	r4,r5,r17
1000c880:	20003b26 	beq	r4,zero,1000c970 <__adddf3+0x610>
1000c884:	00c6303a 	nor	r3,zero,r3
1000c888:	1800371e 	bne	r3,zero,1000c968 <__adddf3+0x608>
1000c88c:	3463c83a 	sub	r17,r6,r17
1000c890:	414bc83a 	sub	r5,r8,r5
1000c894:	344d803a 	cmpltu	r6,r6,r17
1000c898:	298bc83a 	sub	r5,r5,r6
1000c89c:	1021883a 	mov	r16,r2
1000c8a0:	3825883a 	mov	r18,r7
1000c8a4:	003f0a06 	br	1000c4d0 <__alt_data_end+0xf800c4d0>
1000c8a8:	1023883a 	mov	r17,r2
1000c8ac:	003f0d06 	br	1000c4e4 <__alt_data_end+0xf800c4e4>
1000c8b0:	0007883a 	mov	r3,zero
1000c8b4:	000b883a 	mov	r5,zero
1000c8b8:	0023883a 	mov	r17,zero
1000c8bc:	003f2706 	br	1000c55c <__alt_data_end+0xf800c55c>
1000c8c0:	0027883a 	mov	r19,zero
1000c8c4:	003fb706 	br	1000c7a4 <__alt_data_end+0xf800c7a4>
1000c8c8:	0011883a 	mov	r8,zero
1000c8cc:	003fc206 	br	1000c7d8 <__alt_data_end+0xf800c7d8>
1000c8d0:	2c44b03a 	or	r2,r5,r17
1000c8d4:	8000871e 	bne	r16,zero,1000caf4 <__adddf3+0x794>
1000c8d8:	1000b126 	beq	r2,zero,1000cba0 <__adddf3+0x840>
1000c8dc:	4184b03a 	or	r2,r8,r6
1000c8e0:	103ebe26 	beq	r2,zero,1000c3dc <__alt_data_end+0xf800c3dc>
1000c8e4:	3445883a 	add	r2,r6,r17
1000c8e8:	1463803a 	cmpltu	r17,r2,r17
1000c8ec:	414b883a 	add	r5,r8,r5
1000c8f0:	2c4b883a 	add	r5,r5,r17
1000c8f4:	28c0202c 	andhi	r3,r5,128
1000c8f8:	1023883a 	mov	r17,r2
1000c8fc:	183f6326 	beq	r3,zero,1000c68c <__alt_data_end+0xf800c68c>
1000c900:	00bfe034 	movhi	r2,65408
1000c904:	10bfffc4 	addi	r2,r2,-1
1000c908:	2021883a 	mov	r16,r4
1000c90c:	288a703a 	and	r5,r5,r2
1000c910:	003eb206 	br	1000c3dc <__alt_data_end+0xf800c3dc>
1000c914:	2c44b03a 	or	r2,r5,r17
1000c918:	8000251e 	bne	r16,zero,1000c9b0 <__adddf3+0x650>
1000c91c:	10004b1e 	bne	r2,zero,1000ca4c <__adddf3+0x6ec>
1000c920:	4184b03a 	or	r2,r8,r6
1000c924:	103fe226 	beq	r2,zero,1000c8b0 <__alt_data_end+0xf800c8b0>
1000c928:	400b883a 	mov	r5,r8
1000c92c:	3023883a 	mov	r17,r6
1000c930:	3825883a 	mov	r18,r7
1000c934:	003ea906 	br	1000c3dc <__alt_data_end+0xf800c3dc>
1000c938:	20bff804 	addi	r2,r4,-32
1000c93c:	01c00804 	movi	r7,32
1000c940:	4084d83a 	srl	r2,r8,r2
1000c944:	21c07e26 	beq	r4,r7,1000cb40 <__adddf3+0x7e0>
1000c948:	01c01004 	movi	r7,64
1000c94c:	3909c83a 	sub	r4,r7,r4
1000c950:	4110983a 	sll	r8,r8,r4
1000c954:	418cb03a 	or	r6,r8,r6
1000c958:	300cc03a 	cmpne	r6,r6,zero
1000c95c:	308cb03a 	or	r6,r6,r2
1000c960:	0011883a 	mov	r8,zero
1000c964:	003f1b06 	br	1000c5d4 <__alt_data_end+0xf800c5d4>
1000c968:	0101ffc4 	movi	r4,2047
1000c96c:	113fa41e 	bne	r2,r4,1000c800 <__alt_data_end+0xf800c800>
1000c970:	400b883a 	mov	r5,r8
1000c974:	3023883a 	mov	r17,r6
1000c978:	1021883a 	mov	r16,r2
1000c97c:	3825883a 	mov	r18,r7
1000c980:	003e9606 	br	1000c3dc <__alt_data_end+0xf800c3dc>
1000c984:	80001a1e 	bne	r16,zero,1000c9f0 <__adddf3+0x690>
1000c988:	2c4eb03a 	or	r7,r5,r17
1000c98c:	38005526 	beq	r7,zero,1000cae4 <__adddf3+0x784>
1000c990:	0108303a 	nor	r4,zero,r4
1000c994:	2000511e 	bne	r4,zero,1000cadc <__adddf3+0x77c>
1000c998:	89a3883a 	add	r17,r17,r6
1000c99c:	414b883a 	add	r5,r8,r5
1000c9a0:	898d803a 	cmpltu	r6,r17,r6
1000c9a4:	298b883a 	add	r5,r5,r6
1000c9a8:	1021883a 	mov	r16,r2
1000c9ac:	003f0e06 	br	1000c5e8 <__alt_data_end+0xf800c5e8>
1000c9b0:	1000341e 	bne	r2,zero,1000ca84 <__adddf3+0x724>
1000c9b4:	4184b03a 	or	r2,r8,r6
1000c9b8:	10006f26 	beq	r2,zero,1000cb78 <__adddf3+0x818>
1000c9bc:	400b883a 	mov	r5,r8
1000c9c0:	3023883a 	mov	r17,r6
1000c9c4:	3825883a 	mov	r18,r7
1000c9c8:	0401ffc4 	movi	r16,2047
1000c9cc:	003e8306 	br	1000c3dc <__alt_data_end+0xf800c3dc>
1000c9d0:	2c62b03a 	or	r17,r5,r17
1000c9d4:	8822c03a 	cmpne	r17,r17,zero
1000c9d8:	0007883a 	mov	r3,zero
1000c9dc:	003f9506 	br	1000c834 <__alt_data_end+0xf800c834>
1000c9e0:	1021883a 	mov	r16,r2
1000c9e4:	000b883a 	mov	r5,zero
1000c9e8:	0023883a 	mov	r17,zero
1000c9ec:	003edb06 	br	1000c55c <__alt_data_end+0xf800c55c>
1000c9f0:	01c1ffc4 	movi	r7,2047
1000c9f4:	11c03b26 	beq	r2,r7,1000cae4 <__adddf3+0x784>
1000c9f8:	0109c83a 	sub	r4,zero,r4
1000c9fc:	29402034 	orhi	r5,r5,128
1000ca00:	01c00e04 	movi	r7,56
1000ca04:	39006216 	blt	r7,r4,1000cb90 <__adddf3+0x830>
1000ca08:	01c007c4 	movi	r7,31
1000ca0c:	39006b16 	blt	r7,r4,1000cbbc <__adddf3+0x85c>
1000ca10:	01c00804 	movi	r7,32
1000ca14:	390fc83a 	sub	r7,r7,r4
1000ca18:	29d4983a 	sll	r10,r5,r7
1000ca1c:	8912d83a 	srl	r9,r17,r4
1000ca20:	89ce983a 	sll	r7,r17,r7
1000ca24:	2908d83a 	srl	r4,r5,r4
1000ca28:	5262b03a 	or	r17,r10,r9
1000ca2c:	380ac03a 	cmpne	r5,r7,zero
1000ca30:	8962b03a 	or	r17,r17,r5
1000ca34:	89a3883a 	add	r17,r17,r6
1000ca38:	2211883a 	add	r8,r4,r8
1000ca3c:	898d803a 	cmpltu	r6,r17,r6
1000ca40:	418b883a 	add	r5,r8,r6
1000ca44:	1021883a 	mov	r16,r2
1000ca48:	003ee706 	br	1000c5e8 <__alt_data_end+0xf800c5e8>
1000ca4c:	4184b03a 	or	r2,r8,r6
1000ca50:	103e6226 	beq	r2,zero,1000c3dc <__alt_data_end+0xf800c3dc>
1000ca54:	8987c83a 	sub	r3,r17,r6
1000ca58:	88c9803a 	cmpltu	r4,r17,r3
1000ca5c:	2a05c83a 	sub	r2,r5,r8
1000ca60:	1105c83a 	sub	r2,r2,r4
1000ca64:	1100202c 	andhi	r4,r2,128
1000ca68:	203f0426 	beq	r4,zero,1000c67c <__alt_data_end+0xf800c67c>
1000ca6c:	3463c83a 	sub	r17,r6,r17
1000ca70:	414bc83a 	sub	r5,r8,r5
1000ca74:	344d803a 	cmpltu	r6,r6,r17
1000ca78:	298bc83a 	sub	r5,r5,r6
1000ca7c:	3825883a 	mov	r18,r7
1000ca80:	003e5606 	br	1000c3dc <__alt_data_end+0xf800c3dc>
1000ca84:	4184b03a 	or	r2,r8,r6
1000ca88:	10002b26 	beq	r2,zero,1000cb38 <__adddf3+0x7d8>
1000ca8c:	2804d0fa 	srli	r2,r5,3
1000ca90:	8822d0fa 	srli	r17,r17,3
1000ca94:	280a977a 	slli	r5,r5,29
1000ca98:	10c0022c 	andhi	r3,r2,8
1000ca9c:	2c62b03a 	or	r17,r5,r17
1000caa0:	18000826 	beq	r3,zero,1000cac4 <__adddf3+0x764>
1000caa4:	4008d0fa 	srli	r4,r8,3
1000caa8:	20c0022c 	andhi	r3,r4,8
1000caac:	1800051e 	bne	r3,zero,1000cac4 <__adddf3+0x764>
1000cab0:	300cd0fa 	srli	r6,r6,3
1000cab4:	4010977a 	slli	r8,r8,29
1000cab8:	2005883a 	mov	r2,r4
1000cabc:	3825883a 	mov	r18,r7
1000cac0:	41a2b03a 	or	r17,r8,r6
1000cac4:	880ad77a 	srli	r5,r17,29
1000cac8:	100490fa 	slli	r2,r2,3
1000cacc:	882290fa 	slli	r17,r17,3
1000cad0:	0401ffc4 	movi	r16,2047
1000cad4:	288ab03a 	or	r5,r5,r2
1000cad8:	003e4006 	br	1000c3dc <__alt_data_end+0xf800c3dc>
1000cadc:	01c1ffc4 	movi	r7,2047
1000cae0:	11ffc71e 	bne	r2,r7,1000ca00 <__alt_data_end+0xf800ca00>
1000cae4:	400b883a 	mov	r5,r8
1000cae8:	3023883a 	mov	r17,r6
1000caec:	1021883a 	mov	r16,r2
1000caf0:	003e3a06 	br	1000c3dc <__alt_data_end+0xf800c3dc>
1000caf4:	10002d26 	beq	r2,zero,1000cbac <__adddf3+0x84c>
1000caf8:	4184b03a 	or	r2,r8,r6
1000cafc:	10000e26 	beq	r2,zero,1000cb38 <__adddf3+0x7d8>
1000cb00:	2804d0fa 	srli	r2,r5,3
1000cb04:	8822d0fa 	srli	r17,r17,3
1000cb08:	280a977a 	slli	r5,r5,29
1000cb0c:	10c0022c 	andhi	r3,r2,8
1000cb10:	2c62b03a 	or	r17,r5,r17
1000cb14:	183feb26 	beq	r3,zero,1000cac4 <__alt_data_end+0xf800cac4>
1000cb18:	4008d0fa 	srli	r4,r8,3
1000cb1c:	20c0022c 	andhi	r3,r4,8
1000cb20:	183fe81e 	bne	r3,zero,1000cac4 <__alt_data_end+0xf800cac4>
1000cb24:	300cd0fa 	srli	r6,r6,3
1000cb28:	4010977a 	slli	r8,r8,29
1000cb2c:	2005883a 	mov	r2,r4
1000cb30:	41a2b03a 	or	r17,r8,r6
1000cb34:	003fe306 	br	1000cac4 <__alt_data_end+0xf800cac4>
1000cb38:	0401ffc4 	movi	r16,2047
1000cb3c:	003e2706 	br	1000c3dc <__alt_data_end+0xf800c3dc>
1000cb40:	0011883a 	mov	r8,zero
1000cb44:	003f8306 	br	1000c954 <__alt_data_end+0xf800c954>
1000cb48:	193ff804 	addi	r4,r3,-32
1000cb4c:	02400804 	movi	r9,32
1000cb50:	2908d83a 	srl	r4,r5,r4
1000cb54:	1a402526 	beq	r3,r9,1000cbec <__adddf3+0x88c>
1000cb58:	02401004 	movi	r9,64
1000cb5c:	48c7c83a 	sub	r3,r9,r3
1000cb60:	28ca983a 	sll	r5,r5,r3
1000cb64:	2c62b03a 	or	r17,r5,r17
1000cb68:	8822c03a 	cmpne	r17,r17,zero
1000cb6c:	8922b03a 	or	r17,r17,r4
1000cb70:	0007883a 	mov	r3,zero
1000cb74:	003f2f06 	br	1000c834 <__alt_data_end+0xf800c834>
1000cb78:	01402034 	movhi	r5,128
1000cb7c:	0007883a 	mov	r3,zero
1000cb80:	297fffc4 	addi	r5,r5,-1
1000cb84:	047ffe04 	movi	r17,-8
1000cb88:	0401ffc4 	movi	r16,2047
1000cb8c:	003e7306 	br	1000c55c <__alt_data_end+0xf800c55c>
1000cb90:	2c62b03a 	or	r17,r5,r17
1000cb94:	8822c03a 	cmpne	r17,r17,zero
1000cb98:	0009883a 	mov	r4,zero
1000cb9c:	003fa506 	br	1000ca34 <__alt_data_end+0xf800ca34>
1000cba0:	400b883a 	mov	r5,r8
1000cba4:	3023883a 	mov	r17,r6
1000cba8:	003e0c06 	br	1000c3dc <__alt_data_end+0xf800c3dc>
1000cbac:	400b883a 	mov	r5,r8
1000cbb0:	3023883a 	mov	r17,r6
1000cbb4:	0401ffc4 	movi	r16,2047
1000cbb8:	003e0806 	br	1000c3dc <__alt_data_end+0xf800c3dc>
1000cbbc:	21fff804 	addi	r7,r4,-32
1000cbc0:	02400804 	movi	r9,32
1000cbc4:	29ced83a 	srl	r7,r5,r7
1000cbc8:	22400a26 	beq	r4,r9,1000cbf4 <__adddf3+0x894>
1000cbcc:	02401004 	movi	r9,64
1000cbd0:	4909c83a 	sub	r4,r9,r4
1000cbd4:	290a983a 	sll	r5,r5,r4
1000cbd8:	2c62b03a 	or	r17,r5,r17
1000cbdc:	8822c03a 	cmpne	r17,r17,zero
1000cbe0:	89e2b03a 	or	r17,r17,r7
1000cbe4:	0009883a 	mov	r4,zero
1000cbe8:	003f9206 	br	1000ca34 <__alt_data_end+0xf800ca34>
1000cbec:	000b883a 	mov	r5,zero
1000cbf0:	003fdc06 	br	1000cb64 <__alt_data_end+0xf800cb64>
1000cbf4:	000b883a 	mov	r5,zero
1000cbf8:	003ff706 	br	1000cbd8 <__alt_data_end+0xf800cbd8>

1000cbfc <__divdf3>:
1000cbfc:	defff004 	addi	sp,sp,-64
1000cc00:	dc800815 	stw	r18,32(sp)
1000cc04:	2824d53a 	srli	r18,r5,20
1000cc08:	dd800c15 	stw	r22,48(sp)
1000cc0c:	282cd7fa 	srli	r22,r5,31
1000cc10:	dc000615 	stw	r16,24(sp)
1000cc14:	04000434 	movhi	r16,16
1000cc18:	df000e15 	stw	fp,56(sp)
1000cc1c:	dd000a15 	stw	r20,40(sp)
1000cc20:	dcc00915 	stw	r19,36(sp)
1000cc24:	dc400715 	stw	r17,28(sp)
1000cc28:	843fffc4 	addi	r16,r16,-1
1000cc2c:	dfc00f15 	stw	ra,60(sp)
1000cc30:	ddc00d15 	stw	r23,52(sp)
1000cc34:	dd400b15 	stw	r21,44(sp)
1000cc38:	9481ffcc 	andi	r18,r18,2047
1000cc3c:	2029883a 	mov	r20,r4
1000cc40:	2027883a 	mov	r19,r4
1000cc44:	2c22703a 	and	r17,r5,r16
1000cc48:	b7003fcc 	andi	fp,r22,255
1000cc4c:	90005e26 	beq	r18,zero,1000cdc8 <__divdf3+0x1cc>
1000cc50:	0081ffc4 	movi	r2,2047
1000cc54:	90803526 	beq	r18,r2,1000cd2c <__divdf3+0x130>
1000cc58:	8c000434 	orhi	r16,r17,16
1000cc5c:	2004d77a 	srli	r2,r4,29
1000cc60:	802090fa 	slli	r16,r16,3
1000cc64:	202690fa 	slli	r19,r4,3
1000cc68:	94bf0044 	addi	r18,r18,-1023
1000cc6c:	80a2b03a 	or	r17,r16,r2
1000cc70:	0029883a 	mov	r20,zero
1000cc74:	0011883a 	mov	r8,zero
1000cc78:	380ad53a 	srli	r5,r7,20
1000cc7c:	382ed7fa 	srli	r23,r7,31
1000cc80:	04000434 	movhi	r16,16
1000cc84:	843fffc4 	addi	r16,r16,-1
1000cc88:	2941ffcc 	andi	r5,r5,2047
1000cc8c:	302b883a 	mov	r21,r6
1000cc90:	3c20703a 	and	r16,r7,r16
1000cc94:	ba403fcc 	andi	r9,r23,255
1000cc98:	28006726 	beq	r5,zero,1000ce38 <__divdf3+0x23c>
1000cc9c:	0081ffc4 	movi	r2,2047
1000cca0:	28805f26 	beq	r5,r2,1000ce20 <__divdf3+0x224>
1000cca4:	84000434 	orhi	r16,r16,16
1000cca8:	3004d77a 	srli	r2,r6,29
1000ccac:	802090fa 	slli	r16,r16,3
1000ccb0:	302a90fa 	slli	r21,r6,3
1000ccb4:	297f0044 	addi	r5,r5,-1023
1000ccb8:	80a0b03a 	or	r16,r16,r2
1000ccbc:	000f883a 	mov	r7,zero
1000ccc0:	3d06b03a 	or	r3,r7,r20
1000ccc4:	180690ba 	slli	r3,r3,2
1000ccc8:	00840074 	movhi	r2,4097
1000cccc:	10b33b04 	addi	r2,r2,-13076
1000ccd0:	1885883a 	add	r2,r3,r2
1000ccd4:	10800017 	ldw	r2,0(r2)
1000ccd8:	b5c8f03a 	xor	r4,r22,r23
1000ccdc:	200d883a 	mov	r6,r4
1000cce0:	25003fcc 	andi	r20,r4,255
1000cce4:	9165c83a 	sub	r18,r18,r5
1000cce8:	1000683a 	jmp	r2
1000ccec:	1000cf34 	orhi	zero,r2,828
1000ccf0:	1000cd64 	muli	zero,r2,821
1000ccf4:	1000cef8 	rdprs	zero,r2,827
1000ccf8:	1000cd48 	cmpgei	zero,r2,821
1000ccfc:	1000cef8 	rdprs	zero,r2,827
1000cd00:	1000cecc 	andi	zero,r2,827
1000cd04:	1000cef8 	rdprs	zero,r2,827
1000cd08:	1000cd48 	cmpgei	zero,r2,821
1000cd0c:	1000cd64 	muli	zero,r2,821
1000cd10:	1000cd64 	muli	zero,r2,821
1000cd14:	1000cecc 	andi	zero,r2,827
1000cd18:	1000cd48 	cmpgei	zero,r2,821
1000cd1c:	1000cd58 	cmpnei	zero,r2,821
1000cd20:	1000cd58 	cmpnei	zero,r2,821
1000cd24:	1000cd58 	cmpnei	zero,r2,821
1000cd28:	1000cf08 	cmpgei	zero,r2,828
1000cd2c:	8904b03a 	or	r2,r17,r4
1000cd30:	1000631e 	bne	r2,zero,1000cec0 <__divdf3+0x2c4>
1000cd34:	05000204 	movi	r20,8
1000cd38:	0023883a 	mov	r17,zero
1000cd3c:	0027883a 	mov	r19,zero
1000cd40:	02000084 	movi	r8,2
1000cd44:	003fcc06 	br	1000cc78 <__alt_data_end+0xf800cc78>
1000cd48:	8023883a 	mov	r17,r16
1000cd4c:	a827883a 	mov	r19,r21
1000cd50:	4839883a 	mov	fp,r9
1000cd54:	3811883a 	mov	r8,r7
1000cd58:	00800084 	movi	r2,2
1000cd5c:	4081531e 	bne	r8,r2,1000d2ac <__divdf3+0x6b0>
1000cd60:	e029883a 	mov	r20,fp
1000cd64:	a180004c 	andi	r6,r20,1
1000cd68:	0201ffc4 	movi	r8,2047
1000cd6c:	000b883a 	mov	r5,zero
1000cd70:	0027883a 	mov	r19,zero
1000cd74:	4010953a 	slli	r8,r8,20
1000cd78:	30c03fcc 	andi	r3,r6,255
1000cd7c:	04000434 	movhi	r16,16
1000cd80:	180697fa 	slli	r3,r3,31
1000cd84:	843fffc4 	addi	r16,r16,-1
1000cd88:	2c20703a 	and	r16,r5,r16
1000cd8c:	8220b03a 	or	r16,r16,r8
1000cd90:	80c6b03a 	or	r3,r16,r3
1000cd94:	9805883a 	mov	r2,r19
1000cd98:	dfc00f17 	ldw	ra,60(sp)
1000cd9c:	df000e17 	ldw	fp,56(sp)
1000cda0:	ddc00d17 	ldw	r23,52(sp)
1000cda4:	dd800c17 	ldw	r22,48(sp)
1000cda8:	dd400b17 	ldw	r21,44(sp)
1000cdac:	dd000a17 	ldw	r20,40(sp)
1000cdb0:	dcc00917 	ldw	r19,36(sp)
1000cdb4:	dc800817 	ldw	r18,32(sp)
1000cdb8:	dc400717 	ldw	r17,28(sp)
1000cdbc:	dc000617 	ldw	r16,24(sp)
1000cdc0:	dec01004 	addi	sp,sp,64
1000cdc4:	f800283a 	ret
1000cdc8:	8904b03a 	or	r2,r17,r4
1000cdcc:	10003726 	beq	r2,zero,1000ceac <__divdf3+0x2b0>
1000cdd0:	88014d26 	beq	r17,zero,1000d308 <__divdf3+0x70c>
1000cdd4:	8809883a 	mov	r4,r17
1000cdd8:	d9800215 	stw	r6,8(sp)
1000cddc:	d9c00515 	stw	r7,20(sp)
1000cde0:	000eaf80 	call	1000eaf8 <__clzsi2>
1000cde4:	d9800217 	ldw	r6,8(sp)
1000cde8:	d9c00517 	ldw	r7,20(sp)
1000cdec:	1007883a 	mov	r3,r2
1000cdf0:	01000a04 	movi	r4,40
1000cdf4:	1cfffe04 	addi	r19,r3,-8
1000cdf8:	20c9c83a 	sub	r4,r4,r3
1000cdfc:	8cca983a 	sll	r5,r17,r19
1000ce00:	a108d83a 	srl	r4,r20,r4
1000ce04:	a4e6983a 	sll	r19,r20,r19
1000ce08:	2162b03a 	or	r17,r4,r5
1000ce0c:	04bf0344 	movi	r18,-1011
1000ce10:	90e5c83a 	sub	r18,r18,r3
1000ce14:	0029883a 	mov	r20,zero
1000ce18:	0011883a 	mov	r8,zero
1000ce1c:	003f9606 	br	1000cc78 <__alt_data_end+0xf800cc78>
1000ce20:	8184b03a 	or	r2,r16,r6
1000ce24:	10001f1e 	bne	r2,zero,1000cea4 <__divdf3+0x2a8>
1000ce28:	0021883a 	mov	r16,zero
1000ce2c:	002b883a 	mov	r21,zero
1000ce30:	01c00084 	movi	r7,2
1000ce34:	003fa206 	br	1000ccc0 <__alt_data_end+0xf800ccc0>
1000ce38:	8184b03a 	or	r2,r16,r6
1000ce3c:	10001526 	beq	r2,zero,1000ce94 <__divdf3+0x298>
1000ce40:	80013d26 	beq	r16,zero,1000d338 <__divdf3+0x73c>
1000ce44:	8009883a 	mov	r4,r16
1000ce48:	d9800215 	stw	r6,8(sp)
1000ce4c:	da000315 	stw	r8,12(sp)
1000ce50:	da400415 	stw	r9,16(sp)
1000ce54:	000eaf80 	call	1000eaf8 <__clzsi2>
1000ce58:	d9800217 	ldw	r6,8(sp)
1000ce5c:	da000317 	ldw	r8,12(sp)
1000ce60:	da400417 	ldw	r9,16(sp)
1000ce64:	1007883a 	mov	r3,r2
1000ce68:	01000a04 	movi	r4,40
1000ce6c:	1d7ffe04 	addi	r21,r3,-8
1000ce70:	20c9c83a 	sub	r4,r4,r3
1000ce74:	8560983a 	sll	r16,r16,r21
1000ce78:	3108d83a 	srl	r4,r6,r4
1000ce7c:	356a983a 	sll	r21,r6,r21
1000ce80:	2420b03a 	or	r16,r4,r16
1000ce84:	017f0344 	movi	r5,-1011
1000ce88:	28cbc83a 	sub	r5,r5,r3
1000ce8c:	000f883a 	mov	r7,zero
1000ce90:	003f8b06 	br	1000ccc0 <__alt_data_end+0xf800ccc0>
1000ce94:	0021883a 	mov	r16,zero
1000ce98:	002b883a 	mov	r21,zero
1000ce9c:	01c00044 	movi	r7,1
1000cea0:	003f8706 	br	1000ccc0 <__alt_data_end+0xf800ccc0>
1000cea4:	01c000c4 	movi	r7,3
1000cea8:	003f8506 	br	1000ccc0 <__alt_data_end+0xf800ccc0>
1000ceac:	05000104 	movi	r20,4
1000ceb0:	0023883a 	mov	r17,zero
1000ceb4:	0027883a 	mov	r19,zero
1000ceb8:	02000044 	movi	r8,1
1000cebc:	003f6e06 	br	1000cc78 <__alt_data_end+0xf800cc78>
1000cec0:	05000304 	movi	r20,12
1000cec4:	020000c4 	movi	r8,3
1000cec8:	003f6b06 	br	1000cc78 <__alt_data_end+0xf800cc78>
1000cecc:	01400434 	movhi	r5,16
1000ced0:	000d883a 	mov	r6,zero
1000ced4:	297fffc4 	addi	r5,r5,-1
1000ced8:	04ffffc4 	movi	r19,-1
1000cedc:	0201ffc4 	movi	r8,2047
1000cee0:	003fa406 	br	1000cd74 <__alt_data_end+0xf800cd74>
1000cee4:	043f0084 	movi	r16,-1022
1000cee8:	84a1c83a 	sub	r16,r16,r18
1000ceec:	00800e04 	movi	r2,56
1000cef0:	14014d0e 	bge	r2,r16,1000d428 <__divdf3+0x82c>
1000cef4:	a180004c 	andi	r6,r20,1
1000cef8:	0011883a 	mov	r8,zero
1000cefc:	000b883a 	mov	r5,zero
1000cf00:	0027883a 	mov	r19,zero
1000cf04:	003f9b06 	br	1000cd74 <__alt_data_end+0xf800cd74>
1000cf08:	8880022c 	andhi	r2,r17,8
1000cf0c:	1000f026 	beq	r2,zero,1000d2d0 <__divdf3+0x6d4>
1000cf10:	8080022c 	andhi	r2,r16,8
1000cf14:	1000ee1e 	bne	r2,zero,1000d2d0 <__divdf3+0x6d4>
1000cf18:	00800434 	movhi	r2,16
1000cf1c:	81400234 	orhi	r5,r16,8
1000cf20:	10bfffc4 	addi	r2,r2,-1
1000cf24:	b80d883a 	mov	r6,r23
1000cf28:	288a703a 	and	r5,r5,r2
1000cf2c:	a827883a 	mov	r19,r21
1000cf30:	003fea06 	br	1000cedc <__alt_data_end+0xf800cedc>
1000cf34:	84411c36 	bltu	r16,r17,1000d3a8 <__divdf3+0x7ac>
1000cf38:	8c011a26 	beq	r17,r16,1000d3a4 <__divdf3+0x7a8>
1000cf3c:	94bfffc4 	addi	r18,r18,-1
1000cf40:	dcc00015 	stw	r19,0(sp)
1000cf44:	8811883a 	mov	r8,r17
1000cf48:	002d883a 	mov	r22,zero
1000cf4c:	a80cd63a 	srli	r6,r21,24
1000cf50:	8020923a 	slli	r16,r16,8
1000cf54:	a82a923a 	slli	r21,r21,8
1000cf58:	4009883a 	mov	r4,r8
1000cf5c:	342eb03a 	or	r23,r6,r16
1000cf60:	dd400115 	stw	r21,4(sp)
1000cf64:	b82ad43a 	srli	r21,r23,16
1000cf68:	da000315 	stw	r8,12(sp)
1000cf6c:	bcffffcc 	andi	r19,r23,65535
1000cf70:	a80b883a 	mov	r5,r21
1000cf74:	000c3280 	call	1000c328 <__udivsi3>
1000cf78:	1009883a 	mov	r4,r2
1000cf7c:	980b883a 	mov	r5,r19
1000cf80:	1023883a 	mov	r17,r2
1000cf84:	000c3380 	call	1000c338 <__mulsi3>
1000cf88:	da000317 	ldw	r8,12(sp)
1000cf8c:	a80b883a 	mov	r5,r21
1000cf90:	1039883a 	mov	fp,r2
1000cf94:	4009883a 	mov	r4,r8
1000cf98:	000c3300 	call	1000c330 <__umodsi3>
1000cf9c:	d8c00017 	ldw	r3,0(sp)
1000cfa0:	1004943a 	slli	r2,r2,16
1000cfa4:	1810d43a 	srli	r8,r3,16
1000cfa8:	120eb03a 	or	r7,r2,r8
1000cfac:	3f00062e 	bgeu	r7,fp,1000cfc8 <__divdf3+0x3cc>
1000cfb0:	3dcf883a 	add	r7,r7,r23
1000cfb4:	88bfffc4 	addi	r2,r17,-1
1000cfb8:	3dc10a36 	bltu	r7,r23,1000d3e4 <__divdf3+0x7e8>
1000cfbc:	3f01092e 	bgeu	r7,fp,1000d3e4 <__divdf3+0x7e8>
1000cfc0:	8c7fff84 	addi	r17,r17,-2
1000cfc4:	3dcf883a 	add	r7,r7,r23
1000cfc8:	3f39c83a 	sub	fp,r7,fp
1000cfcc:	e009883a 	mov	r4,fp
1000cfd0:	a80b883a 	mov	r5,r21
1000cfd4:	000c3280 	call	1000c328 <__udivsi3>
1000cfd8:	1009883a 	mov	r4,r2
1000cfdc:	980b883a 	mov	r5,r19
1000cfe0:	1021883a 	mov	r16,r2
1000cfe4:	000c3380 	call	1000c338 <__mulsi3>
1000cfe8:	e009883a 	mov	r4,fp
1000cfec:	a80b883a 	mov	r5,r21
1000cff0:	d8800315 	stw	r2,12(sp)
1000cff4:	000c3300 	call	1000c330 <__umodsi3>
1000cff8:	d9000017 	ldw	r4,0(sp)
1000cffc:	1004943a 	slli	r2,r2,16
1000d000:	da000317 	ldw	r8,12(sp)
1000d004:	20ffffcc 	andi	r3,r4,65535
1000d008:	10ceb03a 	or	r7,r2,r3
1000d00c:	3a00062e 	bgeu	r7,r8,1000d028 <__divdf3+0x42c>
1000d010:	3dcf883a 	add	r7,r7,r23
1000d014:	80bfffc4 	addi	r2,r16,-1
1000d018:	3dc0f036 	bltu	r7,r23,1000d3dc <__divdf3+0x7e0>
1000d01c:	3a00ef2e 	bgeu	r7,r8,1000d3dc <__divdf3+0x7e0>
1000d020:	843fff84 	addi	r16,r16,-2
1000d024:	3dcf883a 	add	r7,r7,r23
1000d028:	d8c00117 	ldw	r3,4(sp)
1000d02c:	8822943a 	slli	r17,r17,16
1000d030:	3a0fc83a 	sub	r7,r7,r8
1000d034:	1806d43a 	srli	r3,r3,16
1000d038:	8462b03a 	or	r17,r16,r17
1000d03c:	8affffcc 	andi	r11,r17,65535
1000d040:	d8c00015 	stw	r3,0(sp)
1000d044:	d8c00117 	ldw	r3,4(sp)
1000d048:	8820d43a 	srli	r16,r17,16
1000d04c:	5809883a 	mov	r4,r11
1000d050:	1f3fffcc 	andi	fp,r3,65535
1000d054:	e00b883a 	mov	r5,fp
1000d058:	d9c00515 	stw	r7,20(sp)
1000d05c:	dac00215 	stw	r11,8(sp)
1000d060:	000c3380 	call	1000c338 <__mulsi3>
1000d064:	8009883a 	mov	r4,r16
1000d068:	e00b883a 	mov	r5,fp
1000d06c:	d8800415 	stw	r2,16(sp)
1000d070:	000c3380 	call	1000c338 <__mulsi3>
1000d074:	d9400017 	ldw	r5,0(sp)
1000d078:	8009883a 	mov	r4,r16
1000d07c:	d8800315 	stw	r2,12(sp)
1000d080:	000c3380 	call	1000c338 <__mulsi3>
1000d084:	dac00217 	ldw	r11,8(sp)
1000d088:	d9400017 	ldw	r5,0(sp)
1000d08c:	d8800215 	stw	r2,8(sp)
1000d090:	5809883a 	mov	r4,r11
1000d094:	000c3380 	call	1000c338 <__mulsi3>
1000d098:	da400417 	ldw	r9,16(sp)
1000d09c:	da800317 	ldw	r10,12(sp)
1000d0a0:	d9c00517 	ldw	r7,20(sp)
1000d0a4:	480ad43a 	srli	r5,r9,16
1000d0a8:	5085883a 	add	r2,r10,r2
1000d0ac:	db000217 	ldw	r12,8(sp)
1000d0b0:	1151883a 	add	r8,r2,r5
1000d0b4:	4280022e 	bgeu	r8,r10,1000d0c0 <__divdf3+0x4c4>
1000d0b8:	00800074 	movhi	r2,1
1000d0bc:	6099883a 	add	r12,r12,r2
1000d0c0:	400ad43a 	srli	r5,r8,16
1000d0c4:	4010943a 	slli	r8,r8,16
1000d0c8:	4c3fffcc 	andi	r16,r9,65535
1000d0cc:	6149883a 	add	r4,r12,r5
1000d0d0:	4411883a 	add	r8,r8,r16
1000d0d4:	3900a736 	bltu	r7,r4,1000d374 <__divdf3+0x778>
1000d0d8:	3900c426 	beq	r7,r4,1000d3ec <__divdf3+0x7f0>
1000d0dc:	3909c83a 	sub	r4,r7,r4
1000d0e0:	b221c83a 	sub	r16,r22,r8
1000d0e4:	b42d803a 	cmpltu	r22,r22,r16
1000d0e8:	25adc83a 	sub	r22,r4,r22
1000d0ec:	b5c0c626 	beq	r22,r23,1000d408 <__divdf3+0x80c>
1000d0f0:	b009883a 	mov	r4,r22
1000d0f4:	a80b883a 	mov	r5,r21
1000d0f8:	000c3280 	call	1000c328 <__udivsi3>
1000d0fc:	1009883a 	mov	r4,r2
1000d100:	980b883a 	mov	r5,r19
1000d104:	d8800315 	stw	r2,12(sp)
1000d108:	000c3380 	call	1000c338 <__mulsi3>
1000d10c:	a80b883a 	mov	r5,r21
1000d110:	b009883a 	mov	r4,r22
1000d114:	d8800415 	stw	r2,16(sp)
1000d118:	000c3300 	call	1000c330 <__umodsi3>
1000d11c:	1004943a 	slli	r2,r2,16
1000d120:	800ed43a 	srli	r7,r16,16
1000d124:	da400417 	ldw	r9,16(sp)
1000d128:	da000317 	ldw	r8,12(sp)
1000d12c:	11cab03a 	or	r5,r2,r7
1000d130:	2a40062e 	bgeu	r5,r9,1000d14c <__divdf3+0x550>
1000d134:	2dcb883a 	add	r5,r5,r23
1000d138:	40bfffc4 	addi	r2,r8,-1
1000d13c:	2dc0b436 	bltu	r5,r23,1000d410 <__divdf3+0x814>
1000d140:	2a40b32e 	bgeu	r5,r9,1000d410 <__divdf3+0x814>
1000d144:	423fff84 	addi	r8,r8,-2
1000d148:	2dcb883a 	add	r5,r5,r23
1000d14c:	2a6dc83a 	sub	r22,r5,r9
1000d150:	b009883a 	mov	r4,r22
1000d154:	a80b883a 	mov	r5,r21
1000d158:	da000315 	stw	r8,12(sp)
1000d15c:	000c3280 	call	1000c328 <__udivsi3>
1000d160:	980b883a 	mov	r5,r19
1000d164:	1009883a 	mov	r4,r2
1000d168:	d8800415 	stw	r2,16(sp)
1000d16c:	000c3380 	call	1000c338 <__mulsi3>
1000d170:	b009883a 	mov	r4,r22
1000d174:	a80b883a 	mov	r5,r21
1000d178:	1027883a 	mov	r19,r2
1000d17c:	000c3300 	call	1000c330 <__umodsi3>
1000d180:	1004943a 	slli	r2,r2,16
1000d184:	843fffcc 	andi	r16,r16,65535
1000d188:	da000317 	ldw	r8,12(sp)
1000d18c:	140eb03a 	or	r7,r2,r16
1000d190:	da400417 	ldw	r9,16(sp)
1000d194:	3cc0062e 	bgeu	r7,r19,1000d1b0 <__divdf3+0x5b4>
1000d198:	3dcf883a 	add	r7,r7,r23
1000d19c:	48bfffc4 	addi	r2,r9,-1
1000d1a0:	3dc09d36 	bltu	r7,r23,1000d418 <__divdf3+0x81c>
1000d1a4:	3cc09c2e 	bgeu	r7,r19,1000d418 <__divdf3+0x81c>
1000d1a8:	4a7fff84 	addi	r9,r9,-2
1000d1ac:	3dcf883a 	add	r7,r7,r23
1000d1b0:	4010943a 	slli	r8,r8,16
1000d1b4:	3cebc83a 	sub	r21,r7,r19
1000d1b8:	e00b883a 	mov	r5,fp
1000d1bc:	4a26b03a 	or	r19,r9,r8
1000d1c0:	99ffffcc 	andi	r7,r19,65535
1000d1c4:	9820d43a 	srli	r16,r19,16
1000d1c8:	3809883a 	mov	r4,r7
1000d1cc:	d9c00515 	stw	r7,20(sp)
1000d1d0:	000c3380 	call	1000c338 <__mulsi3>
1000d1d4:	8009883a 	mov	r4,r16
1000d1d8:	e00b883a 	mov	r5,fp
1000d1dc:	102d883a 	mov	r22,r2
1000d1e0:	000c3380 	call	1000c338 <__mulsi3>
1000d1e4:	d9400017 	ldw	r5,0(sp)
1000d1e8:	8009883a 	mov	r4,r16
1000d1ec:	1039883a 	mov	fp,r2
1000d1f0:	000c3380 	call	1000c338 <__mulsi3>
1000d1f4:	d9c00517 	ldw	r7,20(sp)
1000d1f8:	d9400017 	ldw	r5,0(sp)
1000d1fc:	1021883a 	mov	r16,r2
1000d200:	3809883a 	mov	r4,r7
1000d204:	000c3380 	call	1000c338 <__mulsi3>
1000d208:	b008d43a 	srli	r4,r22,16
1000d20c:	e085883a 	add	r2,fp,r2
1000d210:	1109883a 	add	r4,r2,r4
1000d214:	2700022e 	bgeu	r4,fp,1000d220 <__divdf3+0x624>
1000d218:	00800074 	movhi	r2,1
1000d21c:	80a1883a 	add	r16,r16,r2
1000d220:	200ad43a 	srli	r5,r4,16
1000d224:	2008943a 	slli	r4,r4,16
1000d228:	b5bfffcc 	andi	r22,r22,65535
1000d22c:	8145883a 	add	r2,r16,r5
1000d230:	2589883a 	add	r4,r4,r22
1000d234:	a8802c36 	bltu	r21,r2,1000d2e8 <__divdf3+0x6ec>
1000d238:	a880a426 	beq	r21,r2,1000d4cc <__divdf3+0x8d0>
1000d23c:	9cc00054 	ori	r19,r19,1
1000d240:	9200ffc4 	addi	r8,r18,1023
1000d244:	023f270e 	bge	zero,r8,1000cee4 <__alt_data_end+0xf800cee4>
1000d248:	988001cc 	andi	r2,r19,7
1000d24c:	10000726 	beq	r2,zero,1000d26c <__divdf3+0x670>
1000d250:	990003cc 	andi	r4,r19,15
1000d254:	00800104 	movi	r2,4
1000d258:	20800426 	beq	r4,r2,1000d26c <__divdf3+0x670>
1000d25c:	9885883a 	add	r2,r19,r2
1000d260:	14e7803a 	cmpltu	r19,r2,r19
1000d264:	8ce3883a 	add	r17,r17,r19
1000d268:	1027883a 	mov	r19,r2
1000d26c:	8880402c 	andhi	r2,r17,256
1000d270:	10000426 	beq	r2,zero,1000d284 <__divdf3+0x688>
1000d274:	00bfc034 	movhi	r2,65280
1000d278:	10bfffc4 	addi	r2,r2,-1
1000d27c:	92010004 	addi	r8,r18,1024
1000d280:	88a2703a 	and	r17,r17,r2
1000d284:	0081ff84 	movi	r2,2046
1000d288:	123eb616 	blt	r2,r8,1000cd64 <__alt_data_end+0xf800cd64>
1000d28c:	9826d0fa 	srli	r19,r19,3
1000d290:	8804977a 	slli	r2,r17,29
1000d294:	8820927a 	slli	r16,r17,9
1000d298:	4201ffcc 	andi	r8,r8,2047
1000d29c:	14e6b03a 	or	r19,r2,r19
1000d2a0:	800ad33a 	srli	r5,r16,12
1000d2a4:	a180004c 	andi	r6,r20,1
1000d2a8:	003eb206 	br	1000cd74 <__alt_data_end+0xf800cd74>
1000d2ac:	008000c4 	movi	r2,3
1000d2b0:	4080ac26 	beq	r8,r2,1000d564 <__divdf3+0x968>
1000d2b4:	00800044 	movi	r2,1
1000d2b8:	4080591e 	bne	r8,r2,1000d420 <__divdf3+0x824>
1000d2bc:	e00d883a 	mov	r6,fp
1000d2c0:	0011883a 	mov	r8,zero
1000d2c4:	000b883a 	mov	r5,zero
1000d2c8:	0027883a 	mov	r19,zero
1000d2cc:	003ea906 	br	1000cd74 <__alt_data_end+0xf800cd74>
1000d2d0:	00800434 	movhi	r2,16
1000d2d4:	89400234 	orhi	r5,r17,8
1000d2d8:	10bfffc4 	addi	r2,r2,-1
1000d2dc:	b00d883a 	mov	r6,r22
1000d2e0:	288a703a 	and	r5,r5,r2
1000d2e4:	003efd06 	br	1000cedc <__alt_data_end+0xf800cedc>
1000d2e8:	adcf883a 	add	r7,r21,r23
1000d2ec:	997fffc4 	addi	r5,r19,-1
1000d2f0:	3dc0412e 	bgeu	r7,r23,1000d3f8 <__divdf3+0x7fc>
1000d2f4:	2827883a 	mov	r19,r5
1000d2f8:	38bfd01e 	bne	r7,r2,1000d23c <__alt_data_end+0xf800d23c>
1000d2fc:	d8c00117 	ldw	r3,4(sp)
1000d300:	193fce1e 	bne	r3,r4,1000d23c <__alt_data_end+0xf800d23c>
1000d304:	003fce06 	br	1000d240 <__alt_data_end+0xf800d240>
1000d308:	d9800215 	stw	r6,8(sp)
1000d30c:	d9c00515 	stw	r7,20(sp)
1000d310:	000eaf80 	call	1000eaf8 <__clzsi2>
1000d314:	10c00804 	addi	r3,r2,32
1000d318:	010009c4 	movi	r4,39
1000d31c:	d9800217 	ldw	r6,8(sp)
1000d320:	d9c00517 	ldw	r7,20(sp)
1000d324:	20feb20e 	bge	r4,r3,1000cdf0 <__alt_data_end+0xf800cdf0>
1000d328:	117ffe04 	addi	r5,r2,-8
1000d32c:	a162983a 	sll	r17,r20,r5
1000d330:	0027883a 	mov	r19,zero
1000d334:	003eb506 	br	1000ce0c <__alt_data_end+0xf800ce0c>
1000d338:	3009883a 	mov	r4,r6
1000d33c:	d9800215 	stw	r6,8(sp)
1000d340:	da000315 	stw	r8,12(sp)
1000d344:	da400415 	stw	r9,16(sp)
1000d348:	000eaf80 	call	1000eaf8 <__clzsi2>
1000d34c:	10c00804 	addi	r3,r2,32
1000d350:	010009c4 	movi	r4,39
1000d354:	d9800217 	ldw	r6,8(sp)
1000d358:	da000317 	ldw	r8,12(sp)
1000d35c:	da400417 	ldw	r9,16(sp)
1000d360:	20fec10e 	bge	r4,r3,1000ce68 <__alt_data_end+0xf800ce68>
1000d364:	10bffe04 	addi	r2,r2,-8
1000d368:	a8a0983a 	sll	r16,r21,r2
1000d36c:	002b883a 	mov	r21,zero
1000d370:	003ec406 	br	1000ce84 <__alt_data_end+0xf800ce84>
1000d374:	d8c00117 	ldw	r3,4(sp)
1000d378:	b0ed883a 	add	r22,r22,r3
1000d37c:	b0c5803a 	cmpltu	r2,r22,r3
1000d380:	15c5883a 	add	r2,r2,r23
1000d384:	11cf883a 	add	r7,r2,r7
1000d388:	88bfffc4 	addi	r2,r17,-1
1000d38c:	b9c00d2e 	bgeu	r23,r7,1000d3c4 <__divdf3+0x7c8>
1000d390:	39003f36 	bltu	r7,r4,1000d490 <__divdf3+0x894>
1000d394:	21c06a26 	beq	r4,r7,1000d540 <__divdf3+0x944>
1000d398:	3909c83a 	sub	r4,r7,r4
1000d39c:	1023883a 	mov	r17,r2
1000d3a0:	003f4f06 	br	1000d0e0 <__alt_data_end+0xf800d0e0>
1000d3a4:	9d7ee536 	bltu	r19,r21,1000cf3c <__alt_data_end+0xf800cf3c>
1000d3a8:	982ed07a 	srli	r23,r19,1
1000d3ac:	880497fa 	slli	r2,r17,31
1000d3b0:	8810d07a 	srli	r8,r17,1
1000d3b4:	982c97fa 	slli	r22,r19,31
1000d3b8:	b884b03a 	or	r2,r23,r2
1000d3bc:	d8800015 	stw	r2,0(sp)
1000d3c0:	003ee206 	br	1000cf4c <__alt_data_end+0xf800cf4c>
1000d3c4:	3dfff41e 	bne	r7,r23,1000d398 <__alt_data_end+0xf800d398>
1000d3c8:	d8c00117 	ldw	r3,4(sp)
1000d3cc:	b0fff02e 	bgeu	r22,r3,1000d390 <__alt_data_end+0xf800d390>
1000d3d0:	b909c83a 	sub	r4,r23,r4
1000d3d4:	1023883a 	mov	r17,r2
1000d3d8:	003f4106 	br	1000d0e0 <__alt_data_end+0xf800d0e0>
1000d3dc:	1021883a 	mov	r16,r2
1000d3e0:	003f1106 	br	1000d028 <__alt_data_end+0xf800d028>
1000d3e4:	1023883a 	mov	r17,r2
1000d3e8:	003ef706 	br	1000cfc8 <__alt_data_end+0xf800cfc8>
1000d3ec:	b23fe136 	bltu	r22,r8,1000d374 <__alt_data_end+0xf800d374>
1000d3f0:	0009883a 	mov	r4,zero
1000d3f4:	003f3a06 	br	1000d0e0 <__alt_data_end+0xf800d0e0>
1000d3f8:	38802c36 	bltu	r7,r2,1000d4ac <__divdf3+0x8b0>
1000d3fc:	11c05326 	beq	r2,r7,1000d54c <__divdf3+0x950>
1000d400:	2827883a 	mov	r19,r5
1000d404:	003f8d06 	br	1000d23c <__alt_data_end+0xf800d23c>
1000d408:	04ffffc4 	movi	r19,-1
1000d40c:	003f8c06 	br	1000d240 <__alt_data_end+0xf800d240>
1000d410:	1011883a 	mov	r8,r2
1000d414:	003f4d06 	br	1000d14c <__alt_data_end+0xf800d14c>
1000d418:	1013883a 	mov	r9,r2
1000d41c:	003f6406 	br	1000d1b0 <__alt_data_end+0xf800d1b0>
1000d420:	e029883a 	mov	r20,fp
1000d424:	003f8606 	br	1000d240 <__alt_data_end+0xf800d240>
1000d428:	008007c4 	movi	r2,31
1000d42c:	14002a16 	blt	r2,r16,1000d4d8 <__divdf3+0x8dc>
1000d430:	91410784 	addi	r5,r18,1054
1000d434:	9c0cd83a 	srl	r6,r19,r16
1000d438:	8948983a 	sll	r4,r17,r5
1000d43c:	9944983a 	sll	r2,r19,r5
1000d440:	8c20d83a 	srl	r16,r17,r16
1000d444:	3108b03a 	or	r4,r6,r4
1000d448:	1004c03a 	cmpne	r2,r2,zero
1000d44c:	2084b03a 	or	r2,r4,r2
1000d450:	110001cc 	andi	r4,r2,7
1000d454:	20000726 	beq	r4,zero,1000d474 <__divdf3+0x878>
1000d458:	114003cc 	andi	r5,r2,15
1000d45c:	01000104 	movi	r4,4
1000d460:	29000426 	beq	r5,r4,1000d474 <__divdf3+0x878>
1000d464:	11000104 	addi	r4,r2,4
1000d468:	2085803a 	cmpltu	r2,r4,r2
1000d46c:	80a1883a 	add	r16,r16,r2
1000d470:	2005883a 	mov	r2,r4
1000d474:	8100202c 	andhi	r4,r16,128
1000d478:	20002d26 	beq	r4,zero,1000d530 <__divdf3+0x934>
1000d47c:	a180004c 	andi	r6,r20,1
1000d480:	02000044 	movi	r8,1
1000d484:	000b883a 	mov	r5,zero
1000d488:	0027883a 	mov	r19,zero
1000d48c:	003e3906 	br	1000cd74 <__alt_data_end+0xf800cd74>
1000d490:	d8c00117 	ldw	r3,4(sp)
1000d494:	8c7fff84 	addi	r17,r17,-2
1000d498:	b0ed883a 	add	r22,r22,r3
1000d49c:	b0c5803a 	cmpltu	r2,r22,r3
1000d4a0:	15c5883a 	add	r2,r2,r23
1000d4a4:	11cf883a 	add	r7,r2,r7
1000d4a8:	003f0c06 	br	1000d0dc <__alt_data_end+0xf800d0dc>
1000d4ac:	d8c00117 	ldw	r3,4(sp)
1000d4b0:	997fff84 	addi	r5,r19,-2
1000d4b4:	18d1883a 	add	r8,r3,r3
1000d4b8:	40c7803a 	cmpltu	r3,r8,r3
1000d4bc:	1dcd883a 	add	r6,r3,r23
1000d4c0:	398f883a 	add	r7,r7,r6
1000d4c4:	da000115 	stw	r8,4(sp)
1000d4c8:	003f8a06 	br	1000d2f4 <__alt_data_end+0xf800d2f4>
1000d4cc:	203f861e 	bne	r4,zero,1000d2e8 <__alt_data_end+0xf800d2e8>
1000d4d0:	d8000115 	stw	zero,4(sp)
1000d4d4:	003f8906 	br	1000d2fc <__alt_data_end+0xf800d2fc>
1000d4d8:	00bef884 	movi	r2,-1054
1000d4dc:	1485c83a 	sub	r2,r2,r18
1000d4e0:	01000804 	movi	r4,32
1000d4e4:	8884d83a 	srl	r2,r17,r2
1000d4e8:	81001c26 	beq	r16,r4,1000d55c <__divdf3+0x960>
1000d4ec:	91010f84 	addi	r4,r18,1086
1000d4f0:	8908983a 	sll	r4,r17,r4
1000d4f4:	24c8b03a 	or	r4,r4,r19
1000d4f8:	2008c03a 	cmpne	r4,r4,zero
1000d4fc:	2084b03a 	or	r2,r4,r2
1000d500:	140001cc 	andi	r16,r2,7
1000d504:	8000061e 	bne	r16,zero,1000d520 <__divdf3+0x924>
1000d508:	000b883a 	mov	r5,zero
1000d50c:	1004d0fa 	srli	r2,r2,3
1000d510:	a180004c 	andi	r6,r20,1
1000d514:	0011883a 	mov	r8,zero
1000d518:	1426b03a 	or	r19,r2,r16
1000d51c:	003e1506 	br	1000cd74 <__alt_data_end+0xf800cd74>
1000d520:	114003cc 	andi	r5,r2,15
1000d524:	01000104 	movi	r4,4
1000d528:	0021883a 	mov	r16,zero
1000d52c:	293fcd1e 	bne	r5,r4,1000d464 <__alt_data_end+0xf800d464>
1000d530:	800a927a 	slli	r5,r16,9
1000d534:	8020977a 	slli	r16,r16,29
1000d538:	280ad33a 	srli	r5,r5,12
1000d53c:	003ff306 	br	1000d50c <__alt_data_end+0xf800d50c>
1000d540:	b23fd336 	bltu	r22,r8,1000d490 <__alt_data_end+0xf800d490>
1000d544:	1023883a 	mov	r17,r2
1000d548:	003fa906 	br	1000d3f0 <__alt_data_end+0xf800d3f0>
1000d54c:	d8c00117 	ldw	r3,4(sp)
1000d550:	193fd636 	bltu	r3,r4,1000d4ac <__alt_data_end+0xf800d4ac>
1000d554:	2827883a 	mov	r19,r5
1000d558:	003f6806 	br	1000d2fc <__alt_data_end+0xf800d2fc>
1000d55c:	0009883a 	mov	r4,zero
1000d560:	003fe406 	br	1000d4f4 <__alt_data_end+0xf800d4f4>
1000d564:	00800434 	movhi	r2,16
1000d568:	89400234 	orhi	r5,r17,8
1000d56c:	10bfffc4 	addi	r2,r2,-1
1000d570:	e00d883a 	mov	r6,fp
1000d574:	288a703a 	and	r5,r5,r2
1000d578:	003e5806 	br	1000cedc <__alt_data_end+0xf800cedc>

1000d57c <__eqdf2>:
1000d57c:	2804d53a 	srli	r2,r5,20
1000d580:	3806d53a 	srli	r3,r7,20
1000d584:	02000434 	movhi	r8,16
1000d588:	423fffc4 	addi	r8,r8,-1
1000d58c:	1081ffcc 	andi	r2,r2,2047
1000d590:	0241ffc4 	movi	r9,2047
1000d594:	2a14703a 	and	r10,r5,r8
1000d598:	18c1ffcc 	andi	r3,r3,2047
1000d59c:	3a10703a 	and	r8,r7,r8
1000d5a0:	280ad7fa 	srli	r5,r5,31
1000d5a4:	380ed7fa 	srli	r7,r7,31
1000d5a8:	12400f26 	beq	r2,r9,1000d5e8 <__eqdf2+0x6c>
1000d5ac:	0241ffc4 	movi	r9,2047
1000d5b0:	1a400326 	beq	r3,r9,1000d5c0 <__eqdf2+0x44>
1000d5b4:	10c00526 	beq	r2,r3,1000d5cc <__eqdf2+0x50>
1000d5b8:	00800044 	movi	r2,1
1000d5bc:	f800283a 	ret
1000d5c0:	4192b03a 	or	r9,r8,r6
1000d5c4:	483ffc1e 	bne	r9,zero,1000d5b8 <__alt_data_end+0xf800d5b8>
1000d5c8:	10fffb1e 	bne	r2,r3,1000d5b8 <__alt_data_end+0xf800d5b8>
1000d5cc:	523ffa1e 	bne	r10,r8,1000d5b8 <__alt_data_end+0xf800d5b8>
1000d5d0:	21bff91e 	bne	r4,r6,1000d5b8 <__alt_data_end+0xf800d5b8>
1000d5d4:	29c00826 	beq	r5,r7,1000d5f8 <__eqdf2+0x7c>
1000d5d8:	103ff71e 	bne	r2,zero,1000d5b8 <__alt_data_end+0xf800d5b8>
1000d5dc:	5104b03a 	or	r2,r10,r4
1000d5e0:	1004c03a 	cmpne	r2,r2,zero
1000d5e4:	f800283a 	ret
1000d5e8:	5112b03a 	or	r9,r10,r4
1000d5ec:	483fef26 	beq	r9,zero,1000d5ac <__alt_data_end+0xf800d5ac>
1000d5f0:	00800044 	movi	r2,1
1000d5f4:	f800283a 	ret
1000d5f8:	0005883a 	mov	r2,zero
1000d5fc:	f800283a 	ret

1000d600 <__gedf2>:
1000d600:	2804d53a 	srli	r2,r5,20
1000d604:	3806d53a 	srli	r3,r7,20
1000d608:	02000434 	movhi	r8,16
1000d60c:	423fffc4 	addi	r8,r8,-1
1000d610:	0241ffc4 	movi	r9,2047
1000d614:	1081ffcc 	andi	r2,r2,2047
1000d618:	2a14703a 	and	r10,r5,r8
1000d61c:	1a46703a 	and	r3,r3,r9
1000d620:	3a10703a 	and	r8,r7,r8
1000d624:	280ad7fa 	srli	r5,r5,31
1000d628:	380ed7fa 	srli	r7,r7,31
1000d62c:	12400b26 	beq	r2,r9,1000d65c <__gedf2+0x5c>
1000d630:	1a401626 	beq	r3,r9,1000d68c <__gedf2+0x8c>
1000d634:	10000c1e 	bne	r2,zero,1000d668 <__gedf2+0x68>
1000d638:	5112b03a 	or	r9,r10,r4
1000d63c:	4813003a 	cmpeq	r9,r9,zero
1000d640:	4817883a 	mov	r11,r9
1000d644:	18000c1e 	bne	r3,zero,1000d678 <__gedf2+0x78>
1000d648:	4198b03a 	or	r12,r8,r6
1000d64c:	60000a1e 	bne	r12,zero,1000d678 <__gedf2+0x78>
1000d650:	48001326 	beq	r9,zero,1000d6a0 <__gedf2+0xa0>
1000d654:	0005883a 	mov	r2,zero
1000d658:	f800283a 	ret
1000d65c:	5112b03a 	or	r9,r10,r4
1000d660:	4800191e 	bne	r9,zero,1000d6c8 <__gedf2+0xc8>
1000d664:	18800926 	beq	r3,r2,1000d68c <__gedf2+0x8c>
1000d668:	18000b1e 	bne	r3,zero,1000d698 <__gedf2+0x98>
1000d66c:	4192b03a 	or	r9,r8,r6
1000d670:	0017883a 	mov	r11,zero
1000d674:	48000a26 	beq	r9,zero,1000d6a0 <__gedf2+0xa0>
1000d678:	39c03fcc 	andi	r7,r7,255
1000d67c:	58000726 	beq	r11,zero,1000d69c <__gedf2+0x9c>
1000d680:	3800081e 	bne	r7,zero,1000d6a4 <__gedf2+0xa4>
1000d684:	00bfffc4 	movi	r2,-1
1000d688:	f800283a 	ret
1000d68c:	4192b03a 	or	r9,r8,r6
1000d690:	48000d1e 	bne	r9,zero,1000d6c8 <__gedf2+0xc8>
1000d694:	103fe826 	beq	r2,zero,1000d638 <__alt_data_end+0xf800d638>
1000d698:	39c03fcc 	andi	r7,r7,255
1000d69c:	29c00326 	beq	r5,r7,1000d6ac <__gedf2+0xac>
1000d6a0:	283ff81e 	bne	r5,zero,1000d684 <__alt_data_end+0xf800d684>
1000d6a4:	00800044 	movi	r2,1
1000d6a8:	f800283a 	ret
1000d6ac:	18bffc16 	blt	r3,r2,1000d6a0 <__alt_data_end+0xf800d6a0>
1000d6b0:	10c00316 	blt	r2,r3,1000d6c0 <__gedf2+0xc0>
1000d6b4:	42bffa36 	bltu	r8,r10,1000d6a0 <__alt_data_end+0xf800d6a0>
1000d6b8:	52000526 	beq	r10,r8,1000d6d0 <__gedf2+0xd0>
1000d6bc:	523fe52e 	bgeu	r10,r8,1000d654 <__alt_data_end+0xf800d654>
1000d6c0:	283ff026 	beq	r5,zero,1000d684 <__alt_data_end+0xf800d684>
1000d6c4:	003ff706 	br	1000d6a4 <__alt_data_end+0xf800d6a4>
1000d6c8:	00bfff84 	movi	r2,-2
1000d6cc:	f800283a 	ret
1000d6d0:	313ff336 	bltu	r6,r4,1000d6a0 <__alt_data_end+0xf800d6a0>
1000d6d4:	21bfdf2e 	bgeu	r4,r6,1000d654 <__alt_data_end+0xf800d654>
1000d6d8:	283fea26 	beq	r5,zero,1000d684 <__alt_data_end+0xf800d684>
1000d6dc:	003ff106 	br	1000d6a4 <__alt_data_end+0xf800d6a4>

1000d6e0 <__ledf2>:
1000d6e0:	2804d53a 	srli	r2,r5,20
1000d6e4:	3810d53a 	srli	r8,r7,20
1000d6e8:	00c00434 	movhi	r3,16
1000d6ec:	18ffffc4 	addi	r3,r3,-1
1000d6f0:	0241ffc4 	movi	r9,2047
1000d6f4:	1081ffcc 	andi	r2,r2,2047
1000d6f8:	28d4703a 	and	r10,r5,r3
1000d6fc:	4250703a 	and	r8,r8,r9
1000d700:	38c6703a 	and	r3,r7,r3
1000d704:	280ad7fa 	srli	r5,r5,31
1000d708:	380ed7fa 	srli	r7,r7,31
1000d70c:	12400b26 	beq	r2,r9,1000d73c <__ledf2+0x5c>
1000d710:	42401926 	beq	r8,r9,1000d778 <__ledf2+0x98>
1000d714:	10000c1e 	bne	r2,zero,1000d748 <__ledf2+0x68>
1000d718:	5112b03a 	or	r9,r10,r4
1000d71c:	4813003a 	cmpeq	r9,r9,zero
1000d720:	4817883a 	mov	r11,r9
1000d724:	40000f26 	beq	r8,zero,1000d764 <__ledf2+0x84>
1000d728:	39c03fcc 	andi	r7,r7,255
1000d72c:	58001826 	beq	r11,zero,1000d790 <__ledf2+0xb0>
1000d730:	38000a1e 	bne	r7,zero,1000d75c <__ledf2+0x7c>
1000d734:	00bfffc4 	movi	r2,-1
1000d738:	f800283a 	ret
1000d73c:	5112b03a 	or	r9,r10,r4
1000d740:	48000f1e 	bne	r9,zero,1000d780 <__ledf2+0xa0>
1000d744:	40800c26 	beq	r8,r2,1000d778 <__ledf2+0x98>
1000d748:	4000101e 	bne	r8,zero,1000d78c <__ledf2+0xac>
1000d74c:	1992b03a 	or	r9,r3,r6
1000d750:	0017883a 	mov	r11,zero
1000d754:	483ff41e 	bne	r9,zero,1000d728 <__alt_data_end+0xf800d728>
1000d758:	283ff61e 	bne	r5,zero,1000d734 <__alt_data_end+0xf800d734>
1000d75c:	00800044 	movi	r2,1
1000d760:	f800283a 	ret
1000d764:	1998b03a 	or	r12,r3,r6
1000d768:	603fef1e 	bne	r12,zero,1000d728 <__alt_data_end+0xf800d728>
1000d76c:	483ffa26 	beq	r9,zero,1000d758 <__alt_data_end+0xf800d758>
1000d770:	0005883a 	mov	r2,zero
1000d774:	f800283a 	ret
1000d778:	1992b03a 	or	r9,r3,r6
1000d77c:	48000226 	beq	r9,zero,1000d788 <__ledf2+0xa8>
1000d780:	00800084 	movi	r2,2
1000d784:	f800283a 	ret
1000d788:	103fe326 	beq	r2,zero,1000d718 <__alt_data_end+0xf800d718>
1000d78c:	39c03fcc 	andi	r7,r7,255
1000d790:	29fff11e 	bne	r5,r7,1000d758 <__alt_data_end+0xf800d758>
1000d794:	40bff016 	blt	r8,r2,1000d758 <__alt_data_end+0xf800d758>
1000d798:	12000316 	blt	r2,r8,1000d7a8 <__ledf2+0xc8>
1000d79c:	1abfee36 	bltu	r3,r10,1000d758 <__alt_data_end+0xf800d758>
1000d7a0:	50c00326 	beq	r10,r3,1000d7b0 <__ledf2+0xd0>
1000d7a4:	50fff22e 	bgeu	r10,r3,1000d770 <__alt_data_end+0xf800d770>
1000d7a8:	283fe226 	beq	r5,zero,1000d734 <__alt_data_end+0xf800d734>
1000d7ac:	003feb06 	br	1000d75c <__alt_data_end+0xf800d75c>
1000d7b0:	313fe936 	bltu	r6,r4,1000d758 <__alt_data_end+0xf800d758>
1000d7b4:	21bfee2e 	bgeu	r4,r6,1000d770 <__alt_data_end+0xf800d770>
1000d7b8:	283fde26 	beq	r5,zero,1000d734 <__alt_data_end+0xf800d734>
1000d7bc:	003fe706 	br	1000d75c <__alt_data_end+0xf800d75c>

1000d7c0 <__muldf3>:
1000d7c0:	deffee04 	addi	sp,sp,-72
1000d7c4:	dd000c15 	stw	r20,48(sp)
1000d7c8:	2828d53a 	srli	r20,r5,20
1000d7cc:	dd400d15 	stw	r21,52(sp)
1000d7d0:	282ad7fa 	srli	r21,r5,31
1000d7d4:	dc000815 	stw	r16,32(sp)
1000d7d8:	04000434 	movhi	r16,16
1000d7dc:	ddc00f15 	stw	r23,60(sp)
1000d7e0:	dcc00b15 	stw	r19,44(sp)
1000d7e4:	dc800a15 	stw	r18,40(sp)
1000d7e8:	843fffc4 	addi	r16,r16,-1
1000d7ec:	dfc01115 	stw	ra,68(sp)
1000d7f0:	df001015 	stw	fp,64(sp)
1000d7f4:	dd800e15 	stw	r22,56(sp)
1000d7f8:	dc400915 	stw	r17,36(sp)
1000d7fc:	a501ffcc 	andi	r20,r20,2047
1000d800:	2025883a 	mov	r18,r4
1000d804:	202f883a 	mov	r23,r4
1000d808:	2c20703a 	and	r16,r5,r16
1000d80c:	a827883a 	mov	r19,r21
1000d810:	aa403fcc 	andi	r9,r21,255
1000d814:	a0005926 	beq	r20,zero,1000d97c <__muldf3+0x1bc>
1000d818:	0081ffc4 	movi	r2,2047
1000d81c:	a0803426 	beq	r20,r2,1000d8f0 <__muldf3+0x130>
1000d820:	84000434 	orhi	r16,r16,16
1000d824:	2004d77a 	srli	r2,r4,29
1000d828:	802090fa 	slli	r16,r16,3
1000d82c:	202e90fa 	slli	r23,r4,3
1000d830:	a53f0044 	addi	r20,r20,-1023
1000d834:	80a0b03a 	or	r16,r16,r2
1000d838:	000b883a 	mov	r5,zero
1000d83c:	0039883a 	mov	fp,zero
1000d840:	3806d53a 	srli	r3,r7,20
1000d844:	382cd7fa 	srli	r22,r7,31
1000d848:	00800434 	movhi	r2,16
1000d84c:	10bfffc4 	addi	r2,r2,-1
1000d850:	18c1ffcc 	andi	r3,r3,2047
1000d854:	3025883a 	mov	r18,r6
1000d858:	38a2703a 	and	r17,r7,r2
1000d85c:	b2803fcc 	andi	r10,r22,255
1000d860:	18006426 	beq	r3,zero,1000d9f4 <__muldf3+0x234>
1000d864:	0081ffc4 	movi	r2,2047
1000d868:	18805c26 	beq	r3,r2,1000d9dc <__muldf3+0x21c>
1000d86c:	8c400434 	orhi	r17,r17,16
1000d870:	3004d77a 	srli	r2,r6,29
1000d874:	882290fa 	slli	r17,r17,3
1000d878:	302490fa 	slli	r18,r6,3
1000d87c:	18ff0044 	addi	r3,r3,-1023
1000d880:	88a2b03a 	or	r17,r17,r2
1000d884:	000f883a 	mov	r7,zero
1000d888:	394ab03a 	or	r5,r7,r5
1000d88c:	280a90ba 	slli	r5,r5,2
1000d890:	00840074 	movhi	r2,4097
1000d894:	10b62c04 	addi	r2,r2,-10064
1000d898:	288b883a 	add	r5,r5,r2
1000d89c:	28800017 	ldw	r2,0(r5)
1000d8a0:	a0c7883a 	add	r3,r20,r3
1000d8a4:	b54cf03a 	xor	r6,r22,r21
1000d8a8:	1a000044 	addi	r8,r3,1
1000d8ac:	1000683a 	jmp	r2
1000d8b0:	1000daf4 	orhi	zero,r2,875
1000d8b4:	1000dae0 	cmpeqi	zero,r2,875
1000d8b8:	1000dae0 	cmpeqi	zero,r2,875
1000d8bc:	1000dacc 	andi	zero,r2,875
1000d8c0:	1000d90c 	andi	zero,r2,868
1000d8c4:	1000d90c 	andi	zero,r2,868
1000d8c8:	1000dab4 	orhi	zero,r2,874
1000d8cc:	1000dacc 	andi	zero,r2,875
1000d8d0:	1000d90c 	andi	zero,r2,868
1000d8d4:	1000dab4 	orhi	zero,r2,874
1000d8d8:	1000d90c 	andi	zero,r2,868
1000d8dc:	1000dacc 	andi	zero,r2,875
1000d8e0:	1000d910 	cmplti	zero,r2,868
1000d8e4:	1000d910 	cmplti	zero,r2,868
1000d8e8:	1000d910 	cmplti	zero,r2,868
1000d8ec:	1000de30 	cmpltui	zero,r2,888
1000d8f0:	8104b03a 	or	r2,r16,r4
1000d8f4:	10006c1e 	bne	r2,zero,1000daa8 <__muldf3+0x2e8>
1000d8f8:	01400204 	movi	r5,8
1000d8fc:	0021883a 	mov	r16,zero
1000d900:	002f883a 	mov	r23,zero
1000d904:	07000084 	movi	fp,2
1000d908:	003fcd06 	br	1000d840 <__alt_data_end+0xf800d840>
1000d90c:	3013883a 	mov	r9,r6
1000d910:	00800084 	movi	r2,2
1000d914:	e080501e 	bne	fp,r2,1000da58 <__muldf3+0x298>
1000d918:	4cc0004c 	andi	r19,r9,1
1000d91c:	0101ffc4 	movi	r4,2047
1000d920:	0021883a 	mov	r16,zero
1000d924:	002f883a 	mov	r23,zero
1000d928:	2008953a 	slli	r4,r4,20
1000d92c:	98c03fcc 	andi	r3,r19,255
1000d930:	04400434 	movhi	r17,16
1000d934:	8c7fffc4 	addi	r17,r17,-1
1000d938:	180697fa 	slli	r3,r3,31
1000d93c:	8460703a 	and	r16,r16,r17
1000d940:	8120b03a 	or	r16,r16,r4
1000d944:	80c6b03a 	or	r3,r16,r3
1000d948:	b805883a 	mov	r2,r23
1000d94c:	dfc01117 	ldw	ra,68(sp)
1000d950:	df001017 	ldw	fp,64(sp)
1000d954:	ddc00f17 	ldw	r23,60(sp)
1000d958:	dd800e17 	ldw	r22,56(sp)
1000d95c:	dd400d17 	ldw	r21,52(sp)
1000d960:	dd000c17 	ldw	r20,48(sp)
1000d964:	dcc00b17 	ldw	r19,44(sp)
1000d968:	dc800a17 	ldw	r18,40(sp)
1000d96c:	dc400917 	ldw	r17,36(sp)
1000d970:	dc000817 	ldw	r16,32(sp)
1000d974:	dec01204 	addi	sp,sp,72
1000d978:	f800283a 	ret
1000d97c:	8104b03a 	or	r2,r16,r4
1000d980:	10004426 	beq	r2,zero,1000da94 <__muldf3+0x2d4>
1000d984:	80014b26 	beq	r16,zero,1000deb4 <__muldf3+0x6f4>
1000d988:	8009883a 	mov	r4,r16
1000d98c:	d9800715 	stw	r6,28(sp)
1000d990:	d9c00215 	stw	r7,8(sp)
1000d994:	da400415 	stw	r9,16(sp)
1000d998:	000eaf80 	call	1000eaf8 <__clzsi2>
1000d99c:	d9800717 	ldw	r6,28(sp)
1000d9a0:	d9c00217 	ldw	r7,8(sp)
1000d9a4:	da400417 	ldw	r9,16(sp)
1000d9a8:	1007883a 	mov	r3,r2
1000d9ac:	01000a04 	movi	r4,40
1000d9b0:	1dfffe04 	addi	r23,r3,-8
1000d9b4:	20c9c83a 	sub	r4,r4,r3
1000d9b8:	85e0983a 	sll	r16,r16,r23
1000d9bc:	9108d83a 	srl	r4,r18,r4
1000d9c0:	95ee983a 	sll	r23,r18,r23
1000d9c4:	2420b03a 	or	r16,r4,r16
1000d9c8:	053f0344 	movi	r20,-1011
1000d9cc:	a0e9c83a 	sub	r20,r20,r3
1000d9d0:	000b883a 	mov	r5,zero
1000d9d4:	0039883a 	mov	fp,zero
1000d9d8:	003f9906 	br	1000d840 <__alt_data_end+0xf800d840>
1000d9dc:	8984b03a 	or	r2,r17,r6
1000d9e0:	10002a1e 	bne	r2,zero,1000da8c <__muldf3+0x2cc>
1000d9e4:	0023883a 	mov	r17,zero
1000d9e8:	0025883a 	mov	r18,zero
1000d9ec:	01c00084 	movi	r7,2
1000d9f0:	003fa506 	br	1000d888 <__alt_data_end+0xf800d888>
1000d9f4:	8984b03a 	or	r2,r17,r6
1000d9f8:	10002026 	beq	r2,zero,1000da7c <__muldf3+0x2bc>
1000d9fc:	88011c26 	beq	r17,zero,1000de70 <__muldf3+0x6b0>
1000da00:	8809883a 	mov	r4,r17
1000da04:	d9400215 	stw	r5,8(sp)
1000da08:	d9800715 	stw	r6,28(sp)
1000da0c:	da400415 	stw	r9,16(sp)
1000da10:	da800315 	stw	r10,12(sp)
1000da14:	000eaf80 	call	1000eaf8 <__clzsi2>
1000da18:	d9400217 	ldw	r5,8(sp)
1000da1c:	d9800717 	ldw	r6,28(sp)
1000da20:	da400417 	ldw	r9,16(sp)
1000da24:	da800317 	ldw	r10,12(sp)
1000da28:	1007883a 	mov	r3,r2
1000da2c:	01000a04 	movi	r4,40
1000da30:	1cbffe04 	addi	r18,r3,-8
1000da34:	20c9c83a 	sub	r4,r4,r3
1000da38:	8ca2983a 	sll	r17,r17,r18
1000da3c:	3108d83a 	srl	r4,r6,r4
1000da40:	34a4983a 	sll	r18,r6,r18
1000da44:	2462b03a 	or	r17,r4,r17
1000da48:	00bf0344 	movi	r2,-1011
1000da4c:	10c7c83a 	sub	r3,r2,r3
1000da50:	000f883a 	mov	r7,zero
1000da54:	003f8c06 	br	1000d888 <__alt_data_end+0xf800d888>
1000da58:	008000c4 	movi	r2,3
1000da5c:	e0816d26 	beq	fp,r2,1000e014 <__muldf3+0x854>
1000da60:	00800044 	movi	r2,1
1000da64:	e081321e 	bne	fp,r2,1000df30 <__muldf3+0x770>
1000da68:	48a6703a 	and	r19,r9,r2
1000da6c:	0009883a 	mov	r4,zero
1000da70:	0021883a 	mov	r16,zero
1000da74:	002f883a 	mov	r23,zero
1000da78:	003fab06 	br	1000d928 <__alt_data_end+0xf800d928>
1000da7c:	0023883a 	mov	r17,zero
1000da80:	0025883a 	mov	r18,zero
1000da84:	01c00044 	movi	r7,1
1000da88:	003f7f06 	br	1000d888 <__alt_data_end+0xf800d888>
1000da8c:	01c000c4 	movi	r7,3
1000da90:	003f7d06 	br	1000d888 <__alt_data_end+0xf800d888>
1000da94:	01400104 	movi	r5,4
1000da98:	0021883a 	mov	r16,zero
1000da9c:	002f883a 	mov	r23,zero
1000daa0:	07000044 	movi	fp,1
1000daa4:	003f6606 	br	1000d840 <__alt_data_end+0xf800d840>
1000daa8:	01400304 	movi	r5,12
1000daac:	070000c4 	movi	fp,3
1000dab0:	003f6306 	br	1000d840 <__alt_data_end+0xf800d840>
1000dab4:	04000434 	movhi	r16,16
1000dab8:	0027883a 	mov	r19,zero
1000dabc:	843fffc4 	addi	r16,r16,-1
1000dac0:	05ffffc4 	movi	r23,-1
1000dac4:	0101ffc4 	movi	r4,2047
1000dac8:	003f9706 	br	1000d928 <__alt_data_end+0xf800d928>
1000dacc:	8821883a 	mov	r16,r17
1000dad0:	902f883a 	mov	r23,r18
1000dad4:	5013883a 	mov	r9,r10
1000dad8:	3839883a 	mov	fp,r7
1000dadc:	003f8c06 	br	1000d910 <__alt_data_end+0xf800d910>
1000dae0:	8821883a 	mov	r16,r17
1000dae4:	902f883a 	mov	r23,r18
1000dae8:	3013883a 	mov	r9,r6
1000daec:	3839883a 	mov	fp,r7
1000daf0:	003f8706 	br	1000d910 <__alt_data_end+0xf800d910>
1000daf4:	b82ad43a 	srli	r21,r23,16
1000daf8:	9038d43a 	srli	fp,r18,16
1000dafc:	bdffffcc 	andi	r23,r23,65535
1000db00:	94bfffcc 	andi	r18,r18,65535
1000db04:	9009883a 	mov	r4,r18
1000db08:	b80b883a 	mov	r5,r23
1000db0c:	d8c00515 	stw	r3,20(sp)
1000db10:	d9800715 	stw	r6,28(sp)
1000db14:	da000615 	stw	r8,24(sp)
1000db18:	000c3380 	call	1000c338 <__mulsi3>
1000db1c:	9009883a 	mov	r4,r18
1000db20:	a80b883a 	mov	r5,r21
1000db24:	1029883a 	mov	r20,r2
1000db28:	000c3380 	call	1000c338 <__mulsi3>
1000db2c:	e009883a 	mov	r4,fp
1000db30:	a80b883a 	mov	r5,r21
1000db34:	102d883a 	mov	r22,r2
1000db38:	000c3380 	call	1000c338 <__mulsi3>
1000db3c:	e009883a 	mov	r4,fp
1000db40:	b80b883a 	mov	r5,r23
1000db44:	1027883a 	mov	r19,r2
1000db48:	000c3380 	call	1000c338 <__mulsi3>
1000db4c:	a008d43a 	srli	r4,r20,16
1000db50:	b085883a 	add	r2,r22,r2
1000db54:	d8c00517 	ldw	r3,20(sp)
1000db58:	110f883a 	add	r7,r2,r4
1000db5c:	d9800717 	ldw	r6,28(sp)
1000db60:	da000617 	ldw	r8,24(sp)
1000db64:	3d80022e 	bgeu	r7,r22,1000db70 <__muldf3+0x3b0>
1000db68:	00800074 	movhi	r2,1
1000db6c:	98a7883a 	add	r19,r19,r2
1000db70:	3804943a 	slli	r2,r7,16
1000db74:	380ed43a 	srli	r7,r7,16
1000db78:	882cd43a 	srli	r22,r17,16
1000db7c:	a53fffcc 	andi	r20,r20,65535
1000db80:	8c7fffcc 	andi	r17,r17,65535
1000db84:	1529883a 	add	r20,r2,r20
1000db88:	8809883a 	mov	r4,r17
1000db8c:	b80b883a 	mov	r5,r23
1000db90:	d8c00515 	stw	r3,20(sp)
1000db94:	d9800715 	stw	r6,28(sp)
1000db98:	da000615 	stw	r8,24(sp)
1000db9c:	d9c00015 	stw	r7,0(sp)
1000dba0:	dd000115 	stw	r20,4(sp)
1000dba4:	000c3380 	call	1000c338 <__mulsi3>
1000dba8:	a80b883a 	mov	r5,r21
1000dbac:	8809883a 	mov	r4,r17
1000dbb0:	d8800415 	stw	r2,16(sp)
1000dbb4:	000c3380 	call	1000c338 <__mulsi3>
1000dbb8:	a80b883a 	mov	r5,r21
1000dbbc:	b009883a 	mov	r4,r22
1000dbc0:	1029883a 	mov	r20,r2
1000dbc4:	000c3380 	call	1000c338 <__mulsi3>
1000dbc8:	b009883a 	mov	r4,r22
1000dbcc:	b80b883a 	mov	r5,r23
1000dbd0:	102b883a 	mov	r21,r2
1000dbd4:	000c3380 	call	1000c338 <__mulsi3>
1000dbd8:	da400417 	ldw	r9,16(sp)
1000dbdc:	a085883a 	add	r2,r20,r2
1000dbe0:	d8c00517 	ldw	r3,20(sp)
1000dbe4:	4808d43a 	srli	r4,r9,16
1000dbe8:	d9800717 	ldw	r6,28(sp)
1000dbec:	da000617 	ldw	r8,24(sp)
1000dbf0:	1109883a 	add	r4,r2,r4
1000dbf4:	2500022e 	bgeu	r4,r20,1000dc00 <__muldf3+0x440>
1000dbf8:	00800074 	movhi	r2,1
1000dbfc:	a8ab883a 	add	r21,r21,r2
1000dc00:	200e943a 	slli	r7,r4,16
1000dc04:	2004d43a 	srli	r2,r4,16
1000dc08:	802ed43a 	srli	r23,r16,16
1000dc0c:	843fffcc 	andi	r16,r16,65535
1000dc10:	4d3fffcc 	andi	r20,r9,65535
1000dc14:	9009883a 	mov	r4,r18
1000dc18:	800b883a 	mov	r5,r16
1000dc1c:	3d29883a 	add	r20,r7,r20
1000dc20:	d8c00515 	stw	r3,20(sp)
1000dc24:	d9800715 	stw	r6,28(sp)
1000dc28:	da000615 	stw	r8,24(sp)
1000dc2c:	a8ab883a 	add	r21,r21,r2
1000dc30:	000c3380 	call	1000c338 <__mulsi3>
1000dc34:	9009883a 	mov	r4,r18
1000dc38:	b80b883a 	mov	r5,r23
1000dc3c:	d8800315 	stw	r2,12(sp)
1000dc40:	000c3380 	call	1000c338 <__mulsi3>
1000dc44:	e009883a 	mov	r4,fp
1000dc48:	b80b883a 	mov	r5,r23
1000dc4c:	1025883a 	mov	r18,r2
1000dc50:	000c3380 	call	1000c338 <__mulsi3>
1000dc54:	e009883a 	mov	r4,fp
1000dc58:	800b883a 	mov	r5,r16
1000dc5c:	d8800215 	stw	r2,8(sp)
1000dc60:	000c3380 	call	1000c338 <__mulsi3>
1000dc64:	da800317 	ldw	r10,12(sp)
1000dc68:	d9400017 	ldw	r5,0(sp)
1000dc6c:	9085883a 	add	r2,r18,r2
1000dc70:	5008d43a 	srli	r4,r10,16
1000dc74:	a153883a 	add	r9,r20,r5
1000dc78:	d8c00517 	ldw	r3,20(sp)
1000dc7c:	1109883a 	add	r4,r2,r4
1000dc80:	d9800717 	ldw	r6,28(sp)
1000dc84:	da000617 	ldw	r8,24(sp)
1000dc88:	dac00217 	ldw	r11,8(sp)
1000dc8c:	2480022e 	bgeu	r4,r18,1000dc98 <__muldf3+0x4d8>
1000dc90:	00800074 	movhi	r2,1
1000dc94:	5897883a 	add	r11,r11,r2
1000dc98:	200e943a 	slli	r7,r4,16
1000dc9c:	2038d43a 	srli	fp,r4,16
1000dca0:	52bfffcc 	andi	r10,r10,65535
1000dca4:	3a8f883a 	add	r7,r7,r10
1000dca8:	8809883a 	mov	r4,r17
1000dcac:	800b883a 	mov	r5,r16
1000dcb0:	d8c00515 	stw	r3,20(sp)
1000dcb4:	d9800715 	stw	r6,28(sp)
1000dcb8:	d9c00215 	stw	r7,8(sp)
1000dcbc:	da000615 	stw	r8,24(sp)
1000dcc0:	da400415 	stw	r9,16(sp)
1000dcc4:	5f39883a 	add	fp,r11,fp
1000dcc8:	000c3380 	call	1000c338 <__mulsi3>
1000dccc:	8809883a 	mov	r4,r17
1000dcd0:	b80b883a 	mov	r5,r23
1000dcd4:	1025883a 	mov	r18,r2
1000dcd8:	000c3380 	call	1000c338 <__mulsi3>
1000dcdc:	b009883a 	mov	r4,r22
1000dce0:	b80b883a 	mov	r5,r23
1000dce4:	d8800315 	stw	r2,12(sp)
1000dce8:	000c3380 	call	1000c338 <__mulsi3>
1000dcec:	b009883a 	mov	r4,r22
1000dcf0:	800b883a 	mov	r5,r16
1000dcf4:	1023883a 	mov	r17,r2
1000dcf8:	000c3380 	call	1000c338 <__mulsi3>
1000dcfc:	da800317 	ldw	r10,12(sp)
1000dd00:	9008d43a 	srli	r4,r18,16
1000dd04:	d8c00517 	ldw	r3,20(sp)
1000dd08:	5085883a 	add	r2,r10,r2
1000dd0c:	1109883a 	add	r4,r2,r4
1000dd10:	d9800717 	ldw	r6,28(sp)
1000dd14:	d9c00217 	ldw	r7,8(sp)
1000dd18:	da000617 	ldw	r8,24(sp)
1000dd1c:	da400417 	ldw	r9,16(sp)
1000dd20:	2280022e 	bgeu	r4,r10,1000dd2c <__muldf3+0x56c>
1000dd24:	00800074 	movhi	r2,1
1000dd28:	88a3883a 	add	r17,r17,r2
1000dd2c:	2004943a 	slli	r2,r4,16
1000dd30:	94bfffcc 	andi	r18,r18,65535
1000dd34:	4ce7883a 	add	r19,r9,r19
1000dd38:	14a5883a 	add	r18,r2,r18
1000dd3c:	9d29803a 	cmpltu	r20,r19,r20
1000dd40:	9565883a 	add	r18,r18,r21
1000dd44:	9505883a 	add	r2,r18,r20
1000dd48:	99e7883a 	add	r19,r19,r7
1000dd4c:	99cf803a 	cmpltu	r7,r19,r7
1000dd50:	e08b883a 	add	r5,fp,r2
1000dd54:	2008d43a 	srli	r4,r4,16
1000dd58:	29ef883a 	add	r23,r5,r7
1000dd5c:	1529803a 	cmpltu	r20,r2,r20
1000dd60:	956b803a 	cmpltu	r21,r18,r21
1000dd64:	b9cf803a 	cmpltu	r7,r23,r7
1000dd68:	a564b03a 	or	r18,r20,r21
1000dd6c:	2f39803a 	cmpltu	fp,r5,fp
1000dd70:	9125883a 	add	r18,r18,r4
1000dd74:	3f38b03a 	or	fp,r7,fp
1000dd78:	9725883a 	add	r18,r18,fp
1000dd7c:	9804927a 	slli	r2,r19,9
1000dd80:	9463883a 	add	r17,r18,r17
1000dd84:	d9000117 	ldw	r4,4(sp)
1000dd88:	b820d5fa 	srli	r16,r23,23
1000dd8c:	8822927a 	slli	r17,r17,9
1000dd90:	9826d5fa 	srli	r19,r19,23
1000dd94:	1104b03a 	or	r2,r2,r4
1000dd98:	b82e927a 	slli	r23,r23,9
1000dd9c:	1004c03a 	cmpne	r2,r2,zero
1000dda0:	8c20b03a 	or	r16,r17,r16
1000dda4:	14e6b03a 	or	r19,r2,r19
1000dda8:	8080402c 	andhi	r2,r16,256
1000ddac:	9deeb03a 	or	r23,r19,r23
1000ddb0:	10000726 	beq	r2,zero,1000ddd0 <__muldf3+0x610>
1000ddb4:	b804d07a 	srli	r2,r23,1
1000ddb8:	800697fa 	slli	r3,r16,31
1000ddbc:	bdc0004c 	andi	r23,r23,1
1000ddc0:	8020d07a 	srli	r16,r16,1
1000ddc4:	b8aeb03a 	or	r23,r23,r2
1000ddc8:	b8eeb03a 	or	r23,r23,r3
1000ddcc:	4007883a 	mov	r3,r8
1000ddd0:	1900ffc4 	addi	r4,r3,1023
1000ddd4:	01004d0e 	bge	zero,r4,1000df0c <__muldf3+0x74c>
1000ddd8:	b88001cc 	andi	r2,r23,7
1000dddc:	10000726 	beq	r2,zero,1000ddfc <__muldf3+0x63c>
1000dde0:	b94003cc 	andi	r5,r23,15
1000dde4:	00800104 	movi	r2,4
1000dde8:	28800426 	beq	r5,r2,1000ddfc <__muldf3+0x63c>
1000ddec:	b885883a 	add	r2,r23,r2
1000ddf0:	15ef803a 	cmpltu	r23,r2,r23
1000ddf4:	85e1883a 	add	r16,r16,r23
1000ddf8:	102f883a 	mov	r23,r2
1000ddfc:	8080402c 	andhi	r2,r16,256
1000de00:	10000426 	beq	r2,zero,1000de14 <__muldf3+0x654>
1000de04:	00bfc034 	movhi	r2,65280
1000de08:	10bfffc4 	addi	r2,r2,-1
1000de0c:	19010004 	addi	r4,r3,1024
1000de10:	80a0703a 	and	r16,r16,r2
1000de14:	0081ff84 	movi	r2,2046
1000de18:	1100340e 	bge	r2,r4,1000deec <__muldf3+0x72c>
1000de1c:	34c0004c 	andi	r19,r6,1
1000de20:	0101ffc4 	movi	r4,2047
1000de24:	0021883a 	mov	r16,zero
1000de28:	002f883a 	mov	r23,zero
1000de2c:	003ebe06 	br	1000d928 <__alt_data_end+0xf800d928>
1000de30:	8080022c 	andhi	r2,r16,8
1000de34:	10000926 	beq	r2,zero,1000de5c <__muldf3+0x69c>
1000de38:	8880022c 	andhi	r2,r17,8
1000de3c:	1000071e 	bne	r2,zero,1000de5c <__muldf3+0x69c>
1000de40:	00800434 	movhi	r2,16
1000de44:	8c000234 	orhi	r16,r17,8
1000de48:	10bfffc4 	addi	r2,r2,-1
1000de4c:	b027883a 	mov	r19,r22
1000de50:	80a0703a 	and	r16,r16,r2
1000de54:	902f883a 	mov	r23,r18
1000de58:	003f1a06 	br	1000dac4 <__alt_data_end+0xf800dac4>
1000de5c:	00800434 	movhi	r2,16
1000de60:	84000234 	orhi	r16,r16,8
1000de64:	10bfffc4 	addi	r2,r2,-1
1000de68:	80a0703a 	and	r16,r16,r2
1000de6c:	003f1506 	br	1000dac4 <__alt_data_end+0xf800dac4>
1000de70:	3009883a 	mov	r4,r6
1000de74:	d9400215 	stw	r5,8(sp)
1000de78:	d9800715 	stw	r6,28(sp)
1000de7c:	da400415 	stw	r9,16(sp)
1000de80:	da800315 	stw	r10,12(sp)
1000de84:	000eaf80 	call	1000eaf8 <__clzsi2>
1000de88:	10c00804 	addi	r3,r2,32
1000de8c:	010009c4 	movi	r4,39
1000de90:	d9400217 	ldw	r5,8(sp)
1000de94:	d9800717 	ldw	r6,28(sp)
1000de98:	da400417 	ldw	r9,16(sp)
1000de9c:	da800317 	ldw	r10,12(sp)
1000dea0:	20fee20e 	bge	r4,r3,1000da2c <__alt_data_end+0xf800da2c>
1000dea4:	147ffe04 	addi	r17,r2,-8
1000dea8:	9462983a 	sll	r17,r18,r17
1000deac:	0025883a 	mov	r18,zero
1000deb0:	003ee506 	br	1000da48 <__alt_data_end+0xf800da48>
1000deb4:	d9800715 	stw	r6,28(sp)
1000deb8:	d9c00215 	stw	r7,8(sp)
1000debc:	da400415 	stw	r9,16(sp)
1000dec0:	000eaf80 	call	1000eaf8 <__clzsi2>
1000dec4:	10c00804 	addi	r3,r2,32
1000dec8:	010009c4 	movi	r4,39
1000decc:	d9800717 	ldw	r6,28(sp)
1000ded0:	d9c00217 	ldw	r7,8(sp)
1000ded4:	da400417 	ldw	r9,16(sp)
1000ded8:	20feb40e 	bge	r4,r3,1000d9ac <__alt_data_end+0xf800d9ac>
1000dedc:	143ffe04 	addi	r16,r2,-8
1000dee0:	9420983a 	sll	r16,r18,r16
1000dee4:	002f883a 	mov	r23,zero
1000dee8:	003eb706 	br	1000d9c8 <__alt_data_end+0xf800d9c8>
1000deec:	8004977a 	slli	r2,r16,29
1000def0:	b82ed0fa 	srli	r23,r23,3
1000def4:	8020927a 	slli	r16,r16,9
1000def8:	2101ffcc 	andi	r4,r4,2047
1000defc:	15eeb03a 	or	r23,r2,r23
1000df00:	8020d33a 	srli	r16,r16,12
1000df04:	34c0004c 	andi	r19,r6,1
1000df08:	003e8706 	br	1000d928 <__alt_data_end+0xf800d928>
1000df0c:	00bf0084 	movi	r2,-1022
1000df10:	10c5c83a 	sub	r2,r2,r3
1000df14:	01000e04 	movi	r4,56
1000df18:	2080080e 	bge	r4,r2,1000df3c <__muldf3+0x77c>
1000df1c:	34c0004c 	andi	r19,r6,1
1000df20:	0009883a 	mov	r4,zero
1000df24:	0021883a 	mov	r16,zero
1000df28:	002f883a 	mov	r23,zero
1000df2c:	003e7e06 	br	1000d928 <__alt_data_end+0xf800d928>
1000df30:	4007883a 	mov	r3,r8
1000df34:	480d883a 	mov	r6,r9
1000df38:	003fa506 	br	1000ddd0 <__alt_data_end+0xf800ddd0>
1000df3c:	010007c4 	movi	r4,31
1000df40:	20801816 	blt	r4,r2,1000dfa4 <__muldf3+0x7e4>
1000df44:	18c10784 	addi	r3,r3,1054
1000df48:	80c8983a 	sll	r4,r16,r3
1000df4c:	b88ad83a 	srl	r5,r23,r2
1000df50:	b8c6983a 	sll	r3,r23,r3
1000df54:	80a0d83a 	srl	r16,r16,r2
1000df58:	2908b03a 	or	r4,r5,r4
1000df5c:	1804c03a 	cmpne	r2,r3,zero
1000df60:	2088b03a 	or	r4,r4,r2
1000df64:	208001cc 	andi	r2,r4,7
1000df68:	10000726 	beq	r2,zero,1000df88 <__muldf3+0x7c8>
1000df6c:	20c003cc 	andi	r3,r4,15
1000df70:	00800104 	movi	r2,4
1000df74:	18800426 	beq	r3,r2,1000df88 <__muldf3+0x7c8>
1000df78:	20c00104 	addi	r3,r4,4
1000df7c:	1905803a 	cmpltu	r2,r3,r4
1000df80:	80a1883a 	add	r16,r16,r2
1000df84:	1809883a 	mov	r4,r3
1000df88:	8080202c 	andhi	r2,r16,128
1000df8c:	10001b26 	beq	r2,zero,1000dffc <__muldf3+0x83c>
1000df90:	34c0004c 	andi	r19,r6,1
1000df94:	01000044 	movi	r4,1
1000df98:	0021883a 	mov	r16,zero
1000df9c:	002f883a 	mov	r23,zero
1000dfa0:	003e6106 	br	1000d928 <__alt_data_end+0xf800d928>
1000dfa4:	013ef884 	movi	r4,-1054
1000dfa8:	20c9c83a 	sub	r4,r4,r3
1000dfac:	01400804 	movi	r5,32
1000dfb0:	8108d83a 	srl	r4,r16,r4
1000dfb4:	11401526 	beq	r2,r5,1000e00c <__muldf3+0x84c>
1000dfb8:	18c10f84 	addi	r3,r3,1086
1000dfbc:	80e0983a 	sll	r16,r16,r3
1000dfc0:	85eeb03a 	or	r23,r16,r23
1000dfc4:	b804c03a 	cmpne	r2,r23,zero
1000dfc8:	1108b03a 	or	r4,r2,r4
1000dfcc:	20c001cc 	andi	r3,r4,7
1000dfd0:	1800061e 	bne	r3,zero,1000dfec <__muldf3+0x82c>
1000dfd4:	0021883a 	mov	r16,zero
1000dfd8:	202ed0fa 	srli	r23,r4,3
1000dfdc:	34c0004c 	andi	r19,r6,1
1000dfe0:	0009883a 	mov	r4,zero
1000dfe4:	b8eeb03a 	or	r23,r23,r3
1000dfe8:	003e4f06 	br	1000d928 <__alt_data_end+0xf800d928>
1000dfec:	20c003cc 	andi	r3,r4,15
1000dff0:	00800104 	movi	r2,4
1000dff4:	0021883a 	mov	r16,zero
1000dff8:	18bfdf1e 	bne	r3,r2,1000df78 <__alt_data_end+0xf800df78>
1000dffc:	8004927a 	slli	r2,r16,9
1000e000:	8006977a 	slli	r3,r16,29
1000e004:	1020d33a 	srli	r16,r2,12
1000e008:	003ff306 	br	1000dfd8 <__alt_data_end+0xf800dfd8>
1000e00c:	0021883a 	mov	r16,zero
1000e010:	003feb06 	br	1000dfc0 <__alt_data_end+0xf800dfc0>
1000e014:	00800434 	movhi	r2,16
1000e018:	84000234 	orhi	r16,r16,8
1000e01c:	10bfffc4 	addi	r2,r2,-1
1000e020:	4cc0004c 	andi	r19,r9,1
1000e024:	80a0703a 	and	r16,r16,r2
1000e028:	003ea606 	br	1000dac4 <__alt_data_end+0xf800dac4>

1000e02c <__subdf3>:
1000e02c:	00c00434 	movhi	r3,16
1000e030:	18ffffc4 	addi	r3,r3,-1
1000e034:	defffb04 	addi	sp,sp,-20
1000e038:	28d2703a 	and	r9,r5,r3
1000e03c:	3814d53a 	srli	r10,r7,20
1000e040:	38c6703a 	and	r3,r7,r3
1000e044:	3004d77a 	srli	r2,r6,29
1000e048:	dc800215 	stw	r18,8(sp)
1000e04c:	dc000015 	stw	r16,0(sp)
1000e050:	2824d7fa 	srli	r18,r5,31
1000e054:	2820d53a 	srli	r16,r5,20
1000e058:	481290fa 	slli	r9,r9,3
1000e05c:	200ad77a 	srli	r5,r4,29
1000e060:	180690fa 	slli	r3,r3,3
1000e064:	dc400115 	stw	r17,4(sp)
1000e068:	dfc00415 	stw	ra,16(sp)
1000e06c:	202290fa 	slli	r17,r4,3
1000e070:	dcc00315 	stw	r19,12(sp)
1000e074:	5281ffcc 	andi	r10,r10,2047
1000e078:	0101ffc4 	movi	r4,2047
1000e07c:	9011883a 	mov	r8,r18
1000e080:	8401ffcc 	andi	r16,r16,2047
1000e084:	94803fcc 	andi	r18,r18,255
1000e088:	494ab03a 	or	r5,r9,r5
1000e08c:	380ed7fa 	srli	r7,r7,31
1000e090:	1886b03a 	or	r3,r3,r2
1000e094:	300c90fa 	slli	r6,r6,3
1000e098:	51009026 	beq	r10,r4,1000e2dc <__subdf3+0x2b0>
1000e09c:	39c0005c 	xori	r7,r7,1
1000e0a0:	8285c83a 	sub	r2,r16,r10
1000e0a4:	91c06f26 	beq	r18,r7,1000e264 <__subdf3+0x238>
1000e0a8:	0080b10e 	bge	zero,r2,1000e370 <__subdf3+0x344>
1000e0ac:	50002a1e 	bne	r10,zero,1000e158 <__subdf3+0x12c>
1000e0b0:	1988b03a 	or	r4,r3,r6
1000e0b4:	2000941e 	bne	r4,zero,1000e308 <__subdf3+0x2dc>
1000e0b8:	888001cc 	andi	r2,r17,7
1000e0bc:	10005b26 	beq	r2,zero,1000e22c <__subdf3+0x200>
1000e0c0:	88c003cc 	andi	r3,r17,15
1000e0c4:	00800104 	movi	r2,4
1000e0c8:	18805826 	beq	r3,r2,1000e22c <__subdf3+0x200>
1000e0cc:	88c00104 	addi	r3,r17,4
1000e0d0:	1c63803a 	cmpltu	r17,r3,r17
1000e0d4:	2c4b883a 	add	r5,r5,r17
1000e0d8:	2880202c 	andhi	r2,r5,128
1000e0dc:	9200004c 	andi	r8,r18,1
1000e0e0:	1823883a 	mov	r17,r3
1000e0e4:	10005426 	beq	r2,zero,1000e238 <__subdf3+0x20c>
1000e0e8:	84000044 	addi	r16,r16,1
1000e0ec:	0081ffc4 	movi	r2,2047
1000e0f0:	8080bf26 	beq	r16,r2,1000e3f0 <__subdf3+0x3c4>
1000e0f4:	013fe034 	movhi	r4,65408
1000e0f8:	213fffc4 	addi	r4,r4,-1
1000e0fc:	290a703a 	and	r5,r5,r4
1000e100:	2804977a 	slli	r2,r5,29
1000e104:	280a927a 	slli	r5,r5,9
1000e108:	8822d0fa 	srli	r17,r17,3
1000e10c:	8401ffcc 	andi	r16,r16,2047
1000e110:	2808d33a 	srli	r4,r5,12
1000e114:	1444b03a 	or	r2,r2,r17
1000e118:	8401ffcc 	andi	r16,r16,2047
1000e11c:	800a953a 	slli	r5,r16,20
1000e120:	40c03fcc 	andi	r3,r8,255
1000e124:	04000434 	movhi	r16,16
1000e128:	180697fa 	slli	r3,r3,31
1000e12c:	843fffc4 	addi	r16,r16,-1
1000e130:	2420703a 	and	r16,r4,r16
1000e134:	8160b03a 	or	r16,r16,r5
1000e138:	80c6b03a 	or	r3,r16,r3
1000e13c:	dfc00417 	ldw	ra,16(sp)
1000e140:	dcc00317 	ldw	r19,12(sp)
1000e144:	dc800217 	ldw	r18,8(sp)
1000e148:	dc400117 	ldw	r17,4(sp)
1000e14c:	dc000017 	ldw	r16,0(sp)
1000e150:	dec00504 	addi	sp,sp,20
1000e154:	f800283a 	ret
1000e158:	0101ffc4 	movi	r4,2047
1000e15c:	813fd626 	beq	r16,r4,1000e0b8 <__alt_data_end+0xf800e0b8>
1000e160:	18c02034 	orhi	r3,r3,128
1000e164:	01000e04 	movi	r4,56
1000e168:	2080a416 	blt	r4,r2,1000e3fc <__subdf3+0x3d0>
1000e16c:	010007c4 	movi	r4,31
1000e170:	2080c716 	blt	r4,r2,1000e490 <__subdf3+0x464>
1000e174:	01000804 	movi	r4,32
1000e178:	2089c83a 	sub	r4,r4,r2
1000e17c:	1910983a 	sll	r8,r3,r4
1000e180:	308ed83a 	srl	r7,r6,r2
1000e184:	3108983a 	sll	r4,r6,r4
1000e188:	1884d83a 	srl	r2,r3,r2
1000e18c:	41ccb03a 	or	r6,r8,r7
1000e190:	2008c03a 	cmpne	r4,r4,zero
1000e194:	310cb03a 	or	r6,r6,r4
1000e198:	898dc83a 	sub	r6,r17,r6
1000e19c:	89a3803a 	cmpltu	r17,r17,r6
1000e1a0:	288bc83a 	sub	r5,r5,r2
1000e1a4:	2c4bc83a 	sub	r5,r5,r17
1000e1a8:	3023883a 	mov	r17,r6
1000e1ac:	2880202c 	andhi	r2,r5,128
1000e1b0:	10006b26 	beq	r2,zero,1000e360 <__subdf3+0x334>
1000e1b4:	04c02034 	movhi	r19,128
1000e1b8:	9cffffc4 	addi	r19,r19,-1
1000e1bc:	2ce6703a 	and	r19,r5,r19
1000e1c0:	98007c26 	beq	r19,zero,1000e3b4 <__subdf3+0x388>
1000e1c4:	9809883a 	mov	r4,r19
1000e1c8:	000eaf80 	call	1000eaf8 <__clzsi2>
1000e1cc:	10fffe04 	addi	r3,r2,-8
1000e1d0:	010007c4 	movi	r4,31
1000e1d4:	20c07d16 	blt	r4,r3,1000e3cc <__subdf3+0x3a0>
1000e1d8:	01400a04 	movi	r5,40
1000e1dc:	2885c83a 	sub	r2,r5,r2
1000e1e0:	888ad83a 	srl	r5,r17,r2
1000e1e4:	98e6983a 	sll	r19,r19,r3
1000e1e8:	88e2983a 	sll	r17,r17,r3
1000e1ec:	2ce6b03a 	or	r19,r5,r19
1000e1f0:	1c007a16 	blt	r3,r16,1000e3dc <__subdf3+0x3b0>
1000e1f4:	1c21c83a 	sub	r16,r3,r16
1000e1f8:	81400044 	addi	r5,r16,1
1000e1fc:	00c007c4 	movi	r3,31
1000e200:	19409616 	blt	r3,r5,1000e45c <__subdf3+0x430>
1000e204:	1c21c83a 	sub	r16,r3,r16
1000e208:	8c08983a 	sll	r4,r17,r16
1000e20c:	8946d83a 	srl	r3,r17,r5
1000e210:	9c20983a 	sll	r16,r19,r16
1000e214:	2008c03a 	cmpne	r4,r4,zero
1000e218:	994ad83a 	srl	r5,r19,r5
1000e21c:	1c06b03a 	or	r3,r3,r16
1000e220:	1922b03a 	or	r17,r3,r4
1000e224:	0021883a 	mov	r16,zero
1000e228:	003fa306 	br	1000e0b8 <__alt_data_end+0xf800e0b8>
1000e22c:	2880202c 	andhi	r2,r5,128
1000e230:	9200004c 	andi	r8,r18,1
1000e234:	103fac1e 	bne	r2,zero,1000e0e8 <__alt_data_end+0xf800e0e8>
1000e238:	2804977a 	slli	r2,r5,29
1000e23c:	8822d0fa 	srli	r17,r17,3
1000e240:	00c1ffc4 	movi	r3,2047
1000e244:	280ad0fa 	srli	r5,r5,3
1000e248:	1444b03a 	or	r2,r2,r17
1000e24c:	80c02726 	beq	r16,r3,1000e2ec <__subdf3+0x2c0>
1000e250:	01000434 	movhi	r4,16
1000e254:	213fffc4 	addi	r4,r4,-1
1000e258:	80e0703a 	and	r16,r16,r3
1000e25c:	2908703a 	and	r4,r5,r4
1000e260:	003fad06 	br	1000e118 <__alt_data_end+0xf800e118>
1000e264:	0080690e 	bge	zero,r2,1000e40c <__subdf3+0x3e0>
1000e268:	50002f26 	beq	r10,zero,1000e328 <__subdf3+0x2fc>
1000e26c:	0101ffc4 	movi	r4,2047
1000e270:	813f9126 	beq	r16,r4,1000e0b8 <__alt_data_end+0xf800e0b8>
1000e274:	18c02034 	orhi	r3,r3,128
1000e278:	01000e04 	movi	r4,56
1000e27c:	2080b00e 	bge	r4,r2,1000e540 <__subdf3+0x514>
1000e280:	198cb03a 	or	r6,r3,r6
1000e284:	300ec03a 	cmpne	r7,r6,zero
1000e288:	0005883a 	mov	r2,zero
1000e28c:	3c4f883a 	add	r7,r7,r17
1000e290:	3c63803a 	cmpltu	r17,r7,r17
1000e294:	114b883a 	add	r5,r2,r5
1000e298:	2c4b883a 	add	r5,r5,r17
1000e29c:	3823883a 	mov	r17,r7
1000e2a0:	2880202c 	andhi	r2,r5,128
1000e2a4:	10002e26 	beq	r2,zero,1000e360 <__subdf3+0x334>
1000e2a8:	84000044 	addi	r16,r16,1
1000e2ac:	0081ffc4 	movi	r2,2047
1000e2b0:	8080de26 	beq	r16,r2,1000e62c <__subdf3+0x600>
1000e2b4:	00bfe034 	movhi	r2,65408
1000e2b8:	10bfffc4 	addi	r2,r2,-1
1000e2bc:	288a703a 	and	r5,r5,r2
1000e2c0:	880cd07a 	srli	r6,r17,1
1000e2c4:	280897fa 	slli	r4,r5,31
1000e2c8:	88c0004c 	andi	r3,r17,1
1000e2cc:	30e2b03a 	or	r17,r6,r3
1000e2d0:	280ad07a 	srli	r5,r5,1
1000e2d4:	8922b03a 	or	r17,r17,r4
1000e2d8:	003f7706 	br	1000e0b8 <__alt_data_end+0xf800e0b8>
1000e2dc:	1984b03a 	or	r2,r3,r6
1000e2e0:	103f6e26 	beq	r2,zero,1000e09c <__alt_data_end+0xf800e09c>
1000e2e4:	39c03fcc 	andi	r7,r7,255
1000e2e8:	003f6d06 	br	1000e0a0 <__alt_data_end+0xf800e0a0>
1000e2ec:	1146b03a 	or	r3,r2,r5
1000e2f0:	18003f26 	beq	r3,zero,1000e3f0 <__subdf3+0x3c4>
1000e2f4:	00c00434 	movhi	r3,16
1000e2f8:	29000234 	orhi	r4,r5,8
1000e2fc:	18ffffc4 	addi	r3,r3,-1
1000e300:	20c8703a 	and	r4,r4,r3
1000e304:	003f8406 	br	1000e118 <__alt_data_end+0xf800e118>
1000e308:	10bfffc4 	addi	r2,r2,-1
1000e30c:	1000501e 	bne	r2,zero,1000e450 <__subdf3+0x424>
1000e310:	898fc83a 	sub	r7,r17,r6
1000e314:	89e3803a 	cmpltu	r17,r17,r7
1000e318:	28cbc83a 	sub	r5,r5,r3
1000e31c:	2c4bc83a 	sub	r5,r5,r17
1000e320:	3823883a 	mov	r17,r7
1000e324:	003fa106 	br	1000e1ac <__alt_data_end+0xf800e1ac>
1000e328:	1988b03a 	or	r4,r3,r6
1000e32c:	203f6226 	beq	r4,zero,1000e0b8 <__alt_data_end+0xf800e0b8>
1000e330:	10bfffc4 	addi	r2,r2,-1
1000e334:	10009b1e 	bne	r2,zero,1000e5a4 <__subdf3+0x578>
1000e338:	344d883a 	add	r6,r6,r17
1000e33c:	3463803a 	cmpltu	r17,r6,r17
1000e340:	194b883a 	add	r5,r3,r5
1000e344:	2c4b883a 	add	r5,r5,r17
1000e348:	3023883a 	mov	r17,r6
1000e34c:	003fd406 	br	1000e2a0 <__alt_data_end+0xf800e2a0>
1000e350:	1106b03a 	or	r3,r2,r4
1000e354:	1800b426 	beq	r3,zero,1000e628 <__subdf3+0x5fc>
1000e358:	100b883a 	mov	r5,r2
1000e35c:	2023883a 	mov	r17,r4
1000e360:	888001cc 	andi	r2,r17,7
1000e364:	103f561e 	bne	r2,zero,1000e0c0 <__alt_data_end+0xf800e0c0>
1000e368:	9200004c 	andi	r8,r18,1
1000e36c:	003fb206 	br	1000e238 <__alt_data_end+0xf800e238>
1000e370:	1000531e 	bne	r2,zero,1000e4c0 <__subdf3+0x494>
1000e374:	80800044 	addi	r2,r16,1
1000e378:	1081ffcc 	andi	r2,r2,2047
1000e37c:	01000044 	movi	r4,1
1000e380:	2080a00e 	bge	r4,r2,1000e604 <__subdf3+0x5d8>
1000e384:	8985c83a 	sub	r2,r17,r6
1000e388:	8889803a 	cmpltu	r4,r17,r2
1000e38c:	28e7c83a 	sub	r19,r5,r3
1000e390:	9927c83a 	sub	r19,r19,r4
1000e394:	9900202c 	andhi	r4,r19,128
1000e398:	20006226 	beq	r4,zero,1000e524 <__subdf3+0x4f8>
1000e39c:	3463c83a 	sub	r17,r6,r17
1000e3a0:	194bc83a 	sub	r5,r3,r5
1000e3a4:	344d803a 	cmpltu	r6,r6,r17
1000e3a8:	29a7c83a 	sub	r19,r5,r6
1000e3ac:	3825883a 	mov	r18,r7
1000e3b0:	983f841e 	bne	r19,zero,1000e1c4 <__alt_data_end+0xf800e1c4>
1000e3b4:	8809883a 	mov	r4,r17
1000e3b8:	000eaf80 	call	1000eaf8 <__clzsi2>
1000e3bc:	10800804 	addi	r2,r2,32
1000e3c0:	10fffe04 	addi	r3,r2,-8
1000e3c4:	010007c4 	movi	r4,31
1000e3c8:	20ff830e 	bge	r4,r3,1000e1d8 <__alt_data_end+0xf800e1d8>
1000e3cc:	14fff604 	addi	r19,r2,-40
1000e3d0:	8ce6983a 	sll	r19,r17,r19
1000e3d4:	0023883a 	mov	r17,zero
1000e3d8:	1c3f860e 	bge	r3,r16,1000e1f4 <__alt_data_end+0xf800e1f4>
1000e3dc:	017fe034 	movhi	r5,65408
1000e3e0:	297fffc4 	addi	r5,r5,-1
1000e3e4:	80e1c83a 	sub	r16,r16,r3
1000e3e8:	994a703a 	and	r5,r19,r5
1000e3ec:	003f3206 	br	1000e0b8 <__alt_data_end+0xf800e0b8>
1000e3f0:	0009883a 	mov	r4,zero
1000e3f4:	0005883a 	mov	r2,zero
1000e3f8:	003f4706 	br	1000e118 <__alt_data_end+0xf800e118>
1000e3fc:	198cb03a 	or	r6,r3,r6
1000e400:	300cc03a 	cmpne	r6,r6,zero
1000e404:	0005883a 	mov	r2,zero
1000e408:	003f6306 	br	1000e198 <__alt_data_end+0xf800e198>
1000e40c:	10009d1e 	bne	r2,zero,1000e684 <__subdf3+0x658>
1000e410:	81c00044 	addi	r7,r16,1
1000e414:	3881ffcc 	andi	r2,r7,2047
1000e418:	02400044 	movi	r9,1
1000e41c:	4880680e 	bge	r9,r2,1000e5c0 <__subdf3+0x594>
1000e420:	0081ffc4 	movi	r2,2047
1000e424:	3880ae26 	beq	r7,r2,1000e6e0 <__subdf3+0x6b4>
1000e428:	344d883a 	add	r6,r6,r17
1000e42c:	3463803a 	cmpltu	r17,r6,r17
1000e430:	194b883a 	add	r5,r3,r5
1000e434:	2c4b883a 	add	r5,r5,r17
1000e438:	282297fa 	slli	r17,r5,31
1000e43c:	300cd07a 	srli	r6,r6,1
1000e440:	280ad07a 	srli	r5,r5,1
1000e444:	3821883a 	mov	r16,r7
1000e448:	89a2b03a 	or	r17,r17,r6
1000e44c:	003f1a06 	br	1000e0b8 <__alt_data_end+0xf800e0b8>
1000e450:	0101ffc4 	movi	r4,2047
1000e454:	813f431e 	bne	r16,r4,1000e164 <__alt_data_end+0xf800e164>
1000e458:	003f1706 	br	1000e0b8 <__alt_data_end+0xf800e0b8>
1000e45c:	80bff844 	addi	r2,r16,-31
1000e460:	00c00804 	movi	r3,32
1000e464:	9884d83a 	srl	r2,r19,r2
1000e468:	28c05126 	beq	r5,r3,1000e5b0 <__subdf3+0x584>
1000e46c:	00c00fc4 	movi	r3,63
1000e470:	1c21c83a 	sub	r16,r3,r16
1000e474:	9c26983a 	sll	r19,r19,r16
1000e478:	9c62b03a 	or	r17,r19,r17
1000e47c:	8822c03a 	cmpne	r17,r17,zero
1000e480:	88a2b03a 	or	r17,r17,r2
1000e484:	000b883a 	mov	r5,zero
1000e488:	0021883a 	mov	r16,zero
1000e48c:	003fb406 	br	1000e360 <__alt_data_end+0xf800e360>
1000e490:	113ff804 	addi	r4,r2,-32
1000e494:	01c00804 	movi	r7,32
1000e498:	1908d83a 	srl	r4,r3,r4
1000e49c:	11c04626 	beq	r2,r7,1000e5b8 <__subdf3+0x58c>
1000e4a0:	01c01004 	movi	r7,64
1000e4a4:	3885c83a 	sub	r2,r7,r2
1000e4a8:	1884983a 	sll	r2,r3,r2
1000e4ac:	118cb03a 	or	r6,r2,r6
1000e4b0:	300cc03a 	cmpne	r6,r6,zero
1000e4b4:	310cb03a 	or	r6,r6,r4
1000e4b8:	0005883a 	mov	r2,zero
1000e4bc:	003f3606 	br	1000e198 <__alt_data_end+0xf800e198>
1000e4c0:	80002b26 	beq	r16,zero,1000e570 <__subdf3+0x544>
1000e4c4:	0101ffc4 	movi	r4,2047
1000e4c8:	51006926 	beq	r10,r4,1000e670 <__subdf3+0x644>
1000e4cc:	0085c83a 	sub	r2,zero,r2
1000e4d0:	29402034 	orhi	r5,r5,128
1000e4d4:	01000e04 	movi	r4,56
1000e4d8:	20807d16 	blt	r4,r2,1000e6d0 <__subdf3+0x6a4>
1000e4dc:	010007c4 	movi	r4,31
1000e4e0:	2080d916 	blt	r4,r2,1000e848 <__subdf3+0x81c>
1000e4e4:	01000804 	movi	r4,32
1000e4e8:	2089c83a 	sub	r4,r4,r2
1000e4ec:	2912983a 	sll	r9,r5,r4
1000e4f0:	8890d83a 	srl	r8,r17,r2
1000e4f4:	8908983a 	sll	r4,r17,r4
1000e4f8:	2884d83a 	srl	r2,r5,r2
1000e4fc:	4a22b03a 	or	r17,r9,r8
1000e500:	2008c03a 	cmpne	r4,r4,zero
1000e504:	8922b03a 	or	r17,r17,r4
1000e508:	3463c83a 	sub	r17,r6,r17
1000e50c:	1885c83a 	sub	r2,r3,r2
1000e510:	344d803a 	cmpltu	r6,r6,r17
1000e514:	118bc83a 	sub	r5,r2,r6
1000e518:	5021883a 	mov	r16,r10
1000e51c:	3825883a 	mov	r18,r7
1000e520:	003f2206 	br	1000e1ac <__alt_data_end+0xf800e1ac>
1000e524:	9886b03a 	or	r3,r19,r2
1000e528:	18001c1e 	bne	r3,zero,1000e59c <__subdf3+0x570>
1000e52c:	0011883a 	mov	r8,zero
1000e530:	000b883a 	mov	r5,zero
1000e534:	0023883a 	mov	r17,zero
1000e538:	0021883a 	mov	r16,zero
1000e53c:	003f3e06 	br	1000e238 <__alt_data_end+0xf800e238>
1000e540:	010007c4 	movi	r4,31
1000e544:	20803c16 	blt	r4,r2,1000e638 <__subdf3+0x60c>
1000e548:	01000804 	movi	r4,32
1000e54c:	2089c83a 	sub	r4,r4,r2
1000e550:	1912983a 	sll	r9,r3,r4
1000e554:	308ed83a 	srl	r7,r6,r2
1000e558:	3108983a 	sll	r4,r6,r4
1000e55c:	1884d83a 	srl	r2,r3,r2
1000e560:	49ceb03a 	or	r7,r9,r7
1000e564:	2008c03a 	cmpne	r4,r4,zero
1000e568:	390eb03a 	or	r7,r7,r4
1000e56c:	003f4706 	br	1000e28c <__alt_data_end+0xf800e28c>
1000e570:	2c48b03a 	or	r4,r5,r17
1000e574:	20003e26 	beq	r4,zero,1000e670 <__subdf3+0x644>
1000e578:	0084303a 	nor	r2,zero,r2
1000e57c:	10003a1e 	bne	r2,zero,1000e668 <__subdf3+0x63c>
1000e580:	3463c83a 	sub	r17,r6,r17
1000e584:	194bc83a 	sub	r5,r3,r5
1000e588:	344d803a 	cmpltu	r6,r6,r17
1000e58c:	298bc83a 	sub	r5,r5,r6
1000e590:	5021883a 	mov	r16,r10
1000e594:	3825883a 	mov	r18,r7
1000e598:	003f0406 	br	1000e1ac <__alt_data_end+0xf800e1ac>
1000e59c:	1023883a 	mov	r17,r2
1000e5a0:	003f0706 	br	1000e1c0 <__alt_data_end+0xf800e1c0>
1000e5a4:	0101ffc4 	movi	r4,2047
1000e5a8:	813f331e 	bne	r16,r4,1000e278 <__alt_data_end+0xf800e278>
1000e5ac:	003ec206 	br	1000e0b8 <__alt_data_end+0xf800e0b8>
1000e5b0:	0027883a 	mov	r19,zero
1000e5b4:	003fb006 	br	1000e478 <__alt_data_end+0xf800e478>
1000e5b8:	0005883a 	mov	r2,zero
1000e5bc:	003fbb06 	br	1000e4ac <__alt_data_end+0xf800e4ac>
1000e5c0:	2c44b03a 	or	r2,r5,r17
1000e5c4:	80008b1e 	bne	r16,zero,1000e7f4 <__subdf3+0x7c8>
1000e5c8:	1000b526 	beq	r2,zero,1000e8a0 <__subdf3+0x874>
1000e5cc:	1984b03a 	or	r2,r3,r6
1000e5d0:	103eb926 	beq	r2,zero,1000e0b8 <__alt_data_end+0xf800e0b8>
1000e5d4:	3449883a 	add	r4,r6,r17
1000e5d8:	2463803a 	cmpltu	r17,r4,r17
1000e5dc:	194b883a 	add	r5,r3,r5
1000e5e0:	2c4b883a 	add	r5,r5,r17
1000e5e4:	2880202c 	andhi	r2,r5,128
1000e5e8:	2023883a 	mov	r17,r4
1000e5ec:	103f5c26 	beq	r2,zero,1000e360 <__alt_data_end+0xf800e360>
1000e5f0:	00bfe034 	movhi	r2,65408
1000e5f4:	10bfffc4 	addi	r2,r2,-1
1000e5f8:	4821883a 	mov	r16,r9
1000e5fc:	288a703a 	and	r5,r5,r2
1000e600:	003ead06 	br	1000e0b8 <__alt_data_end+0xf800e0b8>
1000e604:	2c44b03a 	or	r2,r5,r17
1000e608:	8000291e 	bne	r16,zero,1000e6b0 <__subdf3+0x684>
1000e60c:	10004f1e 	bne	r2,zero,1000e74c <__subdf3+0x720>
1000e610:	1984b03a 	or	r2,r3,r6
1000e614:	10000426 	beq	r2,zero,1000e628 <__subdf3+0x5fc>
1000e618:	180b883a 	mov	r5,r3
1000e61c:	3023883a 	mov	r17,r6
1000e620:	3825883a 	mov	r18,r7
1000e624:	003ea406 	br	1000e0b8 <__alt_data_end+0xf800e0b8>
1000e628:	0011883a 	mov	r8,zero
1000e62c:	000b883a 	mov	r5,zero
1000e630:	0023883a 	mov	r17,zero
1000e634:	003f0006 	br	1000e238 <__alt_data_end+0xf800e238>
1000e638:	11fff804 	addi	r7,r2,-32
1000e63c:	19c8d83a 	srl	r4,r3,r7
1000e640:	01c00804 	movi	r7,32
1000e644:	11c07e26 	beq	r2,r7,1000e840 <__subdf3+0x814>
1000e648:	01c01004 	movi	r7,64
1000e64c:	3885c83a 	sub	r2,r7,r2
1000e650:	1884983a 	sll	r2,r3,r2
1000e654:	118cb03a 	or	r6,r2,r6
1000e658:	300ec03a 	cmpne	r7,r6,zero
1000e65c:	390eb03a 	or	r7,r7,r4
1000e660:	0005883a 	mov	r2,zero
1000e664:	003f0906 	br	1000e28c <__alt_data_end+0xf800e28c>
1000e668:	0101ffc4 	movi	r4,2047
1000e66c:	513f991e 	bne	r10,r4,1000e4d4 <__alt_data_end+0xf800e4d4>
1000e670:	180b883a 	mov	r5,r3
1000e674:	3023883a 	mov	r17,r6
1000e678:	5021883a 	mov	r16,r10
1000e67c:	3825883a 	mov	r18,r7
1000e680:	003e8d06 	br	1000e0b8 <__alt_data_end+0xf800e0b8>
1000e684:	80001a1e 	bne	r16,zero,1000e6f0 <__subdf3+0x6c4>
1000e688:	2c48b03a 	or	r4,r5,r17
1000e68c:	20005526 	beq	r4,zero,1000e7e4 <__subdf3+0x7b8>
1000e690:	0084303a 	nor	r2,zero,r2
1000e694:	1000511e 	bne	r2,zero,1000e7dc <__subdf3+0x7b0>
1000e698:	89a3883a 	add	r17,r17,r6
1000e69c:	194b883a 	add	r5,r3,r5
1000e6a0:	898d803a 	cmpltu	r6,r17,r6
1000e6a4:	298b883a 	add	r5,r5,r6
1000e6a8:	5021883a 	mov	r16,r10
1000e6ac:	003efc06 	br	1000e2a0 <__alt_data_end+0xf800e2a0>
1000e6b0:	1000341e 	bne	r2,zero,1000e784 <__subdf3+0x758>
1000e6b4:	1984b03a 	or	r2,r3,r6
1000e6b8:	10006f26 	beq	r2,zero,1000e878 <__subdf3+0x84c>
1000e6bc:	180b883a 	mov	r5,r3
1000e6c0:	3023883a 	mov	r17,r6
1000e6c4:	3825883a 	mov	r18,r7
1000e6c8:	0401ffc4 	movi	r16,2047
1000e6cc:	003e7a06 	br	1000e0b8 <__alt_data_end+0xf800e0b8>
1000e6d0:	2c62b03a 	or	r17,r5,r17
1000e6d4:	8822c03a 	cmpne	r17,r17,zero
1000e6d8:	0005883a 	mov	r2,zero
1000e6dc:	003f8a06 	br	1000e508 <__alt_data_end+0xf800e508>
1000e6e0:	3821883a 	mov	r16,r7
1000e6e4:	000b883a 	mov	r5,zero
1000e6e8:	0023883a 	mov	r17,zero
1000e6ec:	003ed206 	br	1000e238 <__alt_data_end+0xf800e238>
1000e6f0:	0101ffc4 	movi	r4,2047
1000e6f4:	51003b26 	beq	r10,r4,1000e7e4 <__subdf3+0x7b8>
1000e6f8:	0085c83a 	sub	r2,zero,r2
1000e6fc:	29402034 	orhi	r5,r5,128
1000e700:	01000e04 	movi	r4,56
1000e704:	20806216 	blt	r4,r2,1000e890 <__subdf3+0x864>
1000e708:	010007c4 	movi	r4,31
1000e70c:	20806b16 	blt	r4,r2,1000e8bc <__subdf3+0x890>
1000e710:	01000804 	movi	r4,32
1000e714:	2089c83a 	sub	r4,r4,r2
1000e718:	2912983a 	sll	r9,r5,r4
1000e71c:	888ed83a 	srl	r7,r17,r2
1000e720:	8908983a 	sll	r4,r17,r4
1000e724:	2884d83a 	srl	r2,r5,r2
1000e728:	49e2b03a 	or	r17,r9,r7
1000e72c:	2008c03a 	cmpne	r4,r4,zero
1000e730:	8922b03a 	or	r17,r17,r4
1000e734:	89a3883a 	add	r17,r17,r6
1000e738:	10c5883a 	add	r2,r2,r3
1000e73c:	898d803a 	cmpltu	r6,r17,r6
1000e740:	118b883a 	add	r5,r2,r6
1000e744:	5021883a 	mov	r16,r10
1000e748:	003ed506 	br	1000e2a0 <__alt_data_end+0xf800e2a0>
1000e74c:	1984b03a 	or	r2,r3,r6
1000e750:	103e5926 	beq	r2,zero,1000e0b8 <__alt_data_end+0xf800e0b8>
1000e754:	8989c83a 	sub	r4,r17,r6
1000e758:	8911803a 	cmpltu	r8,r17,r4
1000e75c:	28c5c83a 	sub	r2,r5,r3
1000e760:	1205c83a 	sub	r2,r2,r8
1000e764:	1200202c 	andhi	r8,r2,128
1000e768:	403ef926 	beq	r8,zero,1000e350 <__alt_data_end+0xf800e350>
1000e76c:	3463c83a 	sub	r17,r6,r17
1000e770:	194bc83a 	sub	r5,r3,r5
1000e774:	344d803a 	cmpltu	r6,r6,r17
1000e778:	298bc83a 	sub	r5,r5,r6
1000e77c:	3825883a 	mov	r18,r7
1000e780:	003e4d06 	br	1000e0b8 <__alt_data_end+0xf800e0b8>
1000e784:	1984b03a 	or	r2,r3,r6
1000e788:	10002b26 	beq	r2,zero,1000e838 <__subdf3+0x80c>
1000e78c:	2808d0fa 	srli	r4,r5,3
1000e790:	8822d0fa 	srli	r17,r17,3
1000e794:	280a977a 	slli	r5,r5,29
1000e798:	2080022c 	andhi	r2,r4,8
1000e79c:	2c62b03a 	or	r17,r5,r17
1000e7a0:	10000826 	beq	r2,zero,1000e7c4 <__subdf3+0x798>
1000e7a4:	1810d0fa 	srli	r8,r3,3
1000e7a8:	4080022c 	andhi	r2,r8,8
1000e7ac:	1000051e 	bne	r2,zero,1000e7c4 <__subdf3+0x798>
1000e7b0:	300cd0fa 	srli	r6,r6,3
1000e7b4:	1804977a 	slli	r2,r3,29
1000e7b8:	4009883a 	mov	r4,r8
1000e7bc:	3825883a 	mov	r18,r7
1000e7c0:	11a2b03a 	or	r17,r2,r6
1000e7c4:	880ad77a 	srli	r5,r17,29
1000e7c8:	200890fa 	slli	r4,r4,3
1000e7cc:	882290fa 	slli	r17,r17,3
1000e7d0:	0401ffc4 	movi	r16,2047
1000e7d4:	290ab03a 	or	r5,r5,r4
1000e7d8:	003e3706 	br	1000e0b8 <__alt_data_end+0xf800e0b8>
1000e7dc:	0101ffc4 	movi	r4,2047
1000e7e0:	513fc71e 	bne	r10,r4,1000e700 <__alt_data_end+0xf800e700>
1000e7e4:	180b883a 	mov	r5,r3
1000e7e8:	3023883a 	mov	r17,r6
1000e7ec:	5021883a 	mov	r16,r10
1000e7f0:	003e3106 	br	1000e0b8 <__alt_data_end+0xf800e0b8>
1000e7f4:	10002d26 	beq	r2,zero,1000e8ac <__subdf3+0x880>
1000e7f8:	1984b03a 	or	r2,r3,r6
1000e7fc:	10000e26 	beq	r2,zero,1000e838 <__subdf3+0x80c>
1000e800:	2808d0fa 	srli	r4,r5,3
1000e804:	8822d0fa 	srli	r17,r17,3
1000e808:	280a977a 	slli	r5,r5,29
1000e80c:	2080022c 	andhi	r2,r4,8
1000e810:	2c62b03a 	or	r17,r5,r17
1000e814:	103feb26 	beq	r2,zero,1000e7c4 <__alt_data_end+0xf800e7c4>
1000e818:	180ed0fa 	srli	r7,r3,3
1000e81c:	3880022c 	andhi	r2,r7,8
1000e820:	103fe81e 	bne	r2,zero,1000e7c4 <__alt_data_end+0xf800e7c4>
1000e824:	300cd0fa 	srli	r6,r6,3
1000e828:	1804977a 	slli	r2,r3,29
1000e82c:	3809883a 	mov	r4,r7
1000e830:	11a2b03a 	or	r17,r2,r6
1000e834:	003fe306 	br	1000e7c4 <__alt_data_end+0xf800e7c4>
1000e838:	0401ffc4 	movi	r16,2047
1000e83c:	003e1e06 	br	1000e0b8 <__alt_data_end+0xf800e0b8>
1000e840:	0005883a 	mov	r2,zero
1000e844:	003f8306 	br	1000e654 <__alt_data_end+0xf800e654>
1000e848:	113ff804 	addi	r4,r2,-32
1000e84c:	02000804 	movi	r8,32
1000e850:	2908d83a 	srl	r4,r5,r4
1000e854:	12002526 	beq	r2,r8,1000e8ec <__subdf3+0x8c0>
1000e858:	02001004 	movi	r8,64
1000e85c:	4085c83a 	sub	r2,r8,r2
1000e860:	288a983a 	sll	r5,r5,r2
1000e864:	2c62b03a 	or	r17,r5,r17
1000e868:	8822c03a 	cmpne	r17,r17,zero
1000e86c:	8922b03a 	or	r17,r17,r4
1000e870:	0005883a 	mov	r2,zero
1000e874:	003f2406 	br	1000e508 <__alt_data_end+0xf800e508>
1000e878:	01402034 	movhi	r5,128
1000e87c:	0011883a 	mov	r8,zero
1000e880:	297fffc4 	addi	r5,r5,-1
1000e884:	047ffe04 	movi	r17,-8
1000e888:	0401ffc4 	movi	r16,2047
1000e88c:	003e6a06 	br	1000e238 <__alt_data_end+0xf800e238>
1000e890:	2c62b03a 	or	r17,r5,r17
1000e894:	8822c03a 	cmpne	r17,r17,zero
1000e898:	0005883a 	mov	r2,zero
1000e89c:	003fa506 	br	1000e734 <__alt_data_end+0xf800e734>
1000e8a0:	180b883a 	mov	r5,r3
1000e8a4:	3023883a 	mov	r17,r6
1000e8a8:	003e0306 	br	1000e0b8 <__alt_data_end+0xf800e0b8>
1000e8ac:	180b883a 	mov	r5,r3
1000e8b0:	3023883a 	mov	r17,r6
1000e8b4:	0401ffc4 	movi	r16,2047
1000e8b8:	003dff06 	br	1000e0b8 <__alt_data_end+0xf800e0b8>
1000e8bc:	113ff804 	addi	r4,r2,-32
1000e8c0:	01c00804 	movi	r7,32
1000e8c4:	2908d83a 	srl	r4,r5,r4
1000e8c8:	11c00a26 	beq	r2,r7,1000e8f4 <__subdf3+0x8c8>
1000e8cc:	01c01004 	movi	r7,64
1000e8d0:	3885c83a 	sub	r2,r7,r2
1000e8d4:	288a983a 	sll	r5,r5,r2
1000e8d8:	2c62b03a 	or	r17,r5,r17
1000e8dc:	8822c03a 	cmpne	r17,r17,zero
1000e8e0:	8922b03a 	or	r17,r17,r4
1000e8e4:	0005883a 	mov	r2,zero
1000e8e8:	003f9206 	br	1000e734 <__alt_data_end+0xf800e734>
1000e8ec:	000b883a 	mov	r5,zero
1000e8f0:	003fdc06 	br	1000e864 <__alt_data_end+0xf800e864>
1000e8f4:	000b883a 	mov	r5,zero
1000e8f8:	003ff706 	br	1000e8d8 <__alt_data_end+0xf800e8d8>

1000e8fc <__fixdfsi>:
1000e8fc:	2806d53a 	srli	r3,r5,20
1000e900:	00800434 	movhi	r2,16
1000e904:	10bfffc4 	addi	r2,r2,-1
1000e908:	18c1ffcc 	andi	r3,r3,2047
1000e90c:	0180ff84 	movi	r6,1022
1000e910:	2884703a 	and	r2,r5,r2
1000e914:	280ad7fa 	srli	r5,r5,31
1000e918:	30c0130e 	bge	r6,r3,1000e968 <__fixdfsi+0x6c>
1000e91c:	01810744 	movi	r6,1053
1000e920:	30c00d16 	blt	r6,r3,1000e958 <__fixdfsi+0x5c>
1000e924:	01810cc4 	movi	r6,1075
1000e928:	30cdc83a 	sub	r6,r6,r3
1000e92c:	01c007c4 	movi	r7,31
1000e930:	10800434 	orhi	r2,r2,16
1000e934:	39800e0e 	bge	r7,r6,1000e970 <__fixdfsi+0x74>
1000e938:	010104c4 	movi	r4,1043
1000e93c:	20c7c83a 	sub	r3,r4,r3
1000e940:	10c6d83a 	srl	r3,r2,r3
1000e944:	29403fcc 	andi	r5,r5,255
1000e948:	0145c83a 	sub	r2,zero,r5
1000e94c:	1884f03a 	xor	r2,r3,r2
1000e950:	1145883a 	add	r2,r2,r5
1000e954:	f800283a 	ret
1000e958:	00a00034 	movhi	r2,32768
1000e95c:	10bfffc4 	addi	r2,r2,-1
1000e960:	2885883a 	add	r2,r5,r2
1000e964:	f800283a 	ret
1000e968:	0005883a 	mov	r2,zero
1000e96c:	f800283a 	ret
1000e970:	18fefb44 	addi	r3,r3,-1043
1000e974:	2188d83a 	srl	r4,r4,r6
1000e978:	10c6983a 	sll	r3,r2,r3
1000e97c:	20c6b03a 	or	r3,r4,r3
1000e980:	003ff006 	br	1000e944 <__alt_data_end+0xf800e944>

1000e984 <__floatsidf>:
1000e984:	defffd04 	addi	sp,sp,-12
1000e988:	dc400115 	stw	r17,4(sp)
1000e98c:	dfc00215 	stw	ra,8(sp)
1000e990:	dc000015 	stw	r16,0(sp)
1000e994:	2023883a 	mov	r17,r4
1000e998:	20001426 	beq	r4,zero,1000e9ec <__floatsidf+0x68>
1000e99c:	2020d7fa 	srli	r16,r4,31
1000e9a0:	80000126 	beq	r16,zero,1000e9a8 <__floatsidf+0x24>
1000e9a4:	0123c83a 	sub	r17,zero,r4
1000e9a8:	8809883a 	mov	r4,r17
1000e9ac:	000eaf80 	call	1000eaf8 <__clzsi2>
1000e9b0:	01410784 	movi	r5,1054
1000e9b4:	00c00284 	movi	r3,10
1000e9b8:	288bc83a 	sub	r5,r5,r2
1000e9bc:	18801c16 	blt	r3,r2,1000ea30 <__floatsidf+0xac>
1000e9c0:	00c002c4 	movi	r3,11
1000e9c4:	1887c83a 	sub	r3,r3,r2
1000e9c8:	88c8d83a 	srl	r4,r17,r3
1000e9cc:	00c00434 	movhi	r3,16
1000e9d0:	18ffffc4 	addi	r3,r3,-1
1000e9d4:	10800544 	addi	r2,r2,21
1000e9d8:	20c8703a 	and	r4,r4,r3
1000e9dc:	8884983a 	sll	r2,r17,r2
1000e9e0:	28c1ffcc 	andi	r3,r5,2047
1000e9e4:	800d883a 	mov	r6,r16
1000e9e8:	00000406 	br	1000e9fc <__floatsidf+0x78>
1000e9ec:	000d883a 	mov	r6,zero
1000e9f0:	0007883a 	mov	r3,zero
1000e9f4:	0009883a 	mov	r4,zero
1000e9f8:	0005883a 	mov	r2,zero
1000e9fc:	180a953a 	slli	r5,r3,20
1000ea00:	31803fcc 	andi	r6,r6,255
1000ea04:	00c00434 	movhi	r3,16
1000ea08:	300c97fa 	slli	r6,r6,31
1000ea0c:	18ffffc4 	addi	r3,r3,-1
1000ea10:	20c6703a 	and	r3,r4,r3
1000ea14:	1946b03a 	or	r3,r3,r5
1000ea18:	1986b03a 	or	r3,r3,r6
1000ea1c:	dfc00217 	ldw	ra,8(sp)
1000ea20:	dc400117 	ldw	r17,4(sp)
1000ea24:	dc000017 	ldw	r16,0(sp)
1000ea28:	dec00304 	addi	sp,sp,12
1000ea2c:	f800283a 	ret
1000ea30:	10fffd44 	addi	r3,r2,-11
1000ea34:	88c8983a 	sll	r4,r17,r3
1000ea38:	00800434 	movhi	r2,16
1000ea3c:	10bfffc4 	addi	r2,r2,-1
1000ea40:	2088703a 	and	r4,r4,r2
1000ea44:	28c1ffcc 	andi	r3,r5,2047
1000ea48:	800d883a 	mov	r6,r16
1000ea4c:	0005883a 	mov	r2,zero
1000ea50:	003fea06 	br	1000e9fc <__alt_data_end+0xf800e9fc>

1000ea54 <__floatunsidf>:
1000ea54:	defffe04 	addi	sp,sp,-8
1000ea58:	dc000015 	stw	r16,0(sp)
1000ea5c:	dfc00115 	stw	ra,4(sp)
1000ea60:	2021883a 	mov	r16,r4
1000ea64:	20001026 	beq	r4,zero,1000eaa8 <__floatunsidf+0x54>
1000ea68:	000eaf80 	call	1000eaf8 <__clzsi2>
1000ea6c:	01410784 	movi	r5,1054
1000ea70:	100d883a 	mov	r6,r2
1000ea74:	288bc83a 	sub	r5,r5,r2
1000ea78:	00800284 	movi	r2,10
1000ea7c:	11801616 	blt	r2,r6,1000ead8 <__floatunsidf+0x84>
1000ea80:	008002c4 	movi	r2,11
1000ea84:	1185c83a 	sub	r2,r2,r6
1000ea88:	8084d83a 	srl	r2,r16,r2
1000ea8c:	00c00434 	movhi	r3,16
1000ea90:	31c00544 	addi	r7,r6,21
1000ea94:	18ffffc4 	addi	r3,r3,-1
1000ea98:	81e0983a 	sll	r16,r16,r7
1000ea9c:	10cc703a 	and	r6,r2,r3
1000eaa0:	2941ffcc 	andi	r5,r5,2047
1000eaa4:	00000206 	br	1000eab0 <__floatunsidf+0x5c>
1000eaa8:	000b883a 	mov	r5,zero
1000eaac:	000d883a 	mov	r6,zero
1000eab0:	280a953a 	slli	r5,r5,20
1000eab4:	00c00434 	movhi	r3,16
1000eab8:	18ffffc4 	addi	r3,r3,-1
1000eabc:	30c6703a 	and	r3,r6,r3
1000eac0:	8005883a 	mov	r2,r16
1000eac4:	1946b03a 	or	r3,r3,r5
1000eac8:	dfc00117 	ldw	ra,4(sp)
1000eacc:	dc000017 	ldw	r16,0(sp)
1000ead0:	dec00204 	addi	sp,sp,8
1000ead4:	f800283a 	ret
1000ead8:	31bffd44 	addi	r6,r6,-11
1000eadc:	818c983a 	sll	r6,r16,r6
1000eae0:	00800434 	movhi	r2,16
1000eae4:	10bfffc4 	addi	r2,r2,-1
1000eae8:	2941ffcc 	andi	r5,r5,2047
1000eaec:	0021883a 	mov	r16,zero
1000eaf0:	308c703a 	and	r6,r6,r2
1000eaf4:	003fee06 	br	1000eab0 <__alt_data_end+0xf800eab0>

1000eaf8 <__clzsi2>:
1000eaf8:	00bfffd4 	movui	r2,65535
1000eafc:	11000b36 	bltu	r2,r4,1000eb2c <__clzsi2+0x34>
1000eb00:	00803fc4 	movi	r2,255
1000eb04:	1100122e 	bgeu	r2,r4,1000eb50 <__clzsi2+0x58>
1000eb08:	00c00204 	movi	r3,8
1000eb0c:	01400604 	movi	r5,24
1000eb10:	20c8d83a 	srl	r4,r4,r3
1000eb14:	00840074 	movhi	r2,4097
1000eb18:	10873b04 	addi	r2,r2,7404
1000eb1c:	1109883a 	add	r4,r2,r4
1000eb20:	20800003 	ldbu	r2,0(r4)
1000eb24:	2885c83a 	sub	r2,r5,r2
1000eb28:	f800283a 	ret
1000eb2c:	00804034 	movhi	r2,256
1000eb30:	10bfffc4 	addi	r2,r2,-1
1000eb34:	11000336 	bltu	r2,r4,1000eb44 <__clzsi2+0x4c>
1000eb38:	00c00404 	movi	r3,16
1000eb3c:	180b883a 	mov	r5,r3
1000eb40:	003ff306 	br	1000eb10 <__alt_data_end+0xf800eb10>
1000eb44:	00c00604 	movi	r3,24
1000eb48:	01400204 	movi	r5,8
1000eb4c:	003ff006 	br	1000eb10 <__alt_data_end+0xf800eb10>
1000eb50:	0007883a 	mov	r3,zero
1000eb54:	01400804 	movi	r5,32
1000eb58:	003fed06 	br	1000eb10 <__alt_data_end+0xf800eb10>

1000eb5c <alt_get_errno>:
#undef errno

extern int errno;

static ALT_INLINE int* alt_get_errno(void)
{
1000eb5c:	defffe04 	addi	sp,sp,-8
1000eb60:	dfc00115 	stw	ra,4(sp)
1000eb64:	df000015 	stw	fp,0(sp)
1000eb68:	d839883a 	mov	fp,sp
  return ((alt_errno) ? alt_errno() : &errno);
1000eb6c:	00840074 	movhi	r2,4097
1000eb70:	108e3e04 	addi	r2,r2,14584
1000eb74:	10800017 	ldw	r2,0(r2)
1000eb78:	10000526 	beq	r2,zero,1000eb90 <alt_get_errno+0x34>
1000eb7c:	00840074 	movhi	r2,4097
1000eb80:	108e3e04 	addi	r2,r2,14584
1000eb84:	10800017 	ldw	r2,0(r2)
1000eb88:	103ee83a 	callr	r2
1000eb8c:	00000206 	br	1000eb98 <alt_get_errno+0x3c>
1000eb90:	00840074 	movhi	r2,4097
1000eb94:	10950504 	addi	r2,r2,21524
}
1000eb98:	e037883a 	mov	sp,fp
1000eb9c:	dfc00117 	ldw	ra,4(sp)
1000eba0:	df000017 	ldw	fp,0(sp)
1000eba4:	dec00204 	addi	sp,sp,8
1000eba8:	f800283a 	ret

1000ebac <close>:
 *
 * ALT_CLOSE is mapped onto the close() system call in alt_syscall.h
 */
 
int ALT_CLOSE (int fildes)
{
1000ebac:	defffb04 	addi	sp,sp,-20
1000ebb0:	dfc00415 	stw	ra,16(sp)
1000ebb4:	df000315 	stw	fp,12(sp)
1000ebb8:	df000304 	addi	fp,sp,12
1000ebbc:	e13fff15 	stw	r4,-4(fp)
   * A common error case is that when the file descriptor was created, the call
   * to open() failed resulting in a negative file descriptor. This is trapped
   * below so that we don't try and process an invalid file descriptor.
   */

  fd = (fildes < 0) ? NULL : &alt_fd_list[fildes];
1000ebc0:	e0bfff17 	ldw	r2,-4(fp)
1000ebc4:	10000816 	blt	r2,zero,1000ebe8 <close+0x3c>
1000ebc8:	e13fff17 	ldw	r4,-4(fp)
1000ebcc:	01400304 	movi	r5,12
1000ebd0:	000c3380 	call	1000c338 <__mulsi3>
1000ebd4:	1007883a 	mov	r3,r2
1000ebd8:	00840074 	movhi	r2,4097
1000ebdc:	1089bb04 	addi	r2,r2,9964
1000ebe0:	1885883a 	add	r2,r3,r2
1000ebe4:	00000106 	br	1000ebec <close+0x40>
1000ebe8:	0005883a 	mov	r2,zero
1000ebec:	e0bffd15 	stw	r2,-12(fp)

  if (fd)
1000ebf0:	e0bffd17 	ldw	r2,-12(fp)
1000ebf4:	10001926 	beq	r2,zero,1000ec5c <close+0xb0>
    /*
     * If the associated file system/device has a close function, call it so 
     * that any necessary cleanup code can run.
     */

    rval = (fd->dev->close) ? fd->dev->close(fd) : 0;
1000ebf8:	e0bffd17 	ldw	r2,-12(fp)
1000ebfc:	10800017 	ldw	r2,0(r2)
1000ec00:	10800417 	ldw	r2,16(r2)
1000ec04:	10000626 	beq	r2,zero,1000ec20 <close+0x74>
1000ec08:	e0bffd17 	ldw	r2,-12(fp)
1000ec0c:	10800017 	ldw	r2,0(r2)
1000ec10:	10800417 	ldw	r2,16(r2)
1000ec14:	e13ffd17 	ldw	r4,-12(fp)
1000ec18:	103ee83a 	callr	r2
1000ec1c:	00000106 	br	1000ec24 <close+0x78>
1000ec20:	0005883a 	mov	r2,zero
1000ec24:	e0bffe15 	stw	r2,-8(fp)

    /* Free the file descriptor structure and return. */

    alt_release_fd (fildes);
1000ec28:	e13fff17 	ldw	r4,-4(fp)
1000ec2c:	000f2d00 	call	1000f2d0 <alt_release_fd>
    if (rval < 0)
1000ec30:	e0bffe17 	ldw	r2,-8(fp)
1000ec34:	1000070e 	bge	r2,zero,1000ec54 <close+0xa8>
    {
      ALT_ERRNO = -rval;
1000ec38:	000eb5c0 	call	1000eb5c <alt_get_errno>
1000ec3c:	1007883a 	mov	r3,r2
1000ec40:	e0bffe17 	ldw	r2,-8(fp)
1000ec44:	0085c83a 	sub	r2,zero,r2
1000ec48:	18800015 	stw	r2,0(r3)
      return -1;
1000ec4c:	00bfffc4 	movi	r2,-1
1000ec50:	00000706 	br	1000ec70 <close+0xc4>
    }
    return 0;
1000ec54:	0005883a 	mov	r2,zero
1000ec58:	00000506 	br	1000ec70 <close+0xc4>
  }
  else
  {
    ALT_ERRNO = EBADFD;
1000ec5c:	000eb5c0 	call	1000eb5c <alt_get_errno>
1000ec60:	1007883a 	mov	r3,r2
1000ec64:	00801444 	movi	r2,81
1000ec68:	18800015 	stw	r2,0(r3)
    return -1;
1000ec6c:	00bfffc4 	movi	r2,-1
  }
}
1000ec70:	e037883a 	mov	sp,fp
1000ec74:	dfc00117 	ldw	ra,4(sp)
1000ec78:	df000017 	ldw	fp,0(sp)
1000ec7c:	dec00204 	addi	sp,sp,8
1000ec80:	f800283a 	ret

1000ec84 <alt_dev_null_write>:
 * by the alt_dev_null device. It simple discards all data passed to it, and
 * indicates that the data has been successfully transmitted.
 */

static int alt_dev_null_write (alt_fd* fd, const char* ptr, int len)
{
1000ec84:	defffc04 	addi	sp,sp,-16
1000ec88:	df000315 	stw	fp,12(sp)
1000ec8c:	df000304 	addi	fp,sp,12
1000ec90:	e13ffd15 	stw	r4,-12(fp)
1000ec94:	e17ffe15 	stw	r5,-8(fp)
1000ec98:	e1bfff15 	stw	r6,-4(fp)
  return len;
1000ec9c:	e0bfff17 	ldw	r2,-4(fp)
}
1000eca0:	e037883a 	mov	sp,fp
1000eca4:	df000017 	ldw	fp,0(sp)
1000eca8:	dec00104 	addi	sp,sp,4
1000ecac:	f800283a 	ret

1000ecb0 <alt_get_errno>:
#undef errno

extern int errno;

static ALT_INLINE int* alt_get_errno(void)
{
1000ecb0:	defffe04 	addi	sp,sp,-8
1000ecb4:	dfc00115 	stw	ra,4(sp)
1000ecb8:	df000015 	stw	fp,0(sp)
1000ecbc:	d839883a 	mov	fp,sp
  return ((alt_errno) ? alt_errno() : &errno);
1000ecc0:	00840074 	movhi	r2,4097
1000ecc4:	108e3e04 	addi	r2,r2,14584
1000ecc8:	10800017 	ldw	r2,0(r2)
1000eccc:	10000526 	beq	r2,zero,1000ece4 <alt_get_errno+0x34>
1000ecd0:	00840074 	movhi	r2,4097
1000ecd4:	108e3e04 	addi	r2,r2,14584
1000ecd8:	10800017 	ldw	r2,0(r2)
1000ecdc:	103ee83a 	callr	r2
1000ece0:	00000206 	br	1000ecec <alt_get_errno+0x3c>
1000ece4:	00840074 	movhi	r2,4097
1000ece8:	10950504 	addi	r2,r2,21524
}
1000ecec:	e037883a 	mov	sp,fp
1000ecf0:	dfc00117 	ldw	ra,4(sp)
1000ecf4:	df000017 	ldw	fp,0(sp)
1000ecf8:	dec00204 	addi	sp,sp,8
1000ecfc:	f800283a 	ret

1000ed00 <fstat>:
}

#else /* !ALT_USE_DIRECT_DRIVERS */

int ALT_FSTAT (int file, struct stat *st)
{
1000ed00:	defffb04 	addi	sp,sp,-20
1000ed04:	dfc00415 	stw	ra,16(sp)
1000ed08:	df000315 	stw	fp,12(sp)
1000ed0c:	df000304 	addi	fp,sp,12
1000ed10:	e13ffe15 	stw	r4,-8(fp)
1000ed14:	e17fff15 	stw	r5,-4(fp)
   * A common error case is that when the file descriptor was created, the call
   * to open() failed resulting in a negative file descriptor. This is trapped
   * below so that we don't try and process an invalid file descriptor.
   */

  fd = (file < 0) ? NULL : &alt_fd_list[file];
1000ed18:	e0bffe17 	ldw	r2,-8(fp)
1000ed1c:	10000816 	blt	r2,zero,1000ed40 <fstat+0x40>
1000ed20:	e13ffe17 	ldw	r4,-8(fp)
1000ed24:	01400304 	movi	r5,12
1000ed28:	000c3380 	call	1000c338 <__mulsi3>
1000ed2c:	1007883a 	mov	r3,r2
1000ed30:	00840074 	movhi	r2,4097
1000ed34:	1089bb04 	addi	r2,r2,9964
1000ed38:	1885883a 	add	r2,r3,r2
1000ed3c:	00000106 	br	1000ed44 <fstat+0x44>
1000ed40:	0005883a 	mov	r2,zero
1000ed44:	e0bffd15 	stw	r2,-12(fp)
  
  if (fd)
1000ed48:	e0bffd17 	ldw	r2,-12(fp)
1000ed4c:	10001026 	beq	r2,zero,1000ed90 <fstat+0x90>
  {
    /* Call the drivers fstat() function to fill out the "st" structure. */

    if (fd->dev->fstat)
1000ed50:	e0bffd17 	ldw	r2,-12(fp)
1000ed54:	10800017 	ldw	r2,0(r2)
1000ed58:	10800817 	ldw	r2,32(r2)
1000ed5c:	10000726 	beq	r2,zero,1000ed7c <fstat+0x7c>
    {
      return fd->dev->fstat(fd, st);
1000ed60:	e0bffd17 	ldw	r2,-12(fp)
1000ed64:	10800017 	ldw	r2,0(r2)
1000ed68:	10800817 	ldw	r2,32(r2)
1000ed6c:	e13ffd17 	ldw	r4,-12(fp)
1000ed70:	e17fff17 	ldw	r5,-4(fp)
1000ed74:	103ee83a 	callr	r2
1000ed78:	00000a06 	br	1000eda4 <fstat+0xa4>
     * device.
     */
 
    else
    {
      st->st_mode = _IFCHR;
1000ed7c:	e0bfff17 	ldw	r2,-4(fp)
1000ed80:	00c80004 	movi	r3,8192
1000ed84:	10c00115 	stw	r3,4(r2)
      return 0;
1000ed88:	0005883a 	mov	r2,zero
1000ed8c:	00000506 	br	1000eda4 <fstat+0xa4>
    }
  }
  else
  {
    ALT_ERRNO = EBADFD;
1000ed90:	000ecb00 	call	1000ecb0 <alt_get_errno>
1000ed94:	1007883a 	mov	r3,r2
1000ed98:	00801444 	movi	r2,81
1000ed9c:	18800015 	stw	r2,0(r3)
    return -1;
1000eda0:	00bfffc4 	movi	r2,-1
  }
}
1000eda4:	e037883a 	mov	sp,fp
1000eda8:	dfc00117 	ldw	ra,4(sp)
1000edac:	df000017 	ldw	fp,0(sp)
1000edb0:	dec00204 	addi	sp,sp,8
1000edb4:	f800283a 	ret

1000edb8 <alt_get_errno>:
#undef errno

extern int errno;

static ALT_INLINE int* alt_get_errno(void)
{
1000edb8:	defffe04 	addi	sp,sp,-8
1000edbc:	dfc00115 	stw	ra,4(sp)
1000edc0:	df000015 	stw	fp,0(sp)
1000edc4:	d839883a 	mov	fp,sp
  return ((alt_errno) ? alt_errno() : &errno);
1000edc8:	00840074 	movhi	r2,4097
1000edcc:	108e3e04 	addi	r2,r2,14584
1000edd0:	10800017 	ldw	r2,0(r2)
1000edd4:	10000526 	beq	r2,zero,1000edec <alt_get_errno+0x34>
1000edd8:	00840074 	movhi	r2,4097
1000eddc:	108e3e04 	addi	r2,r2,14584
1000ede0:	10800017 	ldw	r2,0(r2)
1000ede4:	103ee83a 	callr	r2
1000ede8:	00000206 	br	1000edf4 <alt_get_errno+0x3c>
1000edec:	00840074 	movhi	r2,4097
1000edf0:	10950504 	addi	r2,r2,21524
}
1000edf4:	e037883a 	mov	sp,fp
1000edf8:	dfc00117 	ldw	ra,4(sp)
1000edfc:	df000017 	ldw	fp,0(sp)
1000ee00:	dec00204 	addi	sp,sp,8
1000ee04:	f800283a 	ret

1000ee08 <isatty>:
 *
 * ALT_ISATTY is mapped onto the isatty() system call in alt_syscall.h
 */
 
int ALT_ISATTY (int file)
{
1000ee08:	deffed04 	addi	sp,sp,-76
1000ee0c:	dfc01215 	stw	ra,72(sp)
1000ee10:	df001115 	stw	fp,68(sp)
1000ee14:	df001104 	addi	fp,sp,68
1000ee18:	e13fff15 	stw	r4,-4(fp)
   * A common error case is that when the file descriptor was created, the call
   * to open() failed resulting in a negative file descriptor. This is trapped
   * below so that we don't try and process an invalid file descriptor.
   */

  fd = (file < 0) ? NULL : &alt_fd_list[file];
1000ee1c:	e0bfff17 	ldw	r2,-4(fp)
1000ee20:	10000816 	blt	r2,zero,1000ee44 <isatty+0x3c>
1000ee24:	e13fff17 	ldw	r4,-4(fp)
1000ee28:	01400304 	movi	r5,12
1000ee2c:	000c3380 	call	1000c338 <__mulsi3>
1000ee30:	1007883a 	mov	r3,r2
1000ee34:	00840074 	movhi	r2,4097
1000ee38:	1089bb04 	addi	r2,r2,9964
1000ee3c:	1885883a 	add	r2,r3,r2
1000ee40:	00000106 	br	1000ee48 <isatty+0x40>
1000ee44:	0005883a 	mov	r2,zero
1000ee48:	e0bfef15 	stw	r2,-68(fp)
  
  if (fd)
1000ee4c:	e0bfef17 	ldw	r2,-68(fp)
1000ee50:	10000e26 	beq	r2,zero,1000ee8c <isatty+0x84>
    /*
     * If a device driver does not provide an fstat() function, then it is 
     * treated as a terminal device by default.
     */

    if (!fd->dev->fstat)
1000ee54:	e0bfef17 	ldw	r2,-68(fp)
1000ee58:	10800017 	ldw	r2,0(r2)
1000ee5c:	10800817 	ldw	r2,32(r2)
1000ee60:	1000021e 	bne	r2,zero,1000ee6c <isatty+0x64>
    {
      return 1;
1000ee64:	00800044 	movi	r2,1
1000ee68:	00000d06 	br	1000eea0 <isatty+0x98>
     * this is called so that the device can identify itself.
     */ 

    else
    {
      fstat (file, &stat);
1000ee6c:	e0bff004 	addi	r2,fp,-64
1000ee70:	e13fff17 	ldw	r4,-4(fp)
1000ee74:	100b883a 	mov	r5,r2
1000ee78:	000ed000 	call	1000ed00 <fstat>
      return (stat.st_mode == _IFCHR) ? 1 : 0;
1000ee7c:	e0bff117 	ldw	r2,-60(fp)
1000ee80:	10880020 	cmpeqi	r2,r2,8192
1000ee84:	10803fcc 	andi	r2,r2,255
1000ee88:	00000506 	br	1000eea0 <isatty+0x98>
    }
  }
  else
  {
    ALT_ERRNO = EBADFD;
1000ee8c:	000edb80 	call	1000edb8 <alt_get_errno>
1000ee90:	1007883a 	mov	r3,r2
1000ee94:	00801444 	movi	r2,81
1000ee98:	18800015 	stw	r2,0(r3)
    return 0;
1000ee9c:	0005883a 	mov	r2,zero
  }
}
1000eea0:	e037883a 	mov	sp,fp
1000eea4:	dfc00117 	ldw	ra,4(sp)
1000eea8:	df000017 	ldw	fp,0(sp)
1000eeac:	dec00204 	addi	sp,sp,8
1000eeb0:	f800283a 	ret

1000eeb4 <alt_load_section>:
 */

static void ALT_INLINE alt_load_section (alt_u32* from, 
                                         alt_u32* to, 
                                         alt_u32* end)
{
1000eeb4:	defffc04 	addi	sp,sp,-16
1000eeb8:	df000315 	stw	fp,12(sp)
1000eebc:	df000304 	addi	fp,sp,12
1000eec0:	e13ffd15 	stw	r4,-12(fp)
1000eec4:	e17ffe15 	stw	r5,-8(fp)
1000eec8:	e1bfff15 	stw	r6,-4(fp)
  if (to != from)
1000eecc:	e0fffe17 	ldw	r3,-8(fp)
1000eed0:	e0bffd17 	ldw	r2,-12(fp)
1000eed4:	18800c26 	beq	r3,r2,1000ef08 <alt_load_section+0x54>
  {
    while( to != end )
1000eed8:	00000806 	br	1000eefc <alt_load_section+0x48>
    {
      *to++ = *from++;
1000eedc:	e0bffe17 	ldw	r2,-8(fp)
1000eee0:	10c00104 	addi	r3,r2,4
1000eee4:	e0fffe15 	stw	r3,-8(fp)
1000eee8:	e0fffd17 	ldw	r3,-12(fp)
1000eeec:	19000104 	addi	r4,r3,4
1000eef0:	e13ffd15 	stw	r4,-12(fp)
1000eef4:	18c00017 	ldw	r3,0(r3)
1000eef8:	10c00015 	stw	r3,0(r2)
                                         alt_u32* to, 
                                         alt_u32* end)
{
  if (to != from)
  {
    while( to != end )
1000eefc:	e0fffe17 	ldw	r3,-8(fp)
1000ef00:	e0bfff17 	ldw	r2,-4(fp)
1000ef04:	18bff51e 	bne	r3,r2,1000eedc <__alt_data_end+0xf800eedc>
    {
      *to++ = *from++;
    }
  }
}
1000ef08:	e037883a 	mov	sp,fp
1000ef0c:	df000017 	ldw	fp,0(sp)
1000ef10:	dec00104 	addi	sp,sp,4
1000ef14:	f800283a 	ret

1000ef18 <alt_load>:
 * there is no bootloader, so this application is responsible for loading to
 * RAM any sections that are required.
 */  

void alt_load (void)
{
1000ef18:	defffe04 	addi	sp,sp,-8
1000ef1c:	dfc00115 	stw	ra,4(sp)
1000ef20:	df000015 	stw	fp,0(sp)
1000ef24:	d839883a 	mov	fp,sp
  /* 
   * Copy the .rwdata section. 
   */

  alt_load_section (&__flash_rwdata_start, 
1000ef28:	01040074 	movhi	r4,4097
1000ef2c:	210e4304 	addi	r4,r4,14604
1000ef30:	01440074 	movhi	r5,4097
1000ef34:	29478804 	addi	r5,r5,7712
1000ef38:	01840074 	movhi	r6,4097
1000ef3c:	318e4304 	addi	r6,r6,14604
1000ef40:	000eeb40 	call	1000eeb4 <alt_load_section>

  /*
   * Copy the exception handler.
   */

  alt_load_section (&__flash_exceptions_start, 
1000ef44:	01040034 	movhi	r4,4096
1000ef48:	21000804 	addi	r4,r4,32
1000ef4c:	01440034 	movhi	r5,4096
1000ef50:	29400804 	addi	r5,r5,32
1000ef54:	01840034 	movhi	r6,4096
1000ef58:	31806f04 	addi	r6,r6,444
1000ef5c:	000eeb40 	call	1000eeb4 <alt_load_section>

  /*
   * Copy the .rodata section.
   */

  alt_load_section (&__flash_rodata_start, 
1000ef60:	01040074 	movhi	r4,4097
1000ef64:	2104e804 	addi	r4,r4,5024
1000ef68:	01440074 	movhi	r5,4097
1000ef6c:	2944e804 	addi	r5,r5,5024
1000ef70:	01840074 	movhi	r6,4097
1000ef74:	31878804 	addi	r6,r6,7712
1000ef78:	000eeb40 	call	1000eeb4 <alt_load_section>
  
  /*
   * Now ensure that the caches are in synch.
   */
  
  alt_dcache_flush_all();
1000ef7c:	00103180 	call	10010318 <alt_dcache_flush_all>
  alt_icache_flush_all();
1000ef80:	00104e00 	call	100104e0 <alt_icache_flush_all>
}
1000ef84:	e037883a 	mov	sp,fp
1000ef88:	dfc00117 	ldw	ra,4(sp)
1000ef8c:	df000017 	ldw	fp,0(sp)
1000ef90:	dec00204 	addi	sp,sp,8
1000ef94:	f800283a 	ret

1000ef98 <alt_get_errno>:
#undef errno

extern int errno;

static ALT_INLINE int* alt_get_errno(void)
{
1000ef98:	defffe04 	addi	sp,sp,-8
1000ef9c:	dfc00115 	stw	ra,4(sp)
1000efa0:	df000015 	stw	fp,0(sp)
1000efa4:	d839883a 	mov	fp,sp
  return ((alt_errno) ? alt_errno() : &errno);
1000efa8:	00840074 	movhi	r2,4097
1000efac:	108e3e04 	addi	r2,r2,14584
1000efb0:	10800017 	ldw	r2,0(r2)
1000efb4:	10000526 	beq	r2,zero,1000efcc <alt_get_errno+0x34>
1000efb8:	00840074 	movhi	r2,4097
1000efbc:	108e3e04 	addi	r2,r2,14584
1000efc0:	10800017 	ldw	r2,0(r2)
1000efc4:	103ee83a 	callr	r2
1000efc8:	00000206 	br	1000efd4 <alt_get_errno+0x3c>
1000efcc:	00840074 	movhi	r2,4097
1000efd0:	10950504 	addi	r2,r2,21524
}
1000efd4:	e037883a 	mov	sp,fp
1000efd8:	dfc00117 	ldw	ra,4(sp)
1000efdc:	df000017 	ldw	fp,0(sp)
1000efe0:	dec00204 	addi	sp,sp,8
1000efe4:	f800283a 	ret

1000efe8 <lseek>:
 * ALT_LSEEK is mapped onto the lseek() system call in alt_syscall.h
 *
 */

off_t ALT_LSEEK (int file, off_t ptr, int dir)
{
1000efe8:	defff904 	addi	sp,sp,-28
1000efec:	dfc00615 	stw	ra,24(sp)
1000eff0:	df000515 	stw	fp,20(sp)
1000eff4:	df000504 	addi	fp,sp,20
1000eff8:	e13ffd15 	stw	r4,-12(fp)
1000effc:	e17ffe15 	stw	r5,-8(fp)
1000f000:	e1bfff15 	stw	r6,-4(fp)
  alt_fd* fd;
  off_t   rc = 0; 
1000f004:	e03ffb15 	stw	zero,-20(fp)
   * A common error case is that when the file descriptor was created, the call
   * to open() failed resulting in a negative file descriptor. This is trapped
   * below so that we don't try and process an invalid file descriptor.
   */

  fd = (file < 0) ? NULL : &alt_fd_list[file];
1000f008:	e0bffd17 	ldw	r2,-12(fp)
1000f00c:	10000816 	blt	r2,zero,1000f030 <lseek+0x48>
1000f010:	e13ffd17 	ldw	r4,-12(fp)
1000f014:	01400304 	movi	r5,12
1000f018:	000c3380 	call	1000c338 <__mulsi3>
1000f01c:	1007883a 	mov	r3,r2
1000f020:	00840074 	movhi	r2,4097
1000f024:	1089bb04 	addi	r2,r2,9964
1000f028:	1885883a 	add	r2,r3,r2
1000f02c:	00000106 	br	1000f034 <lseek+0x4c>
1000f030:	0005883a 	mov	r2,zero
1000f034:	e0bffc15 	stw	r2,-16(fp)
  
  if (fd) 
1000f038:	e0bffc17 	ldw	r2,-16(fp)
1000f03c:	10001026 	beq	r2,zero,1000f080 <lseek+0x98>
    /*
     * If the device driver provides an implementation of the lseek() function,
     * then call that to process the request.
     */
 
    if (fd->dev->lseek)
1000f040:	e0bffc17 	ldw	r2,-16(fp)
1000f044:	10800017 	ldw	r2,0(r2)
1000f048:	10800717 	ldw	r2,28(r2)
1000f04c:	10000926 	beq	r2,zero,1000f074 <lseek+0x8c>
    {
      rc = fd->dev->lseek(fd, ptr, dir);
1000f050:	e0bffc17 	ldw	r2,-16(fp)
1000f054:	10800017 	ldw	r2,0(r2)
1000f058:	10800717 	ldw	r2,28(r2)
1000f05c:	e13ffc17 	ldw	r4,-16(fp)
1000f060:	e17ffe17 	ldw	r5,-8(fp)
1000f064:	e1bfff17 	ldw	r6,-4(fp)
1000f068:	103ee83a 	callr	r2
1000f06c:	e0bffb15 	stw	r2,-20(fp)
1000f070:	00000506 	br	1000f088 <lseek+0xa0>
     * Otherwise return an error.
     */

    else
    {
      rc = -ENOTSUP;
1000f074:	00bfde84 	movi	r2,-134
1000f078:	e0bffb15 	stw	r2,-20(fp)
1000f07c:	00000206 	br	1000f088 <lseek+0xa0>
    }
  }
  else  
  {
    rc = -EBADFD;
1000f080:	00bfebc4 	movi	r2,-81
1000f084:	e0bffb15 	stw	r2,-20(fp)
  }

  if (rc < 0)
1000f088:	e0bffb17 	ldw	r2,-20(fp)
1000f08c:	1000070e 	bge	r2,zero,1000f0ac <lseek+0xc4>
  {
    ALT_ERRNO = -rc;
1000f090:	000ef980 	call	1000ef98 <alt_get_errno>
1000f094:	1007883a 	mov	r3,r2
1000f098:	e0bffb17 	ldw	r2,-20(fp)
1000f09c:	0085c83a 	sub	r2,zero,r2
1000f0a0:	18800015 	stw	r2,0(r3)
    rc = -1;
1000f0a4:	00bfffc4 	movi	r2,-1
1000f0a8:	e0bffb15 	stw	r2,-20(fp)
  }

  return rc;
1000f0ac:	e0bffb17 	ldw	r2,-20(fp)
}
1000f0b0:	e037883a 	mov	sp,fp
1000f0b4:	dfc00117 	ldw	ra,4(sp)
1000f0b8:	df000017 	ldw	fp,0(sp)
1000f0bc:	dec00204 	addi	sp,sp,8
1000f0c0:	f800283a 	ret

1000f0c4 <alt_main>:
 * devices/filesystems/components in the system; and call the entry point for
 * the users application, i.e. main().
 */

void alt_main (void)
{
1000f0c4:	defffd04 	addi	sp,sp,-12
1000f0c8:	dfc00215 	stw	ra,8(sp)
1000f0cc:	df000115 	stw	fp,4(sp)
1000f0d0:	df000104 	addi	fp,sp,4
#endif

  /* ALT LOG - please see HAL/sys/alt_log_printf.h for details */
  ALT_LOG_PRINT_BOOT("[alt_main.c] Entering alt_main, calling alt_irq_init.\r\n");
  /* Initialize the interrupt controller. */
  alt_irq_init (NULL);
1000f0d4:	0009883a 	mov	r4,zero
1000f0d8:	000f5b80 	call	1000f5b8 <alt_irq_init>

  /* Initialize the operating system */
  ALT_LOG_PRINT_BOOT("[alt_main.c] Done alt_irq_init, calling alt_os_init.\r\n");
  ALT_OS_INIT();
1000f0dc:	0001883a 	nop
  ALT_LOG_PRINT_BOOT("[alt_main.c] Done OS Init, calling alt_sem_create.\r\n");
  ALT_SEM_CREATE (&alt_fd_list_lock, 1);

  /* Initialize the device drivers/software components. */
  ALT_LOG_PRINT_BOOT("[alt_main.c] Calling alt_sys_init.\r\n");
  alt_sys_init();
1000f0e0:	000f5ec0 	call	1000f5ec <alt_sys_init>
   * devices be present (not equal to /dev/null) and if direct drivers
   * aren't being used.
   */

    ALT_LOG_PRINT_BOOT("[alt_main.c] Redirecting IO.\r\n");
    alt_io_redirect(ALT_STDOUT, ALT_STDIN, ALT_STDERR);
1000f0e4:	01040074 	movhi	r4,4097
1000f0e8:	21077e04 	addi	r4,r4,7672
1000f0ec:	01440074 	movhi	r5,4097
1000f0f0:	29477e04 	addi	r5,r5,7672
1000f0f4:	01840074 	movhi	r6,4097
1000f0f8:	31877e04 	addi	r6,r6,7672
1000f0fc:	00108ac0 	call	100108ac <alt_io_redirect>
  /* 
   * Call the C++ constructors 
   */

  ALT_LOG_PRINT_BOOT("[alt_main.c] Calling C++ constructors.\r\n");
  _do_ctors ();
1000f100:	00104280 	call	10010428 <_do_ctors>
   * redefined as _exit()). This is in the interest of reducing code footprint,
   * in that the atexit() overhead is removed when it's not needed.
   */

  ALT_LOG_PRINT_BOOT("[alt_main.c] Calling atexit.\r\n");
  atexit (_do_dtors);
1000f104:	01040074 	movhi	r4,4097
1000f108:	21012104 	addi	r4,r4,1156
1000f10c:	0010ffc0 	call	10010ffc <atexit>
  ALT_LOG_PRINT_BOOT("[alt_main.c] Calling main.\r\n");

#ifdef ALT_NO_EXIT
  main (alt_argc, alt_argv, alt_envp);
#else
  result = main (alt_argc, alt_argv, alt_envp);
1000f110:	d126d317 	ldw	r4,-25780(gp)
1000f114:	d0e6d417 	ldw	r3,-25776(gp)
1000f118:	d0a6d517 	ldw	r2,-25772(gp)
1000f11c:	180b883a 	mov	r5,r3
1000f120:	100d883a 	mov	r6,r2
1000f124:	000031c0 	call	1000031c <main>
1000f128:	e0bfff15 	stw	r2,-4(fp)
  close(STDOUT_FILENO);
1000f12c:	01000044 	movi	r4,1
1000f130:	000ebac0 	call	1000ebac <close>
  exit (result);
1000f134:	e13fff17 	ldw	r4,-4(fp)
1000f138:	00110100 	call	10011010 <exit>

1000f13c <__malloc_lock>:
 * configuration is single threaded, so there is nothing to do here. Note that 
 * this requires that malloc is never called by an interrupt service routine.
 */

void __malloc_lock ( struct _reent *_r )
{
1000f13c:	defffe04 	addi	sp,sp,-8
1000f140:	df000115 	stw	fp,4(sp)
1000f144:	df000104 	addi	fp,sp,4
1000f148:	e13fff15 	stw	r4,-4(fp)
}
1000f14c:	e037883a 	mov	sp,fp
1000f150:	df000017 	ldw	fp,0(sp)
1000f154:	dec00104 	addi	sp,sp,4
1000f158:	f800283a 	ret

1000f15c <__malloc_unlock>:
/*
 *
 */

void __malloc_unlock ( struct _reent *_r )
{
1000f15c:	defffe04 	addi	sp,sp,-8
1000f160:	df000115 	stw	fp,4(sp)
1000f164:	df000104 	addi	fp,sp,4
1000f168:	e13fff15 	stw	r4,-4(fp)
}
1000f16c:	e037883a 	mov	sp,fp
1000f170:	df000017 	ldw	fp,0(sp)
1000f174:	dec00104 	addi	sp,sp,4
1000f178:	f800283a 	ret

1000f17c <alt_get_errno>:
#undef errno

extern int errno;

static ALT_INLINE int* alt_get_errno(void)
{
1000f17c:	defffe04 	addi	sp,sp,-8
1000f180:	dfc00115 	stw	ra,4(sp)
1000f184:	df000015 	stw	fp,0(sp)
1000f188:	d839883a 	mov	fp,sp
  return ((alt_errno) ? alt_errno() : &errno);
1000f18c:	00840074 	movhi	r2,4097
1000f190:	108e3e04 	addi	r2,r2,14584
1000f194:	10800017 	ldw	r2,0(r2)
1000f198:	10000526 	beq	r2,zero,1000f1b0 <alt_get_errno+0x34>
1000f19c:	00840074 	movhi	r2,4097
1000f1a0:	108e3e04 	addi	r2,r2,14584
1000f1a4:	10800017 	ldw	r2,0(r2)
1000f1a8:	103ee83a 	callr	r2
1000f1ac:	00000206 	br	1000f1b8 <alt_get_errno+0x3c>
1000f1b0:	00840074 	movhi	r2,4097
1000f1b4:	10950504 	addi	r2,r2,21524
}
1000f1b8:	e037883a 	mov	sp,fp
1000f1bc:	dfc00117 	ldw	ra,4(sp)
1000f1c0:	df000017 	ldw	fp,0(sp)
1000f1c4:	dec00204 	addi	sp,sp,8
1000f1c8:	f800283a 	ret

1000f1cc <read>:
}

#else /* !ALT_USE_DIRECT_DRIVERS */

int ALT_READ (int file, void *ptr, size_t len)
{
1000f1cc:	defff904 	addi	sp,sp,-28
1000f1d0:	dfc00615 	stw	ra,24(sp)
1000f1d4:	df000515 	stw	fp,20(sp)
1000f1d8:	df000504 	addi	fp,sp,20
1000f1dc:	e13ffd15 	stw	r4,-12(fp)
1000f1e0:	e17ffe15 	stw	r5,-8(fp)
1000f1e4:	e1bfff15 	stw	r6,-4(fp)
   * A common error case is that when the file descriptor was created, the call
   * to open() failed resulting in a negative file descriptor. This is trapped
   * below so that we don't try and process an invalid file descriptor.
   */

  fd = (file < 0) ? NULL : &alt_fd_list[file];
1000f1e8:	e0bffd17 	ldw	r2,-12(fp)
1000f1ec:	10000816 	blt	r2,zero,1000f210 <read+0x44>
1000f1f0:	e13ffd17 	ldw	r4,-12(fp)
1000f1f4:	01400304 	movi	r5,12
1000f1f8:	000c3380 	call	1000c338 <__mulsi3>
1000f1fc:	1007883a 	mov	r3,r2
1000f200:	00840074 	movhi	r2,4097
1000f204:	1089bb04 	addi	r2,r2,9964
1000f208:	1885883a 	add	r2,r3,r2
1000f20c:	00000106 	br	1000f214 <read+0x48>
1000f210:	0005883a 	mov	r2,zero
1000f214:	e0bffb15 	stw	r2,-20(fp)
  
  if (fd)
1000f218:	e0bffb17 	ldw	r2,-20(fp)
1000f21c:	10002226 	beq	r2,zero,1000f2a8 <read+0xdc>
     * If the file has not been opened with read access, or if the driver does
     * not provide an implementation of read(), generate an error. Otherwise
     * call the drivers read() function to process the request.
     */

    if (((fd->fd_flags & O_ACCMODE) != O_WRONLY) && 
1000f220:	e0bffb17 	ldw	r2,-20(fp)
1000f224:	10800217 	ldw	r2,8(r2)
1000f228:	108000cc 	andi	r2,r2,3
1000f22c:	10800060 	cmpeqi	r2,r2,1
1000f230:	1000181e 	bne	r2,zero,1000f294 <read+0xc8>
        (fd->dev->read))
1000f234:	e0bffb17 	ldw	r2,-20(fp)
1000f238:	10800017 	ldw	r2,0(r2)
1000f23c:	10800517 	ldw	r2,20(r2)
     * If the file has not been opened with read access, or if the driver does
     * not provide an implementation of read(), generate an error. Otherwise
     * call the drivers read() function to process the request.
     */

    if (((fd->fd_flags & O_ACCMODE) != O_WRONLY) && 
1000f240:	10001426 	beq	r2,zero,1000f294 <read+0xc8>
        (fd->dev->read))
      {
        if ((rval = fd->dev->read(fd, ptr, len)) < 0)
1000f244:	e0bffb17 	ldw	r2,-20(fp)
1000f248:	10800017 	ldw	r2,0(r2)
1000f24c:	10800517 	ldw	r2,20(r2)
1000f250:	e0ffff17 	ldw	r3,-4(fp)
1000f254:	e13ffb17 	ldw	r4,-20(fp)
1000f258:	e17ffe17 	ldw	r5,-8(fp)
1000f25c:	180d883a 	mov	r6,r3
1000f260:	103ee83a 	callr	r2
1000f264:	e0bffc15 	stw	r2,-16(fp)
1000f268:	e0bffc17 	ldw	r2,-16(fp)
1000f26c:	1000070e 	bge	r2,zero,1000f28c <read+0xc0>
        {
          ALT_ERRNO = -rval;
1000f270:	000f17c0 	call	1000f17c <alt_get_errno>
1000f274:	1007883a 	mov	r3,r2
1000f278:	e0bffc17 	ldw	r2,-16(fp)
1000f27c:	0085c83a 	sub	r2,zero,r2
1000f280:	18800015 	stw	r2,0(r3)
          return -1;
1000f284:	00bfffc4 	movi	r2,-1
1000f288:	00000c06 	br	1000f2bc <read+0xf0>
        }
        return rval;
1000f28c:	e0bffc17 	ldw	r2,-16(fp)
1000f290:	00000a06 	br	1000f2bc <read+0xf0>
      }
      else
      {
        ALT_ERRNO = EACCES;
1000f294:	000f17c0 	call	1000f17c <alt_get_errno>
1000f298:	1007883a 	mov	r3,r2
1000f29c:	00800344 	movi	r2,13
1000f2a0:	18800015 	stw	r2,0(r3)
1000f2a4:	00000406 	br	1000f2b8 <read+0xec>
      }
    }
  else
  {
    ALT_ERRNO = EBADFD;
1000f2a8:	000f17c0 	call	1000f17c <alt_get_errno>
1000f2ac:	1007883a 	mov	r3,r2
1000f2b0:	00801444 	movi	r2,81
1000f2b4:	18800015 	stw	r2,0(r3)
  }
  return -1;
1000f2b8:	00bfffc4 	movi	r2,-1
}
1000f2bc:	e037883a 	mov	sp,fp
1000f2c0:	dfc00117 	ldw	ra,4(sp)
1000f2c4:	df000017 	ldw	fp,0(sp)
1000f2c8:	dec00204 	addi	sp,sp,8
1000f2cc:	f800283a 	ret

1000f2d0 <alt_release_fd>:
 * File descriptors correcponding to standard in, standard out and standard 
 * error cannont be released backed to the pool. They are always reserved.
 */

void alt_release_fd (int fd)
{
1000f2d0:	defffc04 	addi	sp,sp,-16
1000f2d4:	dfc00315 	stw	ra,12(sp)
1000f2d8:	df000215 	stw	fp,8(sp)
1000f2dc:	dc000115 	stw	r16,4(sp)
1000f2e0:	df000204 	addi	fp,sp,8
1000f2e4:	e13ffe15 	stw	r4,-8(fp)
  if (fd > 2)
1000f2e8:	e0bffe17 	ldw	r2,-8(fp)
1000f2ec:	108000d0 	cmplti	r2,r2,3
1000f2f0:	1000111e 	bne	r2,zero,1000f338 <alt_release_fd+0x68>
  {
    alt_fd_list[fd].fd_flags = 0;
1000f2f4:	04040074 	movhi	r16,4097
1000f2f8:	8409bb04 	addi	r16,r16,9964
1000f2fc:	e0bffe17 	ldw	r2,-8(fp)
1000f300:	1009883a 	mov	r4,r2
1000f304:	01400304 	movi	r5,12
1000f308:	000c3380 	call	1000c338 <__mulsi3>
1000f30c:	8085883a 	add	r2,r16,r2
1000f310:	10800204 	addi	r2,r2,8
1000f314:	10000015 	stw	zero,0(r2)
    alt_fd_list[fd].dev      = 0;
1000f318:	04040074 	movhi	r16,4097
1000f31c:	8409bb04 	addi	r16,r16,9964
1000f320:	e0bffe17 	ldw	r2,-8(fp)
1000f324:	1009883a 	mov	r4,r2
1000f328:	01400304 	movi	r5,12
1000f32c:	000c3380 	call	1000c338 <__mulsi3>
1000f330:	8085883a 	add	r2,r16,r2
1000f334:	10000015 	stw	zero,0(r2)
  }
}
1000f338:	e6ffff04 	addi	sp,fp,-4
1000f33c:	dfc00217 	ldw	ra,8(sp)
1000f340:	df000117 	ldw	fp,4(sp)
1000f344:	dc000017 	ldw	r16,0(sp)
1000f348:	dec00304 	addi	sp,sp,12
1000f34c:	f800283a 	ret

1000f350 <sbrk>:
#endif
 
caddr_t ALT_SBRK (int incr) __attribute__ ((no_instrument_function ));

caddr_t ALT_SBRK (int incr)
{ 
1000f350:	defff904 	addi	sp,sp,-28
1000f354:	df000615 	stw	fp,24(sp)
1000f358:	df000604 	addi	fp,sp,24
1000f35c:	e13fff15 	stw	r4,-4(fp)
static ALT_INLINE alt_irq_context ALT_ALWAYS_INLINE 
       alt_irq_disable_all (void)
{
  alt_irq_context context;

  NIOS2_READ_STATUS (context);
1000f360:	0005303a 	rdctl	r2,status
1000f364:	e0bffc15 	stw	r2,-16(fp)

  NIOS2_WRITE_STATUS (context & ~NIOS2_STATUS_PIE_MSK);
1000f368:	e0fffc17 	ldw	r3,-16(fp)
1000f36c:	00bfff84 	movi	r2,-2
1000f370:	1884703a 	and	r2,r3,r2
1000f374:	1001703a 	wrctl	status,r2
  
  return context;
1000f378:	e0bffc17 	ldw	r2,-16(fp)
  alt_irq_context context;
  char *prev_heap_end; 

  context = alt_irq_disable_all();
1000f37c:	e0bffa15 	stw	r2,-24(fp)

  /* Always return data aligned on a word boundary */
  heap_end = (char *)(((unsigned int)heap_end + 3) & ~3);
1000f380:	d0a00c17 	ldw	r2,-32720(gp)
1000f384:	10c000c4 	addi	r3,r2,3
1000f388:	00bfff04 	movi	r2,-4
1000f38c:	1884703a 	and	r2,r3,r2
1000f390:	d0a00c15 	stw	r2,-32720(gp)
  if (((heap_end + incr) - __alt_heap_start) > ALT_MAX_HEAP_BYTES) {
    alt_irq_enable_all(context);
    return (caddr_t)-1;
  }
#else
  if ((heap_end + incr) > __alt_heap_limit) {
1000f394:	d0e00c17 	ldw	r3,-32720(gp)
1000f398:	e0bfff17 	ldw	r2,-4(fp)
1000f39c:	1887883a 	add	r3,r3,r2
1000f3a0:	00860034 	movhi	r2,6144
1000f3a4:	10800004 	addi	r2,r2,0
1000f3a8:	10c0062e 	bgeu	r2,r3,1000f3c4 <sbrk+0x74>
1000f3ac:	e0bffa17 	ldw	r2,-24(fp)
1000f3b0:	e0bffd15 	stw	r2,-12(fp)
  status &= ~NIOS2_STATUS_PIE_MSK;
  status |= (context & NIOS2_STATUS_PIE_MSK);
  
  NIOS2_WRITE_STATUS (status);
#else
  NIOS2_WRITE_STATUS (context);
1000f3b4:	e0bffd17 	ldw	r2,-12(fp)
1000f3b8:	1001703a 	wrctl	status,r2
    alt_irq_enable_all(context);
    return (caddr_t)-1;
1000f3bc:	00bfffc4 	movi	r2,-1
1000f3c0:	00000b06 	br	1000f3f0 <sbrk+0xa0>
  }
#endif

  prev_heap_end = heap_end; 
1000f3c4:	d0a00c17 	ldw	r2,-32720(gp)
1000f3c8:	e0bffb15 	stw	r2,-20(fp)
  heap_end += incr; 
1000f3cc:	d0e00c17 	ldw	r3,-32720(gp)
1000f3d0:	e0bfff17 	ldw	r2,-4(fp)
1000f3d4:	1885883a 	add	r2,r3,r2
1000f3d8:	d0a00c15 	stw	r2,-32720(gp)
1000f3dc:	e0bffa17 	ldw	r2,-24(fp)
1000f3e0:	e0bffe15 	stw	r2,-8(fp)
1000f3e4:	e0bffe17 	ldw	r2,-8(fp)
1000f3e8:	1001703a 	wrctl	status,r2

#endif

  alt_irq_enable_all(context);

  return (caddr_t) prev_heap_end; 
1000f3ec:	e0bffb17 	ldw	r2,-20(fp)
} 
1000f3f0:	e037883a 	mov	sp,fp
1000f3f4:	df000017 	ldw	fp,0(sp)
1000f3f8:	dec00104 	addi	sp,sp,4
1000f3fc:	f800283a 	ret

1000f400 <usleep>:
#if defined (__GNUC__) && __GNUC__ >= 4
int ALT_USLEEP (useconds_t us)
#else
unsigned int ALT_USLEEP (unsigned int us)
#endif
{
1000f400:	defffd04 	addi	sp,sp,-12
1000f404:	dfc00215 	stw	ra,8(sp)
1000f408:	df000115 	stw	fp,4(sp)
1000f40c:	df000104 	addi	fp,sp,4
1000f410:	e13fff15 	stw	r4,-4(fp)
  return alt_busy_sleep(us);
1000f414:	e13fff17 	ldw	r4,-4(fp)
1000f418:	00101c00 	call	100101c0 <alt_busy_sleep>
}
1000f41c:	e037883a 	mov	sp,fp
1000f420:	dfc00117 	ldw	ra,4(sp)
1000f424:	df000017 	ldw	fp,0(sp)
1000f428:	dec00204 	addi	sp,sp,8
1000f42c:	f800283a 	ret

1000f430 <alt_get_errno>:
#undef errno

extern int errno;

static ALT_INLINE int* alt_get_errno(void)
{
1000f430:	defffe04 	addi	sp,sp,-8
1000f434:	dfc00115 	stw	ra,4(sp)
1000f438:	df000015 	stw	fp,0(sp)
1000f43c:	d839883a 	mov	fp,sp
  return ((alt_errno) ? alt_errno() : &errno);
1000f440:	00840074 	movhi	r2,4097
1000f444:	108e3e04 	addi	r2,r2,14584
1000f448:	10800017 	ldw	r2,0(r2)
1000f44c:	10000526 	beq	r2,zero,1000f464 <alt_get_errno+0x34>
1000f450:	00840074 	movhi	r2,4097
1000f454:	108e3e04 	addi	r2,r2,14584
1000f458:	10800017 	ldw	r2,0(r2)
1000f45c:	103ee83a 	callr	r2
1000f460:	00000206 	br	1000f46c <alt_get_errno+0x3c>
1000f464:	00840074 	movhi	r2,4097
1000f468:	10950504 	addi	r2,r2,21524
}
1000f46c:	e037883a 	mov	sp,fp
1000f470:	dfc00117 	ldw	ra,4(sp)
1000f474:	df000017 	ldw	fp,0(sp)
1000f478:	dec00204 	addi	sp,sp,8
1000f47c:	f800283a 	ret

1000f480 <write>:
}

#else /* !ALT_USE_DIRECT_DRIVERS */

int ALT_WRITE (int file, const void *ptr, size_t len)
{
1000f480:	defff904 	addi	sp,sp,-28
1000f484:	dfc00615 	stw	ra,24(sp)
1000f488:	df000515 	stw	fp,20(sp)
1000f48c:	df000504 	addi	fp,sp,20
1000f490:	e13ffd15 	stw	r4,-12(fp)
1000f494:	e17ffe15 	stw	r5,-8(fp)
1000f498:	e1bfff15 	stw	r6,-4(fp)
   * A common error case is that when the file descriptor was created, the call
   * to open() failed resulting in a negative file descriptor. This is trapped
   * below so that we don't try and process an invalid file descriptor.
   */

  fd = (file < 0) ? NULL : &alt_fd_list[file];
1000f49c:	e0bffd17 	ldw	r2,-12(fp)
1000f4a0:	10000816 	blt	r2,zero,1000f4c4 <write+0x44>
1000f4a4:	e13ffd17 	ldw	r4,-12(fp)
1000f4a8:	01400304 	movi	r5,12
1000f4ac:	000c3380 	call	1000c338 <__mulsi3>
1000f4b0:	1007883a 	mov	r3,r2
1000f4b4:	00840074 	movhi	r2,4097
1000f4b8:	1089bb04 	addi	r2,r2,9964
1000f4bc:	1885883a 	add	r2,r3,r2
1000f4c0:	00000106 	br	1000f4c8 <write+0x48>
1000f4c4:	0005883a 	mov	r2,zero
1000f4c8:	e0bffb15 	stw	r2,-20(fp)
  
  if (fd)
1000f4cc:	e0bffb17 	ldw	r2,-20(fp)
1000f4d0:	10002126 	beq	r2,zero,1000f558 <write+0xd8>
     * If the file has not been opened with write access, or if the driver does
     * not provide an implementation of write(), generate an error. Otherwise
     * call the drivers write() function to process the request.
     */

    if (((fd->fd_flags & O_ACCMODE) != O_RDONLY) && fd->dev->write)
1000f4d4:	e0bffb17 	ldw	r2,-20(fp)
1000f4d8:	10800217 	ldw	r2,8(r2)
1000f4dc:	108000cc 	andi	r2,r2,3
1000f4e0:	10001826 	beq	r2,zero,1000f544 <write+0xc4>
1000f4e4:	e0bffb17 	ldw	r2,-20(fp)
1000f4e8:	10800017 	ldw	r2,0(r2)
1000f4ec:	10800617 	ldw	r2,24(r2)
1000f4f0:	10001426 	beq	r2,zero,1000f544 <write+0xc4>
    {
      
      /* ALT_LOG - see altera_hal/HAL/inc/sys/alt_log_printf.h */
      ALT_LOG_WRITE_FUNCTION(ptr,len);

      if ((rval = fd->dev->write(fd, ptr, len)) < 0)
1000f4f4:	e0bffb17 	ldw	r2,-20(fp)
1000f4f8:	10800017 	ldw	r2,0(r2)
1000f4fc:	10800617 	ldw	r2,24(r2)
1000f500:	e0ffff17 	ldw	r3,-4(fp)
1000f504:	e13ffb17 	ldw	r4,-20(fp)
1000f508:	e17ffe17 	ldw	r5,-8(fp)
1000f50c:	180d883a 	mov	r6,r3
1000f510:	103ee83a 	callr	r2
1000f514:	e0bffc15 	stw	r2,-16(fp)
1000f518:	e0bffc17 	ldw	r2,-16(fp)
1000f51c:	1000070e 	bge	r2,zero,1000f53c <write+0xbc>
      {
        ALT_ERRNO = -rval;
1000f520:	000f4300 	call	1000f430 <alt_get_errno>
1000f524:	1007883a 	mov	r3,r2
1000f528:	e0bffc17 	ldw	r2,-16(fp)
1000f52c:	0085c83a 	sub	r2,zero,r2
1000f530:	18800015 	stw	r2,0(r3)
        return -1;
1000f534:	00bfffc4 	movi	r2,-1
1000f538:	00000c06 	br	1000f56c <write+0xec>
      }
      return rval;
1000f53c:	e0bffc17 	ldw	r2,-16(fp)
1000f540:	00000a06 	br	1000f56c <write+0xec>
    }
    else
    {
      ALT_ERRNO = EACCES;
1000f544:	000f4300 	call	1000f430 <alt_get_errno>
1000f548:	1007883a 	mov	r3,r2
1000f54c:	00800344 	movi	r2,13
1000f550:	18800015 	stw	r2,0(r3)
1000f554:	00000406 	br	1000f568 <write+0xe8>
    }
  }
  else  
  {
    ALT_ERRNO = EBADFD;
1000f558:	000f4300 	call	1000f430 <alt_get_errno>
1000f55c:	1007883a 	mov	r3,r2
1000f560:	00801444 	movi	r2,81
1000f564:	18800015 	stw	r2,0(r3)
  }
  return -1;
1000f568:	00bfffc4 	movi	r2,-1
}
1000f56c:	e037883a 	mov	sp,fp
1000f570:	dfc00117 	ldw	ra,4(sp)
1000f574:	df000017 	ldw	fp,0(sp)
1000f578:	dec00204 	addi	sp,sp,8
1000f57c:	f800283a 	ret

1000f580 <alt_dev_reg>:
 */

extern int alt_fs_reg  (alt_dev* dev); 

static ALT_INLINE int alt_dev_reg (alt_dev* dev)
{
1000f580:	defffd04 	addi	sp,sp,-12
1000f584:	dfc00215 	stw	ra,8(sp)
1000f588:	df000115 	stw	fp,4(sp)
1000f58c:	df000104 	addi	fp,sp,4
1000f590:	e13fff15 	stw	r4,-4(fp)
  extern alt_llist alt_dev_list;

  return alt_dev_llist_insert ((alt_dev_llist*) dev, &alt_dev_list);
1000f594:	e13fff17 	ldw	r4,-4(fp)
1000f598:	01440074 	movhi	r5,4097
1000f59c:	294e3b04 	addi	r5,r5,14572
1000f5a0:	00103840 	call	10010384 <alt_dev_llist_insert>
}
1000f5a4:	e037883a 	mov	sp,fp
1000f5a8:	dfc00117 	ldw	ra,4(sp)
1000f5ac:	df000017 	ldw	fp,0(sp)
1000f5b0:	dec00204 	addi	sp,sp,8
1000f5b4:	f800283a 	ret

1000f5b8 <alt_irq_init>:
 * The "base" parameter is ignored and only
 * present for backwards-compatibility.
 */

void alt_irq_init ( const void* base )
{
1000f5b8:	defffd04 	addi	sp,sp,-12
1000f5bc:	dfc00215 	stw	ra,8(sp)
1000f5c0:	df000115 	stw	fp,4(sp)
1000f5c4:	df000104 	addi	fp,sp,4
1000f5c8:	e13fff15 	stw	r4,-4(fp)
    ALTERA_NIOS2_QSYS_IRQ_INIT ( NIOS2_QSYS_0, nios2_qsys_0);
1000f5cc:	0010d640 	call	10010d64 <altera_nios2_qsys_irq_init>
 * alt_irq_cpu_enable_interrupts() enables the CPU to start taking interrupts.
 */
static ALT_INLINE void ALT_ALWAYS_INLINE 
       alt_irq_cpu_enable_interrupts (void)
{
    NIOS2_WRITE_STATUS(NIOS2_STATUS_PIE_MSK
1000f5d0:	00800044 	movi	r2,1
1000f5d4:	1001703a 	wrctl	status,r2
    alt_irq_cpu_enable_interrupts();
}
1000f5d8:	e037883a 	mov	sp,fp
1000f5dc:	dfc00117 	ldw	ra,4(sp)
1000f5e0:	df000017 	ldw	fp,0(sp)
1000f5e4:	dec00204 	addi	sp,sp,8
1000f5e8:	f800283a 	ret

1000f5ec <alt_sys_init>:
 * Initialize the non-interrupt controller devices.
 * Called after alt_irq_init().
 */

void alt_sys_init( void )
{
1000f5ec:	defffe04 	addi	sp,sp,-8
1000f5f0:	dfc00115 	stw	ra,4(sp)
1000f5f4:	df000015 	stw	fp,0(sp)
1000f5f8:	d839883a 	mov	fp,sp
    ALTERA_AVALON_JTAG_UART_INIT ( JTAG_UART_0, jtag_uart_0);
1000f5fc:	01040074 	movhi	r4,4097
1000f600:	210a2504 	addi	r4,r4,10388
1000f604:	000b883a 	mov	r5,zero
1000f608:	01800144 	movi	r6,5
1000f60c:	000f7980 	call	1000f798 <altera_avalon_jtag_uart_init>
1000f610:	01040074 	movhi	r4,4097
1000f614:	210a1b04 	addi	r4,r4,10348
1000f618:	000f5800 	call	1000f580 <alt_dev_reg>
    ALTERA_AVALON_SYSID_QSYS_INIT ( SYSID_QSYS_0, sysid_qsys_0);
1000f61c:	0001883a 	nop
}
1000f620:	e037883a 	mov	sp,fp
1000f624:	dfc00117 	ldw	ra,4(sp)
1000f628:	df000017 	ldw	fp,0(sp)
1000f62c:	dec00204 	addi	sp,sp,8
1000f630:	f800283a 	ret

1000f634 <altera_avalon_jtag_uart_read_fd>:
 *
 */

int 
altera_avalon_jtag_uart_read_fd(alt_fd* fd, char* buffer, int space)
{
1000f634:	defffa04 	addi	sp,sp,-24
1000f638:	dfc00515 	stw	ra,20(sp)
1000f63c:	df000415 	stw	fp,16(sp)
1000f640:	df000404 	addi	fp,sp,16
1000f644:	e13ffd15 	stw	r4,-12(fp)
1000f648:	e17ffe15 	stw	r5,-8(fp)
1000f64c:	e1bfff15 	stw	r6,-4(fp)
    altera_avalon_jtag_uart_dev* dev = (altera_avalon_jtag_uart_dev*) fd->dev; 
1000f650:	e0bffd17 	ldw	r2,-12(fp)
1000f654:	10800017 	ldw	r2,0(r2)
1000f658:	e0bffc15 	stw	r2,-16(fp)

    return altera_avalon_jtag_uart_read(&dev->state, buffer, space,
1000f65c:	e0bffc17 	ldw	r2,-16(fp)
1000f660:	10c00a04 	addi	r3,r2,40
1000f664:	e0bffd17 	ldw	r2,-12(fp)
1000f668:	10800217 	ldw	r2,8(r2)
1000f66c:	1809883a 	mov	r4,r3
1000f670:	e17ffe17 	ldw	r5,-8(fp)
1000f674:	e1bfff17 	ldw	r6,-4(fp)
1000f678:	100f883a 	mov	r7,r2
1000f67c:	000fc5c0 	call	1000fc5c <altera_avalon_jtag_uart_read>
      fd->fd_flags);
}
1000f680:	e037883a 	mov	sp,fp
1000f684:	dfc00117 	ldw	ra,4(sp)
1000f688:	df000017 	ldw	fp,0(sp)
1000f68c:	dec00204 	addi	sp,sp,8
1000f690:	f800283a 	ret

1000f694 <altera_avalon_jtag_uart_write_fd>:

int 
altera_avalon_jtag_uart_write_fd(alt_fd* fd, const char* buffer, int space)
{
1000f694:	defffa04 	addi	sp,sp,-24
1000f698:	dfc00515 	stw	ra,20(sp)
1000f69c:	df000415 	stw	fp,16(sp)
1000f6a0:	df000404 	addi	fp,sp,16
1000f6a4:	e13ffd15 	stw	r4,-12(fp)
1000f6a8:	e17ffe15 	stw	r5,-8(fp)
1000f6ac:	e1bfff15 	stw	r6,-4(fp)
    altera_avalon_jtag_uart_dev* dev = (altera_avalon_jtag_uart_dev*) fd->dev; 
1000f6b0:	e0bffd17 	ldw	r2,-12(fp)
1000f6b4:	10800017 	ldw	r2,0(r2)
1000f6b8:	e0bffc15 	stw	r2,-16(fp)

    return altera_avalon_jtag_uart_write(&dev->state, buffer, space,
1000f6bc:	e0bffc17 	ldw	r2,-16(fp)
1000f6c0:	10c00a04 	addi	r3,r2,40
1000f6c4:	e0bffd17 	ldw	r2,-12(fp)
1000f6c8:	10800217 	ldw	r2,8(r2)
1000f6cc:	1809883a 	mov	r4,r3
1000f6d0:	e17ffe17 	ldw	r5,-8(fp)
1000f6d4:	e1bfff17 	ldw	r6,-4(fp)
1000f6d8:	100f883a 	mov	r7,r2
1000f6dc:	000fe680 	call	1000fe68 <altera_avalon_jtag_uart_write>
      fd->fd_flags);
}
1000f6e0:	e037883a 	mov	sp,fp
1000f6e4:	dfc00117 	ldw	ra,4(sp)
1000f6e8:	df000017 	ldw	fp,0(sp)
1000f6ec:	dec00204 	addi	sp,sp,8
1000f6f0:	f800283a 	ret

1000f6f4 <altera_avalon_jtag_uart_close_fd>:

#ifndef ALTERA_AVALON_JTAG_UART_SMALL

int 
altera_avalon_jtag_uart_close_fd(alt_fd* fd)
{
1000f6f4:	defffc04 	addi	sp,sp,-16
1000f6f8:	dfc00315 	stw	ra,12(sp)
1000f6fc:	df000215 	stw	fp,8(sp)
1000f700:	df000204 	addi	fp,sp,8
1000f704:	e13fff15 	stw	r4,-4(fp)
    altera_avalon_jtag_uart_dev* dev = (altera_avalon_jtag_uart_dev*) fd->dev; 
1000f708:	e0bfff17 	ldw	r2,-4(fp)
1000f70c:	10800017 	ldw	r2,0(r2)
1000f710:	e0bffe15 	stw	r2,-8(fp)

    return altera_avalon_jtag_uart_close(&dev->state, fd->fd_flags);
1000f714:	e0bffe17 	ldw	r2,-8(fp)
1000f718:	10c00a04 	addi	r3,r2,40
1000f71c:	e0bfff17 	ldw	r2,-4(fp)
1000f720:	10800217 	ldw	r2,8(r2)
1000f724:	1809883a 	mov	r4,r3
1000f728:	100b883a 	mov	r5,r2
1000f72c:	000fb080 	call	1000fb08 <altera_avalon_jtag_uart_close>
}
1000f730:	e037883a 	mov	sp,fp
1000f734:	dfc00117 	ldw	ra,4(sp)
1000f738:	df000017 	ldw	fp,0(sp)
1000f73c:	dec00204 	addi	sp,sp,8
1000f740:	f800283a 	ret

1000f744 <altera_avalon_jtag_uart_ioctl_fd>:

int 
altera_avalon_jtag_uart_ioctl_fd(alt_fd* fd, int req, void* arg)
{
1000f744:	defffa04 	addi	sp,sp,-24
1000f748:	dfc00515 	stw	ra,20(sp)
1000f74c:	df000415 	stw	fp,16(sp)
1000f750:	df000404 	addi	fp,sp,16
1000f754:	e13ffd15 	stw	r4,-12(fp)
1000f758:	e17ffe15 	stw	r5,-8(fp)
1000f75c:	e1bfff15 	stw	r6,-4(fp)
    altera_avalon_jtag_uart_dev* dev = (altera_avalon_jtag_uart_dev*) fd->dev;
1000f760:	e0bffd17 	ldw	r2,-12(fp)
1000f764:	10800017 	ldw	r2,0(r2)
1000f768:	e0bffc15 	stw	r2,-16(fp)

    return altera_avalon_jtag_uart_ioctl(&dev->state, req, arg);
1000f76c:	e0bffc17 	ldw	r2,-16(fp)
1000f770:	10800a04 	addi	r2,r2,40
1000f774:	1009883a 	mov	r4,r2
1000f778:	e17ffe17 	ldw	r5,-8(fp)
1000f77c:	e1bfff17 	ldw	r6,-4(fp)
1000f780:	000fb700 	call	1000fb70 <altera_avalon_jtag_uart_ioctl>
}
1000f784:	e037883a 	mov	sp,fp
1000f788:	dfc00117 	ldw	ra,4(sp)
1000f78c:	df000017 	ldw	fp,0(sp)
1000f790:	dec00204 	addi	sp,sp,8
1000f794:	f800283a 	ret

1000f798 <altera_avalon_jtag_uart_init>:
 * Return 1 on sucessful IRQ register and 0 on failure.
 */

void altera_avalon_jtag_uart_init(altera_avalon_jtag_uart_state* sp, 
                                  int irq_controller_id, int irq)
{
1000f798:	defffa04 	addi	sp,sp,-24
1000f79c:	dfc00515 	stw	ra,20(sp)
1000f7a0:	df000415 	stw	fp,16(sp)
1000f7a4:	df000404 	addi	fp,sp,16
1000f7a8:	e13ffd15 	stw	r4,-12(fp)
1000f7ac:	e17ffe15 	stw	r5,-8(fp)
1000f7b0:	e1bfff15 	stw	r6,-4(fp)
  ALT_FLAG_CREATE(&sp->events, 0);
  ALT_SEM_CREATE(&sp->read_lock, 1);
  ALT_SEM_CREATE(&sp->write_lock, 1);

  /* enable read interrupts at the device */
  sp->irq_enable = ALTERA_AVALON_JTAG_UART_CONTROL_RE_MSK;
1000f7b4:	e0bffd17 	ldw	r2,-12(fp)
1000f7b8:	00c00044 	movi	r3,1
1000f7bc:	10c00815 	stw	r3,32(r2)

  IOWR_ALTERA_AVALON_JTAG_UART_CONTROL(sp->base, sp->irq_enable); 
1000f7c0:	e0bffd17 	ldw	r2,-12(fp)
1000f7c4:	10800017 	ldw	r2,0(r2)
1000f7c8:	10800104 	addi	r2,r2,4
1000f7cc:	1007883a 	mov	r3,r2
1000f7d0:	e0bffd17 	ldw	r2,-12(fp)
1000f7d4:	10800817 	ldw	r2,32(r2)
1000f7d8:	18800035 	stwio	r2,0(r3)
  
  /* register the interrupt handler */
#ifdef ALT_ENHANCED_INTERRUPT_API_PRESENT
  alt_ic_isr_register(irq_controller_id, irq, altera_avalon_jtag_uart_irq, 
1000f7dc:	e0fffe17 	ldw	r3,-8(fp)
1000f7e0:	e0bfff17 	ldw	r2,-4(fp)
1000f7e4:	d8000015 	stw	zero,0(sp)
1000f7e8:	1809883a 	mov	r4,r3
1000f7ec:	100b883a 	mov	r5,r2
1000f7f0:	01840074 	movhi	r6,4097
1000f7f4:	31be1704 	addi	r6,r6,-1956
1000f7f8:	e1fffd17 	ldw	r7,-12(fp)
1000f7fc:	00104fc0 	call	100104fc <alt_ic_isr_register>
#else
  alt_irq_register(irq, sp, altera_avalon_jtag_uart_irq);
#endif  

  /* Register an alarm to go off every second to check for presence of host */
  sp->host_inactive = 0;
1000f800:	e0bffd17 	ldw	r2,-12(fp)
1000f804:	10000915 	stw	zero,36(r2)

  if (alt_alarm_start(&sp->alarm, alt_ticks_per_second(), 
1000f808:	e0bffd17 	ldw	r2,-12(fp)
1000f80c:	10c00204 	addi	r3,r2,8
 * Obtain the system clock rate in ticks/s. 
 */

static ALT_INLINE alt_u32 ALT_ALWAYS_INLINE alt_ticks_per_second (void)
{
  return _alt_tick_rate;
1000f810:	00840074 	movhi	r2,4097
1000f814:	10950a04 	addi	r2,r2,21544
1000f818:	10800017 	ldw	r2,0(r2)
1000f81c:	1809883a 	mov	r4,r3
1000f820:	100b883a 	mov	r5,r2
1000f824:	01840074 	movhi	r6,4097
1000f828:	31be9804 	addi	r6,r6,-1440
1000f82c:	e1fffd17 	ldw	r7,-12(fp)
1000f830:	00100800 	call	10010080 <alt_alarm_start>
1000f834:	1000040e 	bge	r2,zero,1000f848 <altera_avalon_jtag_uart_init+0xb0>
    &altera_avalon_jtag_uart_timeout, sp) < 0)
  {
    /* If we can't set the alarm then record "don't know if host present" 
     * and behave as though the host is present.
     */
    sp->timeout = INT_MAX;
1000f838:	e0fffd17 	ldw	r3,-12(fp)
1000f83c:	00a00034 	movhi	r2,32768
1000f840:	10bfffc4 	addi	r2,r2,-1
1000f844:	18800115 	stw	r2,4(r3)
  }

  /* ALT_LOG - see altera_hal/HAL/inc/sys/alt_log_printf.h */ 
  ALT_LOG_JTAG_UART_ALARM_REGISTER(sp, sp->base);
}
1000f848:	e037883a 	mov	sp,fp
1000f84c:	dfc00117 	ldw	ra,4(sp)
1000f850:	df000017 	ldw	fp,0(sp)
1000f854:	dec00204 	addi	sp,sp,8
1000f858:	f800283a 	ret

1000f85c <altera_avalon_jtag_uart_irq>:
#ifdef ALT_ENHANCED_INTERRUPT_API_PRESENT
static void altera_avalon_jtag_uart_irq(void* context)
#else
static void altera_avalon_jtag_uart_irq(void* context, alt_u32 id)
#endif
{
1000f85c:	defff804 	addi	sp,sp,-32
1000f860:	df000715 	stw	fp,28(sp)
1000f864:	df000704 	addi	fp,sp,28
1000f868:	e13fff15 	stw	r4,-4(fp)
  altera_avalon_jtag_uart_state* sp = (altera_avalon_jtag_uart_state*) context;
1000f86c:	e0bfff17 	ldw	r2,-4(fp)
1000f870:	e0bffb15 	stw	r2,-20(fp)
  unsigned int base = sp->base;
1000f874:	e0bffb17 	ldw	r2,-20(fp)
1000f878:	10800017 	ldw	r2,0(r2)
1000f87c:	e0bffc15 	stw	r2,-16(fp)
  /* ALT_LOG - see altera_hal/HAL/inc/sys/alt_log_printf.h */ 
  ALT_LOG_JTAG_UART_ISR_FUNCTION(base, sp);

  for ( ; ; )
  {
    unsigned int control = IORD_ALTERA_AVALON_JTAG_UART_CONTROL(base);
1000f880:	e0bffc17 	ldw	r2,-16(fp)
1000f884:	10800104 	addi	r2,r2,4
1000f888:	10800037 	ldwio	r2,0(r2)
1000f88c:	e0bffd15 	stw	r2,-12(fp)

    /* Return once nothing more to do */
    if ((control & (ALTERA_AVALON_JTAG_UART_CONTROL_RI_MSK | ALTERA_AVALON_JTAG_UART_CONTROL_WI_MSK)) == 0)
1000f890:	e0bffd17 	ldw	r2,-12(fp)
1000f894:	1080c00c 	andi	r2,r2,768
1000f898:	1000011e 	bne	r2,zero,1000f8a0 <altera_avalon_jtag_uart_irq+0x44>
      break;
1000f89c:	00006c06 	br	1000fa50 <altera_avalon_jtag_uart_irq+0x1f4>

    if (control & ALTERA_AVALON_JTAG_UART_CONTROL_RI_MSK)
1000f8a0:	e0bffd17 	ldw	r2,-12(fp)
1000f8a4:	1080400c 	andi	r2,r2,256
1000f8a8:	10003426 	beq	r2,zero,1000f97c <altera_avalon_jtag_uart_irq+0x120>
    {
      /* process a read irq.  Start by assuming that there is data in the
       * receive FIFO (otherwise why would we have been interrupted?)
       */
      unsigned int data = 1 << ALTERA_AVALON_JTAG_UART_DATA_RAVAIL_OFST;
1000f8ac:	00800074 	movhi	r2,1
1000f8b0:	e0bff915 	stw	r2,-28(fp)
      for ( ; ; )
      {
        /* Check whether there is space in the buffer.  If not then we must not
         * read any characters from the buffer as they will be lost.
         */
        unsigned int next = (sp->rx_in + 1) % ALTERA_AVALON_JTAG_UART_BUF_LEN;
1000f8b4:	e0bffb17 	ldw	r2,-20(fp)
1000f8b8:	10800a17 	ldw	r2,40(r2)
1000f8bc:	10800044 	addi	r2,r2,1
1000f8c0:	1081ffcc 	andi	r2,r2,2047
1000f8c4:	e0bffe15 	stw	r2,-8(fp)
        if (next == sp->rx_out)
1000f8c8:	e0bffb17 	ldw	r2,-20(fp)
1000f8cc:	10c00b17 	ldw	r3,44(r2)
1000f8d0:	e0bffe17 	ldw	r2,-8(fp)
1000f8d4:	1880011e 	bne	r3,r2,1000f8dc <altera_avalon_jtag_uart_irq+0x80>
          break;
1000f8d8:	00001606 	br	1000f934 <altera_avalon_jtag_uart_irq+0xd8>

        /* Try to remove a character from the FIFO and find out whether there
         * are any more characters remaining.
         */
        data = IORD_ALTERA_AVALON_JTAG_UART_DATA(base);
1000f8dc:	e0bffc17 	ldw	r2,-16(fp)
1000f8e0:	10800037 	ldwio	r2,0(r2)
1000f8e4:	e0bff915 	stw	r2,-28(fp)
        
        if ((data & ALTERA_AVALON_JTAG_UART_DATA_RVALID_MSK) == 0)
1000f8e8:	e0bff917 	ldw	r2,-28(fp)
1000f8ec:	10a0000c 	andi	r2,r2,32768
1000f8f0:	1000011e 	bne	r2,zero,1000f8f8 <altera_avalon_jtag_uart_irq+0x9c>
          break;
1000f8f4:	00000f06 	br	1000f934 <altera_avalon_jtag_uart_irq+0xd8>

        sp->rx_buf[sp->rx_in] = (data & ALTERA_AVALON_JTAG_UART_DATA_DATA_MSK) >> ALTERA_AVALON_JTAG_UART_DATA_DATA_OFST;
1000f8f8:	e0bffb17 	ldw	r2,-20(fp)
1000f8fc:	10800a17 	ldw	r2,40(r2)
1000f900:	e0fff917 	ldw	r3,-28(fp)
1000f904:	1809883a 	mov	r4,r3
1000f908:	e0fffb17 	ldw	r3,-20(fp)
1000f90c:	1885883a 	add	r2,r3,r2
1000f910:	10800e04 	addi	r2,r2,56
1000f914:	11000005 	stb	r4,0(r2)
        sp->rx_in = (sp->rx_in + 1) % ALTERA_AVALON_JTAG_UART_BUF_LEN;
1000f918:	e0bffb17 	ldw	r2,-20(fp)
1000f91c:	10800a17 	ldw	r2,40(r2)
1000f920:	10800044 	addi	r2,r2,1
1000f924:	10c1ffcc 	andi	r3,r2,2047
1000f928:	e0bffb17 	ldw	r2,-20(fp)
1000f92c:	10c00a15 	stw	r3,40(r2)

        /* Post an event to notify jtag_uart_read that a character has been read */
        ALT_FLAG_POST (sp->events, ALT_JTAG_UART_READ_RDY, OS_FLAG_SET);
      }
1000f930:	003fe006 	br	1000f8b4 <__alt_data_end+0xf800f8b4>

      if (data & ALTERA_AVALON_JTAG_UART_DATA_RAVAIL_MSK)
1000f934:	e0bff917 	ldw	r2,-28(fp)
1000f938:	10bfffec 	andhi	r2,r2,65535
1000f93c:	10000f26 	beq	r2,zero,1000f97c <altera_avalon_jtag_uart_irq+0x120>
      {
        /* If there is still data available here then the buffer is full 
         * so turn off receive interrupts until some space becomes available.
         */
        sp->irq_enable &= ~ALTERA_AVALON_JTAG_UART_CONTROL_RE_MSK;
1000f940:	e0bffb17 	ldw	r2,-20(fp)
1000f944:	10c00817 	ldw	r3,32(r2)
1000f948:	00bfff84 	movi	r2,-2
1000f94c:	1886703a 	and	r3,r3,r2
1000f950:	e0bffb17 	ldw	r2,-20(fp)
1000f954:	10c00815 	stw	r3,32(r2)
        IOWR_ALTERA_AVALON_JTAG_UART_CONTROL(base, sp->irq_enable);
1000f958:	e0bffc17 	ldw	r2,-16(fp)
1000f95c:	10800104 	addi	r2,r2,4
1000f960:	1007883a 	mov	r3,r2
1000f964:	e0bffb17 	ldw	r2,-20(fp)
1000f968:	10800817 	ldw	r2,32(r2)
1000f96c:	18800035 	stwio	r2,0(r3)
        
        /* Dummy read to ensure IRQ is cleared prior to ISR completion */
        IORD_ALTERA_AVALON_JTAG_UART_CONTROL(base);
1000f970:	e0bffc17 	ldw	r2,-16(fp)
1000f974:	10800104 	addi	r2,r2,4
1000f978:	10800037 	ldwio	r2,0(r2)
      }
    }

    if (control & ALTERA_AVALON_JTAG_UART_CONTROL_WI_MSK)
1000f97c:	e0bffd17 	ldw	r2,-12(fp)
1000f980:	1080800c 	andi	r2,r2,512
1000f984:	10003126 	beq	r2,zero,1000fa4c <altera_avalon_jtag_uart_irq+0x1f0>
    {
      /* process a write irq */
      unsigned int space = (control & ALTERA_AVALON_JTAG_UART_CONTROL_WSPACE_MSK) >> ALTERA_AVALON_JTAG_UART_CONTROL_WSPACE_OFST;
1000f988:	e0bffd17 	ldw	r2,-12(fp)
1000f98c:	1004d43a 	srli	r2,r2,16
1000f990:	e0bffa15 	stw	r2,-24(fp)

      while (space > 0 && sp->tx_out != sp->tx_in)
1000f994:	00001406 	br	1000f9e8 <altera_avalon_jtag_uart_irq+0x18c>
      {
        IOWR_ALTERA_AVALON_JTAG_UART_DATA(base, sp->tx_buf[sp->tx_out]);
1000f998:	e0bffc17 	ldw	r2,-16(fp)
1000f99c:	e0fffb17 	ldw	r3,-20(fp)
1000f9a0:	18c00d17 	ldw	r3,52(r3)
1000f9a4:	e13ffb17 	ldw	r4,-20(fp)
1000f9a8:	20c7883a 	add	r3,r4,r3
1000f9ac:	18c20e04 	addi	r3,r3,2104
1000f9b0:	18c00003 	ldbu	r3,0(r3)
1000f9b4:	18c03fcc 	andi	r3,r3,255
1000f9b8:	18c0201c 	xori	r3,r3,128
1000f9bc:	18ffe004 	addi	r3,r3,-128
1000f9c0:	10c00035 	stwio	r3,0(r2)

        sp->tx_out = (sp->tx_out + 1) % ALTERA_AVALON_JTAG_UART_BUF_LEN;
1000f9c4:	e0bffb17 	ldw	r2,-20(fp)
1000f9c8:	10800d17 	ldw	r2,52(r2)
1000f9cc:	10800044 	addi	r2,r2,1
1000f9d0:	10c1ffcc 	andi	r3,r2,2047
1000f9d4:	e0bffb17 	ldw	r2,-20(fp)
1000f9d8:	10c00d15 	stw	r3,52(r2)

        /* Post an event to notify jtag_uart_write that a character has been written */
        ALT_FLAG_POST (sp->events, ALT_JTAG_UART_WRITE_RDY, OS_FLAG_SET);

        space--;
1000f9dc:	e0bffa17 	ldw	r2,-24(fp)
1000f9e0:	10bfffc4 	addi	r2,r2,-1
1000f9e4:	e0bffa15 	stw	r2,-24(fp)
    if (control & ALTERA_AVALON_JTAG_UART_CONTROL_WI_MSK)
    {
      /* process a write irq */
      unsigned int space = (control & ALTERA_AVALON_JTAG_UART_CONTROL_WSPACE_MSK) >> ALTERA_AVALON_JTAG_UART_CONTROL_WSPACE_OFST;

      while (space > 0 && sp->tx_out != sp->tx_in)
1000f9e8:	e0bffa17 	ldw	r2,-24(fp)
1000f9ec:	10000526 	beq	r2,zero,1000fa04 <altera_avalon_jtag_uart_irq+0x1a8>
1000f9f0:	e0bffb17 	ldw	r2,-20(fp)
1000f9f4:	10c00d17 	ldw	r3,52(r2)
1000f9f8:	e0bffb17 	ldw	r2,-20(fp)
1000f9fc:	10800c17 	ldw	r2,48(r2)
1000fa00:	18bfe51e 	bne	r3,r2,1000f998 <__alt_data_end+0xf800f998>
        ALT_FLAG_POST (sp->events, ALT_JTAG_UART_WRITE_RDY, OS_FLAG_SET);

        space--;
      }

      if (space > 0)
1000fa04:	e0bffa17 	ldw	r2,-24(fp)
1000fa08:	10001026 	beq	r2,zero,1000fa4c <altera_avalon_jtag_uart_irq+0x1f0>
      {
        /* If we don't have any more data available then turn off the TX interrupt */
        sp->irq_enable &= ~ALTERA_AVALON_JTAG_UART_CONTROL_WE_MSK;
1000fa0c:	e0bffb17 	ldw	r2,-20(fp)
1000fa10:	10c00817 	ldw	r3,32(r2)
1000fa14:	00bfff44 	movi	r2,-3
1000fa18:	1886703a 	and	r3,r3,r2
1000fa1c:	e0bffb17 	ldw	r2,-20(fp)
1000fa20:	10c00815 	stw	r3,32(r2)
        IOWR_ALTERA_AVALON_JTAG_UART_CONTROL(sp->base, sp->irq_enable);
1000fa24:	e0bffb17 	ldw	r2,-20(fp)
1000fa28:	10800017 	ldw	r2,0(r2)
1000fa2c:	10800104 	addi	r2,r2,4
1000fa30:	1007883a 	mov	r3,r2
1000fa34:	e0bffb17 	ldw	r2,-20(fp)
1000fa38:	10800817 	ldw	r2,32(r2)
1000fa3c:	18800035 	stwio	r2,0(r3)
        
        /* Dummy read to ensure IRQ is cleared prior to ISR completion */
        IORD_ALTERA_AVALON_JTAG_UART_CONTROL(base);
1000fa40:	e0bffc17 	ldw	r2,-16(fp)
1000fa44:	10800104 	addi	r2,r2,4
1000fa48:	10800037 	ldwio	r2,0(r2)
      }
    }
  }
1000fa4c:	003f8c06 	br	1000f880 <__alt_data_end+0xf800f880>
}
1000fa50:	e037883a 	mov	sp,fp
1000fa54:	df000017 	ldw	fp,0(sp)
1000fa58:	dec00104 	addi	sp,sp,4
1000fa5c:	f800283a 	ret

1000fa60 <altera_avalon_jtag_uart_timeout>:
 * Timeout routine is called every second
 */

static alt_u32 
altera_avalon_jtag_uart_timeout(void* context) 
{
1000fa60:	defff804 	addi	sp,sp,-32
1000fa64:	df000715 	stw	fp,28(sp)
1000fa68:	df000704 	addi	fp,sp,28
1000fa6c:	e13ffb15 	stw	r4,-20(fp)
  altera_avalon_jtag_uart_state* sp = (altera_avalon_jtag_uart_state *) context;
1000fa70:	e0bffb17 	ldw	r2,-20(fp)
1000fa74:	e0bff915 	stw	r2,-28(fp)

  unsigned int control = IORD_ALTERA_AVALON_JTAG_UART_CONTROL(sp->base);
1000fa78:	e0bff917 	ldw	r2,-28(fp)
1000fa7c:	10800017 	ldw	r2,0(r2)
1000fa80:	10800104 	addi	r2,r2,4
1000fa84:	10800037 	ldwio	r2,0(r2)
1000fa88:	e0bffa15 	stw	r2,-24(fp)

  if (control & ALTERA_AVALON_JTAG_UART_CONTROL_AC_MSK)
1000fa8c:	e0bffa17 	ldw	r2,-24(fp)
1000fa90:	1081000c 	andi	r2,r2,1024
1000fa94:	10000b26 	beq	r2,zero,1000fac4 <altera_avalon_jtag_uart_timeout+0x64>
  {
    IOWR_ALTERA_AVALON_JTAG_UART_CONTROL(sp->base, sp->irq_enable | ALTERA_AVALON_JTAG_UART_CONTROL_AC_MSK);
1000fa98:	e0bff917 	ldw	r2,-28(fp)
1000fa9c:	10800017 	ldw	r2,0(r2)
1000faa0:	10800104 	addi	r2,r2,4
1000faa4:	1007883a 	mov	r3,r2
1000faa8:	e0bff917 	ldw	r2,-28(fp)
1000faac:	10800817 	ldw	r2,32(r2)
1000fab0:	10810014 	ori	r2,r2,1024
1000fab4:	18800035 	stwio	r2,0(r3)
    sp->host_inactive = 0;
1000fab8:	e0bff917 	ldw	r2,-28(fp)
1000fabc:	10000915 	stw	zero,36(r2)
1000fac0:	00000a06 	br	1000faec <altera_avalon_jtag_uart_timeout+0x8c>
  }
  else if (sp->host_inactive < INT_MAX - 2) {
1000fac4:	e0bff917 	ldw	r2,-28(fp)
1000fac8:	10c00917 	ldw	r3,36(r2)
1000facc:	00a00034 	movhi	r2,32768
1000fad0:	10bfff04 	addi	r2,r2,-4
1000fad4:	10c00536 	bltu	r2,r3,1000faec <altera_avalon_jtag_uart_timeout+0x8c>
    sp->host_inactive++;
1000fad8:	e0bff917 	ldw	r2,-28(fp)
1000fadc:	10800917 	ldw	r2,36(r2)
1000fae0:	10c00044 	addi	r3,r2,1
1000fae4:	e0bff917 	ldw	r2,-28(fp)
1000fae8:	10c00915 	stw	r3,36(r2)
1000faec:	00840074 	movhi	r2,4097
1000faf0:	10950a04 	addi	r2,r2,21544
1000faf4:	10800017 	ldw	r2,0(r2)
      ALT_FLAG_POST (sp->events, ALT_JTAG_UART_TIMEOUT, OS_FLAG_SET);
    }
  }

  return alt_ticks_per_second();
}
1000faf8:	e037883a 	mov	sp,fp
1000fafc:	df000017 	ldw	fp,0(sp)
1000fb00:	dec00104 	addi	sp,sp,4
1000fb04:	f800283a 	ret

1000fb08 <altera_avalon_jtag_uart_close>:
 * The close routine is not implemented for the small driver; instead it will
 * map to null. This is because the small driver simply waits while characters
 * are transmitted; there is no interrupt-serviced buffer to empty 
 */
int altera_avalon_jtag_uart_close(altera_avalon_jtag_uart_state* sp, int flags)
{
1000fb08:	defffd04 	addi	sp,sp,-12
1000fb0c:	df000215 	stw	fp,8(sp)
1000fb10:	df000204 	addi	fp,sp,8
1000fb14:	e13ffe15 	stw	r4,-8(fp)
1000fb18:	e17fff15 	stw	r5,-4(fp)
  /* 
   * Wait for all transmit data to be emptied by the JTAG UART ISR, or
   * for a host-inactivity timeout, in which case transmit data will be lost
   */
  while ( (sp->tx_out != sp->tx_in) && (sp->host_inactive < sp->timeout) ) {
1000fb1c:	00000506 	br	1000fb34 <altera_avalon_jtag_uart_close+0x2c>
    if (flags & O_NONBLOCK) {
1000fb20:	e0bfff17 	ldw	r2,-4(fp)
1000fb24:	1090000c 	andi	r2,r2,16384
1000fb28:	10000226 	beq	r2,zero,1000fb34 <altera_avalon_jtag_uart_close+0x2c>
      return -EWOULDBLOCK; 
1000fb2c:	00bffd44 	movi	r2,-11
1000fb30:	00000b06 	br	1000fb60 <altera_avalon_jtag_uart_close+0x58>
{
  /* 
   * Wait for all transmit data to be emptied by the JTAG UART ISR, or
   * for a host-inactivity timeout, in which case transmit data will be lost
   */
  while ( (sp->tx_out != sp->tx_in) && (sp->host_inactive < sp->timeout) ) {
1000fb34:	e0bffe17 	ldw	r2,-8(fp)
1000fb38:	10c00d17 	ldw	r3,52(r2)
1000fb3c:	e0bffe17 	ldw	r2,-8(fp)
1000fb40:	10800c17 	ldw	r2,48(r2)
1000fb44:	18800526 	beq	r3,r2,1000fb5c <altera_avalon_jtag_uart_close+0x54>
1000fb48:	e0bffe17 	ldw	r2,-8(fp)
1000fb4c:	10c00917 	ldw	r3,36(r2)
1000fb50:	e0bffe17 	ldw	r2,-8(fp)
1000fb54:	10800117 	ldw	r2,4(r2)
1000fb58:	18bff136 	bltu	r3,r2,1000fb20 <__alt_data_end+0xf800fb20>
    if (flags & O_NONBLOCK) {
      return -EWOULDBLOCK; 
    }
  }

  return 0;
1000fb5c:	0005883a 	mov	r2,zero
}
1000fb60:	e037883a 	mov	sp,fp
1000fb64:	df000017 	ldw	fp,0(sp)
1000fb68:	dec00104 	addi	sp,sp,4
1000fb6c:	f800283a 	ret

1000fb70 <altera_avalon_jtag_uart_ioctl>:
/* ----------------------------------------------------------- */

int 
altera_avalon_jtag_uart_ioctl(altera_avalon_jtag_uart_state* sp, int req,
  void* arg)
{
1000fb70:	defffa04 	addi	sp,sp,-24
1000fb74:	df000515 	stw	fp,20(sp)
1000fb78:	df000504 	addi	fp,sp,20
1000fb7c:	e13ffd15 	stw	r4,-12(fp)
1000fb80:	e17ffe15 	stw	r5,-8(fp)
1000fb84:	e1bfff15 	stw	r6,-4(fp)
  int rc = -ENOTTY;
1000fb88:	00bff9c4 	movi	r2,-25
1000fb8c:	e0bffb15 	stw	r2,-20(fp)

  switch (req)
1000fb90:	e0bffe17 	ldw	r2,-8(fp)
1000fb94:	10da8060 	cmpeqi	r3,r2,27137
1000fb98:	1800031e 	bne	r3,zero,1000fba8 <altera_avalon_jtag_uart_ioctl+0x38>
1000fb9c:	109a80a0 	cmpeqi	r2,r2,27138
1000fba0:	1000191e 	bne	r2,zero,1000fc08 <altera_avalon_jtag_uart_ioctl+0x98>
      rc = 0;
    }
    break;

  default:
    break;
1000fba4:	00002806 	br	1000fc48 <altera_avalon_jtag_uart_ioctl+0xd8>

  switch (req)
  {
  case TIOCSTIMEOUT:
    /* Set the time to wait until assuming host is not connected */
    if (sp->timeout != INT_MAX)
1000fba8:	e0bffd17 	ldw	r2,-12(fp)
1000fbac:	10c00117 	ldw	r3,4(r2)
1000fbb0:	00a00034 	movhi	r2,32768
1000fbb4:	10bfffc4 	addi	r2,r2,-1
1000fbb8:	18801226 	beq	r3,r2,1000fc04 <altera_avalon_jtag_uart_ioctl+0x94>
    {
      int timeout = *((int *)arg);
1000fbbc:	e0bfff17 	ldw	r2,-4(fp)
1000fbc0:	10800017 	ldw	r2,0(r2)
1000fbc4:	e0bffc15 	stw	r2,-16(fp)
      sp->timeout = (timeout >= 2 && timeout < INT_MAX) ? timeout : INT_MAX - 1;
1000fbc8:	e0bffc17 	ldw	r2,-16(fp)
1000fbcc:	10800090 	cmplti	r2,r2,2
1000fbd0:	1000061e 	bne	r2,zero,1000fbec <altera_avalon_jtag_uart_ioctl+0x7c>
1000fbd4:	e0fffc17 	ldw	r3,-16(fp)
1000fbd8:	00a00034 	movhi	r2,32768
1000fbdc:	10bfffc4 	addi	r2,r2,-1
1000fbe0:	18800226 	beq	r3,r2,1000fbec <altera_avalon_jtag_uart_ioctl+0x7c>
1000fbe4:	e0bffc17 	ldw	r2,-16(fp)
1000fbe8:	00000206 	br	1000fbf4 <altera_avalon_jtag_uart_ioctl+0x84>
1000fbec:	00a00034 	movhi	r2,32768
1000fbf0:	10bfff84 	addi	r2,r2,-2
1000fbf4:	e0fffd17 	ldw	r3,-12(fp)
1000fbf8:	18800115 	stw	r2,4(r3)
      rc = 0;
1000fbfc:	e03ffb15 	stw	zero,-20(fp)
    }
    break;
1000fc00:	00001106 	br	1000fc48 <altera_avalon_jtag_uart_ioctl+0xd8>
1000fc04:	00001006 	br	1000fc48 <altera_avalon_jtag_uart_ioctl+0xd8>

  case TIOCGCONNECTED:
    /* Find out whether host is connected */
    if (sp->timeout != INT_MAX)
1000fc08:	e0bffd17 	ldw	r2,-12(fp)
1000fc0c:	10c00117 	ldw	r3,4(r2)
1000fc10:	00a00034 	movhi	r2,32768
1000fc14:	10bfffc4 	addi	r2,r2,-1
1000fc18:	18800a26 	beq	r3,r2,1000fc44 <altera_avalon_jtag_uart_ioctl+0xd4>
    {
      *((int *)arg) = (sp->host_inactive < sp->timeout) ? 1 : 0;
1000fc1c:	e0bffd17 	ldw	r2,-12(fp)
1000fc20:	10c00917 	ldw	r3,36(r2)
1000fc24:	e0bffd17 	ldw	r2,-12(fp)
1000fc28:	10800117 	ldw	r2,4(r2)
1000fc2c:	1885803a 	cmpltu	r2,r3,r2
1000fc30:	10c03fcc 	andi	r3,r2,255
1000fc34:	e0bfff17 	ldw	r2,-4(fp)
1000fc38:	10c00015 	stw	r3,0(r2)
      rc = 0;
1000fc3c:	e03ffb15 	stw	zero,-20(fp)
    }
    break;
1000fc40:	00000006 	br	1000fc44 <altera_avalon_jtag_uart_ioctl+0xd4>
1000fc44:	0001883a 	nop

  default:
    break;
  }

  return rc;
1000fc48:	e0bffb17 	ldw	r2,-20(fp)
}
1000fc4c:	e037883a 	mov	sp,fp
1000fc50:	df000017 	ldw	fp,0(sp)
1000fc54:	dec00104 	addi	sp,sp,4
1000fc58:	f800283a 	ret

1000fc5c <altera_avalon_jtag_uart_read>:
/* ----------------------------------------------------------- */

int 
altera_avalon_jtag_uart_read(altera_avalon_jtag_uart_state* sp, 
  char * buffer, int space, int flags)
{
1000fc5c:	defff304 	addi	sp,sp,-52
1000fc60:	dfc00c15 	stw	ra,48(sp)
1000fc64:	df000b15 	stw	fp,44(sp)
1000fc68:	df000b04 	addi	fp,sp,44
1000fc6c:	e13ffc15 	stw	r4,-16(fp)
1000fc70:	e17ffd15 	stw	r5,-12(fp)
1000fc74:	e1bffe15 	stw	r6,-8(fp)
1000fc78:	e1ffff15 	stw	r7,-4(fp)
  char * ptr = buffer;
1000fc7c:	e0bffd17 	ldw	r2,-12(fp)
1000fc80:	e0bff515 	stw	r2,-44(fp)
   * When running in a multi threaded environment, obtain the "read_lock"
   * semaphore. This ensures that reading from the device is thread-safe.
   */
  ALT_SEM_PEND (sp->read_lock, 0);

  while (space > 0)
1000fc84:	00004906 	br	1000fdac <altera_avalon_jtag_uart_read+0x150>
    unsigned int in, out;

    /* Read as much data as possible */
    do
    {
      in  = sp->rx_in;
1000fc88:	e0bffc17 	ldw	r2,-16(fp)
1000fc8c:	10800a17 	ldw	r2,40(r2)
1000fc90:	e0bff715 	stw	r2,-36(fp)
      out = sp->rx_out;
1000fc94:	e0bffc17 	ldw	r2,-16(fp)
1000fc98:	10800b17 	ldw	r2,44(r2)
1000fc9c:	e0bff815 	stw	r2,-32(fp)

      if (in >= out)
1000fca0:	e0fff717 	ldw	r3,-36(fp)
1000fca4:	e0bff817 	ldw	r2,-32(fp)
1000fca8:	18800536 	bltu	r3,r2,1000fcc0 <altera_avalon_jtag_uart_read+0x64>
        n = in - out;
1000fcac:	e0fff717 	ldw	r3,-36(fp)
1000fcb0:	e0bff817 	ldw	r2,-32(fp)
1000fcb4:	1885c83a 	sub	r2,r3,r2
1000fcb8:	e0bff615 	stw	r2,-40(fp)
1000fcbc:	00000406 	br	1000fcd0 <altera_avalon_jtag_uart_read+0x74>
      else
        n = ALTERA_AVALON_JTAG_UART_BUF_LEN - out;
1000fcc0:	00c20004 	movi	r3,2048
1000fcc4:	e0bff817 	ldw	r2,-32(fp)
1000fcc8:	1885c83a 	sub	r2,r3,r2
1000fccc:	e0bff615 	stw	r2,-40(fp)

      if (n == 0)
1000fcd0:	e0bff617 	ldw	r2,-40(fp)
1000fcd4:	1000011e 	bne	r2,zero,1000fcdc <altera_avalon_jtag_uart_read+0x80>
        break; /* No more data available */
1000fcd8:	00001d06 	br	1000fd50 <altera_avalon_jtag_uart_read+0xf4>

      if (n > space)
1000fcdc:	e0fffe17 	ldw	r3,-8(fp)
1000fce0:	e0bff617 	ldw	r2,-40(fp)
1000fce4:	1880022e 	bgeu	r3,r2,1000fcf0 <altera_avalon_jtag_uart_read+0x94>
        n = space;
1000fce8:	e0bffe17 	ldw	r2,-8(fp)
1000fcec:	e0bff615 	stw	r2,-40(fp)

      memcpy(ptr, sp->rx_buf + out, n);
1000fcf0:	e0bff817 	ldw	r2,-32(fp)
1000fcf4:	10800e04 	addi	r2,r2,56
1000fcf8:	e0fffc17 	ldw	r3,-16(fp)
1000fcfc:	1885883a 	add	r2,r3,r2
1000fd00:	e13ff517 	ldw	r4,-44(fp)
1000fd04:	100b883a 	mov	r5,r2
1000fd08:	e1bff617 	ldw	r6,-40(fp)
1000fd0c:	0007ac00 	call	10007ac0 <memcpy>
      ptr   += n;
1000fd10:	e0fff517 	ldw	r3,-44(fp)
1000fd14:	e0bff617 	ldw	r2,-40(fp)
1000fd18:	1885883a 	add	r2,r3,r2
1000fd1c:	e0bff515 	stw	r2,-44(fp)
      space -= n;
1000fd20:	e0fffe17 	ldw	r3,-8(fp)
1000fd24:	e0bff617 	ldw	r2,-40(fp)
1000fd28:	1885c83a 	sub	r2,r3,r2
1000fd2c:	e0bffe15 	stw	r2,-8(fp)

      sp->rx_out = (out + n) % ALTERA_AVALON_JTAG_UART_BUF_LEN;
1000fd30:	e0fff817 	ldw	r3,-32(fp)
1000fd34:	e0bff617 	ldw	r2,-40(fp)
1000fd38:	1885883a 	add	r2,r3,r2
1000fd3c:	10c1ffcc 	andi	r3,r2,2047
1000fd40:	e0bffc17 	ldw	r2,-16(fp)
1000fd44:	10c00b15 	stw	r3,44(r2)
    }
    while (space > 0);
1000fd48:	e0bffe17 	ldw	r2,-8(fp)
1000fd4c:	00bfce16 	blt	zero,r2,1000fc88 <__alt_data_end+0xf800fc88>

    /* If we read any data then return it */
    if (ptr != buffer)
1000fd50:	e0fff517 	ldw	r3,-44(fp)
1000fd54:	e0bffd17 	ldw	r2,-12(fp)
1000fd58:	18800126 	beq	r3,r2,1000fd60 <altera_avalon_jtag_uart_read+0x104>
      break;
1000fd5c:	00001506 	br	1000fdb4 <altera_avalon_jtag_uart_read+0x158>

    /* If in non-blocking mode then return error */
    if (flags & O_NONBLOCK)
1000fd60:	e0bfff17 	ldw	r2,-4(fp)
1000fd64:	1090000c 	andi	r2,r2,16384
1000fd68:	10000126 	beq	r2,zero,1000fd70 <altera_avalon_jtag_uart_read+0x114>
      break;
1000fd6c:	00001106 	br	1000fdb4 <altera_avalon_jtag_uart_read+0x158>
      while (in == sp->rx_in && sp->host_inactive < sp->timeout)
        ;
    }
#else
    /* No OS: Always spin */
    while (in == sp->rx_in && sp->host_inactive < sp->timeout)
1000fd70:	0001883a 	nop
1000fd74:	e0bffc17 	ldw	r2,-16(fp)
1000fd78:	10c00a17 	ldw	r3,40(r2)
1000fd7c:	e0bff717 	ldw	r2,-36(fp)
1000fd80:	1880051e 	bne	r3,r2,1000fd98 <altera_avalon_jtag_uart_read+0x13c>
1000fd84:	e0bffc17 	ldw	r2,-16(fp)
1000fd88:	10c00917 	ldw	r3,36(r2)
1000fd8c:	e0bffc17 	ldw	r2,-16(fp)
1000fd90:	10800117 	ldw	r2,4(r2)
1000fd94:	18bff736 	bltu	r3,r2,1000fd74 <__alt_data_end+0xf800fd74>
      ;
#endif /* __ucosii__ */

    if (in == sp->rx_in)
1000fd98:	e0bffc17 	ldw	r2,-16(fp)
1000fd9c:	10c00a17 	ldw	r3,40(r2)
1000fda0:	e0bff717 	ldw	r2,-36(fp)
1000fda4:	1880011e 	bne	r3,r2,1000fdac <altera_avalon_jtag_uart_read+0x150>
      break;
1000fda8:	00000206 	br	1000fdb4 <altera_avalon_jtag_uart_read+0x158>
   * When running in a multi threaded environment, obtain the "read_lock"
   * semaphore. This ensures that reading from the device is thread-safe.
   */
  ALT_SEM_PEND (sp->read_lock, 0);

  while (space > 0)
1000fdac:	e0bffe17 	ldw	r2,-8(fp)
1000fdb0:	00bfb516 	blt	zero,r2,1000fc88 <__alt_data_end+0xf800fc88>
   * semaphore so that other threads can access the buffer.
   */

  ALT_SEM_POST (sp->read_lock);

  if (ptr != buffer)
1000fdb4:	e0fff517 	ldw	r3,-44(fp)
1000fdb8:	e0bffd17 	ldw	r2,-12(fp)
1000fdbc:	18801826 	beq	r3,r2,1000fe20 <altera_avalon_jtag_uart_read+0x1c4>
static ALT_INLINE alt_irq_context ALT_ALWAYS_INLINE 
       alt_irq_disable_all (void)
{
  alt_irq_context context;

  NIOS2_READ_STATUS (context);
1000fdc0:	0005303a 	rdctl	r2,status
1000fdc4:	e0bffa15 	stw	r2,-24(fp)

  NIOS2_WRITE_STATUS (context & ~NIOS2_STATUS_PIE_MSK);
1000fdc8:	e0fffa17 	ldw	r3,-24(fp)
1000fdcc:	00bfff84 	movi	r2,-2
1000fdd0:	1884703a 	and	r2,r3,r2
1000fdd4:	1001703a 	wrctl	status,r2
  
  return context;
1000fdd8:	e0bffa17 	ldw	r2,-24(fp)
  {
    /* If we read any data then there is space in the buffer so enable interrupts */
    context = alt_irq_disable_all();
1000fddc:	e0bff915 	stw	r2,-28(fp)
    sp->irq_enable |= ALTERA_AVALON_JTAG_UART_CONTROL_RE_MSK;
1000fde0:	e0bffc17 	ldw	r2,-16(fp)
1000fde4:	10800817 	ldw	r2,32(r2)
1000fde8:	10c00054 	ori	r3,r2,1
1000fdec:	e0bffc17 	ldw	r2,-16(fp)
1000fdf0:	10c00815 	stw	r3,32(r2)
    IOWR_ALTERA_AVALON_JTAG_UART_CONTROL(sp->base, sp->irq_enable);
1000fdf4:	e0bffc17 	ldw	r2,-16(fp)
1000fdf8:	10800017 	ldw	r2,0(r2)
1000fdfc:	10800104 	addi	r2,r2,4
1000fe00:	1007883a 	mov	r3,r2
1000fe04:	e0bffc17 	ldw	r2,-16(fp)
1000fe08:	10800817 	ldw	r2,32(r2)
1000fe0c:	18800035 	stwio	r2,0(r3)
1000fe10:	e0bff917 	ldw	r2,-28(fp)
1000fe14:	e0bffb15 	stw	r2,-20(fp)
  status &= ~NIOS2_STATUS_PIE_MSK;
  status |= (context & NIOS2_STATUS_PIE_MSK);
  
  NIOS2_WRITE_STATUS (status);
#else
  NIOS2_WRITE_STATUS (context);
1000fe18:	e0bffb17 	ldw	r2,-20(fp)
1000fe1c:	1001703a 	wrctl	status,r2
    alt_irq_enable_all(context);
  }

  if (ptr != buffer)
1000fe20:	e0fff517 	ldw	r3,-44(fp)
1000fe24:	e0bffd17 	ldw	r2,-12(fp)
1000fe28:	18800426 	beq	r3,r2,1000fe3c <altera_avalon_jtag_uart_read+0x1e0>
    return ptr - buffer;
1000fe2c:	e0fff517 	ldw	r3,-44(fp)
1000fe30:	e0bffd17 	ldw	r2,-12(fp)
1000fe34:	1885c83a 	sub	r2,r3,r2
1000fe38:	00000606 	br	1000fe54 <altera_avalon_jtag_uart_read+0x1f8>
  else if (flags & O_NONBLOCK)
1000fe3c:	e0bfff17 	ldw	r2,-4(fp)
1000fe40:	1090000c 	andi	r2,r2,16384
1000fe44:	10000226 	beq	r2,zero,1000fe50 <altera_avalon_jtag_uart_read+0x1f4>
    return -EWOULDBLOCK;
1000fe48:	00bffd44 	movi	r2,-11
1000fe4c:	00000106 	br	1000fe54 <altera_avalon_jtag_uart_read+0x1f8>
  else
    return -EIO;
1000fe50:	00bffec4 	movi	r2,-5
}
1000fe54:	e037883a 	mov	sp,fp
1000fe58:	dfc00117 	ldw	ra,4(sp)
1000fe5c:	df000017 	ldw	fp,0(sp)
1000fe60:	dec00204 	addi	sp,sp,8
1000fe64:	f800283a 	ret

1000fe68 <altera_avalon_jtag_uart_write>:
/* ----------------------------------------------------------- */

int 
altera_avalon_jtag_uart_write(altera_avalon_jtag_uart_state* sp, 
  const char * ptr, int count, int flags)
{
1000fe68:	defff304 	addi	sp,sp,-52
1000fe6c:	dfc00c15 	stw	ra,48(sp)
1000fe70:	df000b15 	stw	fp,44(sp)
1000fe74:	df000b04 	addi	fp,sp,44
1000fe78:	e13ffc15 	stw	r4,-16(fp)
1000fe7c:	e17ffd15 	stw	r5,-12(fp)
1000fe80:	e1bffe15 	stw	r6,-8(fp)
1000fe84:	e1ffff15 	stw	r7,-4(fp)
  /* Remove warning at optimisation level 03 by seting out to 0 */
  unsigned int in, out=0;
1000fe88:	e03ff515 	stw	zero,-44(fp)
  unsigned int n;
  alt_irq_context context;

  const char * start = ptr;
1000fe8c:	e0bffd17 	ldw	r2,-12(fp)
1000fe90:	e0bff715 	stw	r2,-36(fp)
  ALT_SEM_PEND (sp->write_lock, 0);

  do
  {
    /* Copy as much as we can into the transmit buffer */
    while (count > 0)
1000fe94:	00003806 	br	1000ff78 <altera_avalon_jtag_uart_write+0x110>
    {
      /* We need a stable value of the out pointer to calculate the space available */
      in  = sp->tx_in;
1000fe98:	e0bffc17 	ldw	r2,-16(fp)
1000fe9c:	10800c17 	ldw	r2,48(r2)
1000fea0:	e0bff815 	stw	r2,-32(fp)
      out = sp->tx_out;
1000fea4:	e0bffc17 	ldw	r2,-16(fp)
1000fea8:	10800d17 	ldw	r2,52(r2)
1000feac:	e0bff515 	stw	r2,-44(fp)

      if (in < out)
1000feb0:	e0fff817 	ldw	r3,-32(fp)
1000feb4:	e0bff517 	ldw	r2,-44(fp)
1000feb8:	1880062e 	bgeu	r3,r2,1000fed4 <altera_avalon_jtag_uart_write+0x6c>
        n = out - 1 - in;
1000febc:	e0fff517 	ldw	r3,-44(fp)
1000fec0:	e0bff817 	ldw	r2,-32(fp)
1000fec4:	1885c83a 	sub	r2,r3,r2
1000fec8:	10bfffc4 	addi	r2,r2,-1
1000fecc:	e0bff615 	stw	r2,-40(fp)
1000fed0:	00000b06 	br	1000ff00 <altera_avalon_jtag_uart_write+0x98>
      else if (out > 0)
1000fed4:	e0bff517 	ldw	r2,-44(fp)
1000fed8:	10000526 	beq	r2,zero,1000fef0 <altera_avalon_jtag_uart_write+0x88>
        n = ALTERA_AVALON_JTAG_UART_BUF_LEN - in;
1000fedc:	00c20004 	movi	r3,2048
1000fee0:	e0bff817 	ldw	r2,-32(fp)
1000fee4:	1885c83a 	sub	r2,r3,r2
1000fee8:	e0bff615 	stw	r2,-40(fp)
1000feec:	00000406 	br	1000ff00 <altera_avalon_jtag_uart_write+0x98>
      else
        n = ALTERA_AVALON_JTAG_UART_BUF_LEN - 1 - in;
1000fef0:	00c1ffc4 	movi	r3,2047
1000fef4:	e0bff817 	ldw	r2,-32(fp)
1000fef8:	1885c83a 	sub	r2,r3,r2
1000fefc:	e0bff615 	stw	r2,-40(fp)

      if (n == 0)
1000ff00:	e0bff617 	ldw	r2,-40(fp)
1000ff04:	1000011e 	bne	r2,zero,1000ff0c <altera_avalon_jtag_uart_write+0xa4>
        break;
1000ff08:	00001d06 	br	1000ff80 <altera_avalon_jtag_uart_write+0x118>

      if (n > count)
1000ff0c:	e0fffe17 	ldw	r3,-8(fp)
1000ff10:	e0bff617 	ldw	r2,-40(fp)
1000ff14:	1880022e 	bgeu	r3,r2,1000ff20 <altera_avalon_jtag_uart_write+0xb8>
        n = count;
1000ff18:	e0bffe17 	ldw	r2,-8(fp)
1000ff1c:	e0bff615 	stw	r2,-40(fp)

      memcpy(sp->tx_buf + in, ptr, n);
1000ff20:	e0bff817 	ldw	r2,-32(fp)
1000ff24:	10820e04 	addi	r2,r2,2104
1000ff28:	e0fffc17 	ldw	r3,-16(fp)
1000ff2c:	1885883a 	add	r2,r3,r2
1000ff30:	1009883a 	mov	r4,r2
1000ff34:	e17ffd17 	ldw	r5,-12(fp)
1000ff38:	e1bff617 	ldw	r6,-40(fp)
1000ff3c:	0007ac00 	call	10007ac0 <memcpy>
      ptr   += n;
1000ff40:	e0fffd17 	ldw	r3,-12(fp)
1000ff44:	e0bff617 	ldw	r2,-40(fp)
1000ff48:	1885883a 	add	r2,r3,r2
1000ff4c:	e0bffd15 	stw	r2,-12(fp)
      count -= n;
1000ff50:	e0fffe17 	ldw	r3,-8(fp)
1000ff54:	e0bff617 	ldw	r2,-40(fp)
1000ff58:	1885c83a 	sub	r2,r3,r2
1000ff5c:	e0bffe15 	stw	r2,-8(fp)

      sp->tx_in = (in + n) % ALTERA_AVALON_JTAG_UART_BUF_LEN;
1000ff60:	e0fff817 	ldw	r3,-32(fp)
1000ff64:	e0bff617 	ldw	r2,-40(fp)
1000ff68:	1885883a 	add	r2,r3,r2
1000ff6c:	10c1ffcc 	andi	r3,r2,2047
1000ff70:	e0bffc17 	ldw	r2,-16(fp)
1000ff74:	10c00c15 	stw	r3,48(r2)
  ALT_SEM_PEND (sp->write_lock, 0);

  do
  {
    /* Copy as much as we can into the transmit buffer */
    while (count > 0)
1000ff78:	e0bffe17 	ldw	r2,-8(fp)
1000ff7c:	00bfc616 	blt	zero,r2,1000fe98 <__alt_data_end+0xf800fe98>
static ALT_INLINE alt_irq_context ALT_ALWAYS_INLINE 
       alt_irq_disable_all (void)
{
  alt_irq_context context;

  NIOS2_READ_STATUS (context);
1000ff80:	0005303a 	rdctl	r2,status
1000ff84:	e0bffa15 	stw	r2,-24(fp)

  NIOS2_WRITE_STATUS (context & ~NIOS2_STATUS_PIE_MSK);
1000ff88:	e0fffa17 	ldw	r3,-24(fp)
1000ff8c:	00bfff84 	movi	r2,-2
1000ff90:	1884703a 	and	r2,r3,r2
1000ff94:	1001703a 	wrctl	status,r2
  
  return context;
1000ff98:	e0bffa17 	ldw	r2,-24(fp)
     * to enable interrupts if there is no space left in the FIFO
     *
     * For now kick the interrupt routine every time to make it transmit 
     * the data 
     */
    context = alt_irq_disable_all();
1000ff9c:	e0bff915 	stw	r2,-28(fp)
    sp->irq_enable |= ALTERA_AVALON_JTAG_UART_CONTROL_WE_MSK;
1000ffa0:	e0bffc17 	ldw	r2,-16(fp)
1000ffa4:	10800817 	ldw	r2,32(r2)
1000ffa8:	10c00094 	ori	r3,r2,2
1000ffac:	e0bffc17 	ldw	r2,-16(fp)
1000ffb0:	10c00815 	stw	r3,32(r2)
    IOWR_ALTERA_AVALON_JTAG_UART_CONTROL(sp->base, sp->irq_enable);
1000ffb4:	e0bffc17 	ldw	r2,-16(fp)
1000ffb8:	10800017 	ldw	r2,0(r2)
1000ffbc:	10800104 	addi	r2,r2,4
1000ffc0:	1007883a 	mov	r3,r2
1000ffc4:	e0bffc17 	ldw	r2,-16(fp)
1000ffc8:	10800817 	ldw	r2,32(r2)
1000ffcc:	18800035 	stwio	r2,0(r3)
1000ffd0:	e0bff917 	ldw	r2,-28(fp)
1000ffd4:	e0bffb15 	stw	r2,-20(fp)
  status &= ~NIOS2_STATUS_PIE_MSK;
  status |= (context & NIOS2_STATUS_PIE_MSK);
  
  NIOS2_WRITE_STATUS (status);
#else
  NIOS2_WRITE_STATUS (context);
1000ffd8:	e0bffb17 	ldw	r2,-20(fp)
1000ffdc:	1001703a 	wrctl	status,r2
    /* 
     * If there is any data left then either return now or block until 
     * some has been sent 
     */
    /* consider: test whether there is anything there while doing this and delay for at most 2s. */
    if (count > 0)
1000ffe0:	e0bffe17 	ldw	r2,-8(fp)
1000ffe4:	0080120e 	bge	zero,r2,10010030 <altera_avalon_jtag_uart_write+0x1c8>
    {
      if (flags & O_NONBLOCK)
1000ffe8:	e0bfff17 	ldw	r2,-4(fp)
1000ffec:	1090000c 	andi	r2,r2,16384
1000fff0:	10000126 	beq	r2,zero,1000fff8 <altera_avalon_jtag_uart_write+0x190>
        break;
1000fff4:	00001006 	br	10010038 <altera_avalon_jtag_uart_write+0x1d0>
      /*
       * No OS present: Always wait for data to be removed from buffer.  Once
       * the interrupt routine has removed some data then we will be able to
       * insert some more.
       */
      while (out == sp->tx_out && sp->host_inactive < sp->timeout)
1000fff8:	0001883a 	nop
1000fffc:	e0bffc17 	ldw	r2,-16(fp)
10010000:	10c00d17 	ldw	r3,52(r2)
10010004:	e0bff517 	ldw	r2,-44(fp)
10010008:	1880051e 	bne	r3,r2,10010020 <altera_avalon_jtag_uart_write+0x1b8>
1001000c:	e0bffc17 	ldw	r2,-16(fp)
10010010:	10c00917 	ldw	r3,36(r2)
10010014:	e0bffc17 	ldw	r2,-16(fp)
10010018:	10800117 	ldw	r2,4(r2)
1001001c:	18bff736 	bltu	r3,r2,1000fffc <__alt_data_end+0xf800fffc>
        ;
#endif /* __ucosii__ */

      if  (sp->host_inactive)
10010020:	e0bffc17 	ldw	r2,-16(fp)
10010024:	10800917 	ldw	r2,36(r2)
10010028:	10000126 	beq	r2,zero,10010030 <altera_avalon_jtag_uart_write+0x1c8>
         break;
1001002c:	00000206 	br	10010038 <altera_avalon_jtag_uart_write+0x1d0>
    }
  }
  while (count > 0);
10010030:	e0bffe17 	ldw	r2,-8(fp)
10010034:	00bf9716 	blt	zero,r2,1000fe94 <__alt_data_end+0xf800fe94>
   * Now that access to the circular buffer is complete, release the write
   * semaphore so that other threads can access the buffer.
   */
  ALT_SEM_POST (sp->write_lock);

  if (ptr != start)
10010038:	e0fffd17 	ldw	r3,-12(fp)
1001003c:	e0bff717 	ldw	r2,-36(fp)
10010040:	18800426 	beq	r3,r2,10010054 <altera_avalon_jtag_uart_write+0x1ec>
    return ptr - start;
10010044:	e0fffd17 	ldw	r3,-12(fp)
10010048:	e0bff717 	ldw	r2,-36(fp)
1001004c:	1885c83a 	sub	r2,r3,r2
10010050:	00000606 	br	1001006c <altera_avalon_jtag_uart_write+0x204>
  else if (flags & O_NONBLOCK)
10010054:	e0bfff17 	ldw	r2,-4(fp)
10010058:	1090000c 	andi	r2,r2,16384
1001005c:	10000226 	beq	r2,zero,10010068 <altera_avalon_jtag_uart_write+0x200>
    return -EWOULDBLOCK;
10010060:	00bffd44 	movi	r2,-11
10010064:	00000106 	br	1001006c <altera_avalon_jtag_uart_write+0x204>
    sp->tx_out = sp->tx_in = 0;
    return ptr - start + count;
  }
#endif
  else
    return -EIO; /* Host not connected */
10010068:	00bffec4 	movi	r2,-5
}
1001006c:	e037883a 	mov	sp,fp
10010070:	dfc00117 	ldw	ra,4(sp)
10010074:	df000017 	ldw	fp,0(sp)
10010078:	dec00204 	addi	sp,sp,8
1001007c:	f800283a 	ret

10010080 <alt_alarm_start>:
 */ 

int alt_alarm_start (alt_alarm* alarm, alt_u32 nticks,
                     alt_u32 (*callback) (void* context),
                     void* context)
{
10010080:	defff504 	addi	sp,sp,-44
10010084:	df000a15 	stw	fp,40(sp)
10010088:	df000a04 	addi	fp,sp,40
1001008c:	e13ffc15 	stw	r4,-16(fp)
10010090:	e17ffd15 	stw	r5,-12(fp)
10010094:	e1bffe15 	stw	r6,-8(fp)
10010098:	e1ffff15 	stw	r7,-4(fp)
  alt_irq_context irq_context;
  alt_u32 current_nticks = 0;
1001009c:	e03ff615 	stw	zero,-40(fp)
100100a0:	00840074 	movhi	r2,4097
100100a4:	10950a04 	addi	r2,r2,21544
100100a8:	10800017 	ldw	r2,0(r2)
  
  if (alt_ticks_per_second ())
100100ac:	10003f26 	beq	r2,zero,100101ac <alt_alarm_start+0x12c>
  {
    if (alarm)
100100b0:	e0bffc17 	ldw	r2,-16(fp)
100100b4:	10003b26 	beq	r2,zero,100101a4 <alt_alarm_start+0x124>
    {
      alarm->callback = callback;
100100b8:	e0bffc17 	ldw	r2,-16(fp)
100100bc:	e0fffe17 	ldw	r3,-8(fp)
100100c0:	10c00315 	stw	r3,12(r2)
      alarm->context  = context;
100100c4:	e0bffc17 	ldw	r2,-16(fp)
100100c8:	e0ffff17 	ldw	r3,-4(fp)
100100cc:	10c00515 	stw	r3,20(r2)
static ALT_INLINE alt_irq_context ALT_ALWAYS_INLINE 
       alt_irq_disable_all (void)
{
  alt_irq_context context;

  NIOS2_READ_STATUS (context);
100100d0:	0005303a 	rdctl	r2,status
100100d4:	e0bff815 	stw	r2,-32(fp)

  NIOS2_WRITE_STATUS (context & ~NIOS2_STATUS_PIE_MSK);
100100d8:	e0fff817 	ldw	r3,-32(fp)
100100dc:	00bfff84 	movi	r2,-2
100100e0:	1884703a 	and	r2,r3,r2
100100e4:	1001703a 	wrctl	status,r2
  
  return context;
100100e8:	e0bff817 	ldw	r2,-32(fp)
 
      irq_context = alt_irq_disable_all ();
100100ec:	e0bff715 	stw	r2,-36(fp)
 * alt_nticks() returns the elapsed number of system clock ticks since reset.
 */

static ALT_INLINE alt_u32 ALT_ALWAYS_INLINE alt_nticks (void)
{
  return _alt_nticks;
100100f0:	00840074 	movhi	r2,4097
100100f4:	10950b04 	addi	r2,r2,21548
100100f8:	10800017 	ldw	r2,0(r2)
      
      current_nticks = alt_nticks();
100100fc:	e0bff615 	stw	r2,-40(fp)
      
      alarm->time = nticks + current_nticks + 1; 
10010100:	e0fffd17 	ldw	r3,-12(fp)
10010104:	e0bff617 	ldw	r2,-40(fp)
10010108:	1885883a 	add	r2,r3,r2
1001010c:	10c00044 	addi	r3,r2,1
10010110:	e0bffc17 	ldw	r2,-16(fp)
10010114:	10c00215 	stw	r3,8(r2)
      /* 
       * If the desired alarm time causes a roll-over, set the rollover
       * flag. This will prevent the subsequent tick event from causing
       * an alarm too early.
       */
      if(alarm->time < current_nticks)
10010118:	e0bffc17 	ldw	r2,-16(fp)
1001011c:	10c00217 	ldw	r3,8(r2)
10010120:	e0bff617 	ldw	r2,-40(fp)
10010124:	1880042e 	bgeu	r3,r2,10010138 <alt_alarm_start+0xb8>
      {
        alarm->rollover = 1;
10010128:	e0bffc17 	ldw	r2,-16(fp)
1001012c:	00c00044 	movi	r3,1
10010130:	10c00405 	stb	r3,16(r2)
10010134:	00000206 	br	10010140 <alt_alarm_start+0xc0>
      }
      else
      {
        alarm->rollover = 0;
10010138:	e0bffc17 	ldw	r2,-16(fp)
1001013c:	10000405 	stb	zero,16(r2)
      }
    
      alt_llist_insert (&alt_alarm_list, &alarm->llist);
10010140:	e0fffc17 	ldw	r3,-16(fp)
10010144:	00840074 	movhi	r2,4097
10010148:	108e4104 	addi	r2,r2,14596
1001014c:	e0bff915 	stw	r2,-28(fp)
10010150:	e0fffa15 	stw	r3,-24(fp)
 */

static ALT_INLINE void ALT_ALWAYS_INLINE alt_llist_insert(alt_llist* list, 
                alt_llist* entry)
{
  entry->previous = list;
10010154:	e0bffa17 	ldw	r2,-24(fp)
10010158:	e0fff917 	ldw	r3,-28(fp)
1001015c:	10c00115 	stw	r3,4(r2)
  entry->next     = list->next;
10010160:	e0bff917 	ldw	r2,-28(fp)
10010164:	10c00017 	ldw	r3,0(r2)
10010168:	e0bffa17 	ldw	r2,-24(fp)
1001016c:	10c00015 	stw	r3,0(r2)

  list->next->previous = entry;
10010170:	e0bff917 	ldw	r2,-28(fp)
10010174:	10800017 	ldw	r2,0(r2)
10010178:	e0fffa17 	ldw	r3,-24(fp)
1001017c:	10c00115 	stw	r3,4(r2)
  list->next           = entry;
10010180:	e0bff917 	ldw	r2,-28(fp)
10010184:	e0fffa17 	ldw	r3,-24(fp)
10010188:	10c00015 	stw	r3,0(r2)
1001018c:	e0bff717 	ldw	r2,-36(fp)
10010190:	e0bffb15 	stw	r2,-20(fp)
  status &= ~NIOS2_STATUS_PIE_MSK;
  status |= (context & NIOS2_STATUS_PIE_MSK);
  
  NIOS2_WRITE_STATUS (status);
#else
  NIOS2_WRITE_STATUS (context);
10010194:	e0bffb17 	ldw	r2,-20(fp)
10010198:	1001703a 	wrctl	status,r2
      alt_irq_enable_all (irq_context);

      return 0;
1001019c:	0005883a 	mov	r2,zero
100101a0:	00000306 	br	100101b0 <alt_alarm_start+0x130>
    }
    else
    {
      return -EINVAL;
100101a4:	00bffa84 	movi	r2,-22
100101a8:	00000106 	br	100101b0 <alt_alarm_start+0x130>
    }
  }
  else
  {
    return -ENOTSUP;
100101ac:	00bfde84 	movi	r2,-134
  }
}
100101b0:	e037883a 	mov	sp,fp
100101b4:	df000017 	ldw	fp,0(sp)
100101b8:	dec00104 	addi	sp,sp,4
100101bc:	f800283a 	ret

100101c0 <alt_busy_sleep>:
#include "alt_types.h"

#include "priv/alt_busy_sleep.h"

unsigned int alt_busy_sleep (unsigned int us)
{
100101c0:	defffa04 	addi	sp,sp,-24
100101c4:	dfc00515 	stw	ra,20(sp)
100101c8:	df000415 	stw	fp,16(sp)
100101cc:	df000404 	addi	fp,sp,16
100101d0:	e13fff15 	stw	r4,-4(fp)
  int big_loops;
  alt_u32 cycles_per_loop;
  
  if (!strcmp(NIOS2_CPU_IMPLEMENTATION,"tiny"))
  {
    cycles_per_loop = 9;
100101d4:	00800244 	movi	r2,9
100101d8:	e0bffd15 	stw	r2,-12(fp)
    cycles_per_loop = 3;
  }
  

  big_loops = us / (INT_MAX/
  (ALT_CPU_FREQ/(cycles_per_loop * 1000000)));
100101dc:	e13ffd17 	ldw	r4,-12(fp)
100101e0:	014003f4 	movhi	r5,15
100101e4:	29509004 	addi	r5,r5,16960
100101e8:	000c3380 	call	1000c338 <__mulsi3>
100101ec:	0100bef4 	movhi	r4,763
100101f0:	213c2004 	addi	r4,r4,-3968
100101f4:	100b883a 	mov	r5,r2
100101f8:	000c3280 	call	1000c328 <__udivsi3>
  {
    cycles_per_loop = 3;
  }
  

  big_loops = us / (INT_MAX/
100101fc:	01200034 	movhi	r4,32768
10010200:	213fffc4 	addi	r4,r4,-1
10010204:	100b883a 	mov	r5,r2
10010208:	000c3280 	call	1000c328 <__udivsi3>
1001020c:	e13fff17 	ldw	r4,-4(fp)
10010210:	100b883a 	mov	r5,r2
10010214:	000c3280 	call	1000c328 <__udivsi3>
10010218:	e0bffe15 	stw	r2,-8(fp)
  (ALT_CPU_FREQ/(cycles_per_loop * 1000000)));

  if (big_loops)
1001021c:	e0bffe17 	ldw	r2,-8(fp)
10010220:	10002a26 	beq	r2,zero,100102cc <alt_busy_sleep+0x10c>
  {
    for(i=0;i<big_loops;i++)
10010224:	e03ffc15 	stw	zero,-16(fp)
10010228:	00001706 	br	10010288 <alt_busy_sleep+0xc8>
      /*
      * Do NOT Try to single step the asm statement below 
      * (single step will never return)
      * Step out of this function or set a breakpoint after the asm statements
      */
      __asm__ volatile (
1001022c:	00a00034 	movhi	r2,32768
10010230:	10bfffc4 	addi	r2,r2,-1
10010234:	10bfffc4 	addi	r2,r2,-1
10010238:	103ffe1e 	bne	r2,zero,10010234 <__alt_data_end+0xf8010234>
        "\n\t.pushsection .debug_alt_sim_info"
        "\n\t.int 4, 0, 0b, 1b"
        "\n\t.popsection"
        :: "r" (INT_MAX));
      us -= (INT_MAX/(ALT_CPU_FREQ/
      (cycles_per_loop * 1000000)));
1001023c:	e13ffd17 	ldw	r4,-12(fp)
10010240:	014003f4 	movhi	r5,15
10010244:	29509004 	addi	r5,r5,16960
10010248:	000c3380 	call	1000c338 <__mulsi3>
        "\n1:"
        "\n\t.pushsection .debug_alt_sim_info"
        "\n\t.int 4, 0, 0b, 1b"
        "\n\t.popsection"
        :: "r" (INT_MAX));
      us -= (INT_MAX/(ALT_CPU_FREQ/
1001024c:	0100bef4 	movhi	r4,763
10010250:	213c2004 	addi	r4,r4,-3968
10010254:	100b883a 	mov	r5,r2
10010258:	000c3280 	call	1000c328 <__udivsi3>
1001025c:	01200034 	movhi	r4,32768
10010260:	213fffc4 	addi	r4,r4,-1
10010264:	100b883a 	mov	r5,r2
10010268:	000c3280 	call	1000c328 <__udivsi3>
1001026c:	1007883a 	mov	r3,r2
10010270:	e0bfff17 	ldw	r2,-4(fp)
10010274:	10c5c83a 	sub	r2,r2,r3
10010278:	e0bfff15 	stw	r2,-4(fp)
  big_loops = us / (INT_MAX/
  (ALT_CPU_FREQ/(cycles_per_loop * 1000000)));

  if (big_loops)
  {
    for(i=0;i<big_loops;i++)
1001027c:	e0bffc17 	ldw	r2,-16(fp)
10010280:	10800044 	addi	r2,r2,1
10010284:	e0bffc15 	stw	r2,-16(fp)
10010288:	e0fffc17 	ldw	r3,-16(fp)
1001028c:	e0bffe17 	ldw	r2,-8(fp)
10010290:	18bfe616 	blt	r3,r2,1001022c <__alt_data_end+0xf801022c>
      "\n\tbne %0,zero,0b"
      "\n1:"
      "\n\t.pushsection .debug_alt_sim_info"
      "\n\t.int 4, 0, 0b, 1b"
      "\n\t.popsection"
      :: "r" (us*(ALT_CPU_FREQ/(cycles_per_loop * 1000000))));
10010294:	e13ffd17 	ldw	r4,-12(fp)
10010298:	014003f4 	movhi	r5,15
1001029c:	29509004 	addi	r5,r5,16960
100102a0:	000c3380 	call	1000c338 <__mulsi3>
100102a4:	0100bef4 	movhi	r4,763
100102a8:	213c2004 	addi	r4,r4,-3968
100102ac:	100b883a 	mov	r5,r2
100102b0:	000c3280 	call	1000c328 <__udivsi3>
100102b4:	1009883a 	mov	r4,r2
100102b8:	e17fff17 	ldw	r5,-4(fp)
100102bc:	000c3380 	call	1000c338 <__mulsi3>
    /*
    * Do NOT Try to single step the asm statement below 
    * (single step will never return)
    * Step out of this function or set a breakpoint after the asm statements
    */
    __asm__ volatile (
100102c0:	10bfffc4 	addi	r2,r2,-1
100102c4:	103ffe1e 	bne	r2,zero,100102c0 <__alt_data_end+0xf80102c0>
100102c8:	00000d06 	br	10010300 <alt_busy_sleep+0x140>
      "\n\tbgt %0,zero,0b"
      "\n1:"
      "\n\t.pushsection .debug_alt_sim_info"
      "\n\t.int 4, 0, 0b, 1b"
      "\n\t.popsection"
      :: "r" (us*(ALT_CPU_FREQ/(cycles_per_loop * 1000000))));
100102cc:	e13ffd17 	ldw	r4,-12(fp)
100102d0:	014003f4 	movhi	r5,15
100102d4:	29509004 	addi	r5,r5,16960
100102d8:	000c3380 	call	1000c338 <__mulsi3>
100102dc:	0100bef4 	movhi	r4,763
100102e0:	213c2004 	addi	r4,r4,-3968
100102e4:	100b883a 	mov	r5,r2
100102e8:	000c3280 	call	1000c328 <__udivsi3>
100102ec:	1009883a 	mov	r4,r2
100102f0:	e17fff17 	ldw	r5,-4(fp)
100102f4:	000c3380 	call	1000c338 <__mulsi3>
    /*
    * Do NOT Try to single step the asm statement below 
    * (single step will never return)
    * Step out of this function or set a breakpoint after the asm statements
    */
    __asm__ volatile (
100102f8:	10bfffc4 	addi	r2,r2,-1
100102fc:	00bffe16 	blt	zero,r2,100102f8 <__alt_data_end+0xf80102f8>
      "\n\t.int 4, 0, 0b, 1b"
      "\n\t.popsection"
      :: "r" (us*(ALT_CPU_FREQ/(cycles_per_loop * 1000000))));
  }
#endif /* #ifndef ALT_SIM_OPTIMIZE */
  return 0;
10010300:	0005883a 	mov	r2,zero
}
10010304:	e037883a 	mov	sp,fp
10010308:	dfc00117 	ldw	ra,4(sp)
1001030c:	df000017 	ldw	fp,0(sp)
10010310:	dec00204 	addi	sp,sp,8
10010314:	f800283a 	ret

10010318 <alt_dcache_flush_all>:
/*
 * alt_dcache_flush_all() is called to flush the entire data cache.
 */

void alt_dcache_flush_all (void)
{
10010318:	deffff04 	addi	sp,sp,-4
1001031c:	df000015 	stw	fp,0(sp)
10010320:	d839883a 	mov	fp,sp
  for (i = (char*) 0; i < (char*) NIOS2_DCACHE_SIZE; i+= NIOS2_DCACHE_LINE_SIZE)
  { 
    __asm__ volatile ("flushd (%0)" :: "r" (i));
  }
#endif /* NIOS2_DCACHE_SIZE > 0 */
}
10010324:	e037883a 	mov	sp,fp
10010328:	df000017 	ldw	fp,0(sp)
1001032c:	dec00104 	addi	sp,sp,4
10010330:	f800283a 	ret

10010334 <alt_get_errno>:
#undef errno

extern int errno;

static ALT_INLINE int* alt_get_errno(void)
{
10010334:	defffe04 	addi	sp,sp,-8
10010338:	dfc00115 	stw	ra,4(sp)
1001033c:	df000015 	stw	fp,0(sp)
10010340:	d839883a 	mov	fp,sp
  return ((alt_errno) ? alt_errno() : &errno);
10010344:	00840074 	movhi	r2,4097
10010348:	108e3e04 	addi	r2,r2,14584
1001034c:	10800017 	ldw	r2,0(r2)
10010350:	10000526 	beq	r2,zero,10010368 <alt_get_errno+0x34>
10010354:	00840074 	movhi	r2,4097
10010358:	108e3e04 	addi	r2,r2,14584
1001035c:	10800017 	ldw	r2,0(r2)
10010360:	103ee83a 	callr	r2
10010364:	00000206 	br	10010370 <alt_get_errno+0x3c>
10010368:	00840074 	movhi	r2,4097
1001036c:	10950504 	addi	r2,r2,21524
}
10010370:	e037883a 	mov	sp,fp
10010374:	dfc00117 	ldw	ra,4(sp)
10010378:	df000017 	ldw	fp,0(sp)
1001037c:	dec00204 	addi	sp,sp,8
10010380:	f800283a 	ret

10010384 <alt_dev_llist_insert>:
/*
 *
 */

int alt_dev_llist_insert (alt_dev_llist* dev, alt_llist* list)
{
10010384:	defffa04 	addi	sp,sp,-24
10010388:	dfc00515 	stw	ra,20(sp)
1001038c:	df000415 	stw	fp,16(sp)
10010390:	df000404 	addi	fp,sp,16
10010394:	e13ffe15 	stw	r4,-8(fp)
10010398:	e17fff15 	stw	r5,-4(fp)
  /*
   * check that the device exists, and that it has a valid name.
   */

  if (!dev || !dev->name)
1001039c:	e0bffe17 	ldw	r2,-8(fp)
100103a0:	10000326 	beq	r2,zero,100103b0 <alt_dev_llist_insert+0x2c>
100103a4:	e0bffe17 	ldw	r2,-8(fp)
100103a8:	10800217 	ldw	r2,8(r2)
100103ac:	1000061e 	bne	r2,zero,100103c8 <alt_dev_llist_insert+0x44>
  {
    ALT_ERRNO = EINVAL;
100103b0:	00103340 	call	10010334 <alt_get_errno>
100103b4:	1007883a 	mov	r3,r2
100103b8:	00800584 	movi	r2,22
100103bc:	18800015 	stw	r2,0(r3)
    return -EINVAL;
100103c0:	00bffa84 	movi	r2,-22
100103c4:	00001306 	br	10010414 <alt_dev_llist_insert+0x90>
  
  /*
   * register the device.
   */
  
  alt_llist_insert(list, &dev->llist);
100103c8:	e0bffe17 	ldw	r2,-8(fp)
100103cc:	e0ffff17 	ldw	r3,-4(fp)
100103d0:	e0fffc15 	stw	r3,-16(fp)
100103d4:	e0bffd15 	stw	r2,-12(fp)
 */

static ALT_INLINE void ALT_ALWAYS_INLINE alt_llist_insert(alt_llist* list, 
                alt_llist* entry)
{
  entry->previous = list;
100103d8:	e0bffd17 	ldw	r2,-12(fp)
100103dc:	e0fffc17 	ldw	r3,-16(fp)
100103e0:	10c00115 	stw	r3,4(r2)
  entry->next     = list->next;
100103e4:	e0bffc17 	ldw	r2,-16(fp)
100103e8:	10c00017 	ldw	r3,0(r2)
100103ec:	e0bffd17 	ldw	r2,-12(fp)
100103f0:	10c00015 	stw	r3,0(r2)

  list->next->previous = entry;
100103f4:	e0bffc17 	ldw	r2,-16(fp)
100103f8:	10800017 	ldw	r2,0(r2)
100103fc:	e0fffd17 	ldw	r3,-12(fp)
10010400:	10c00115 	stw	r3,4(r2)
  list->next           = entry;
10010404:	e0bffc17 	ldw	r2,-16(fp)
10010408:	e0fffd17 	ldw	r3,-12(fp)
1001040c:	10c00015 	stw	r3,0(r2)

  return 0;  
10010410:	0005883a 	mov	r2,zero
}
10010414:	e037883a 	mov	sp,fp
10010418:	dfc00117 	ldw	ra,4(sp)
1001041c:	df000017 	ldw	fp,0(sp)
10010420:	dec00204 	addi	sp,sp,8
10010424:	f800283a 	ret

10010428 <_do_ctors>:
/*
 * Run the C++ static constructors.
 */

void _do_ctors(void)
{
10010428:	defffd04 	addi	sp,sp,-12
1001042c:	dfc00215 	stw	ra,8(sp)
10010430:	df000115 	stw	fp,4(sp)
10010434:	df000104 	addi	fp,sp,4
  constructor* ctor;

  for (ctor = &__CTOR_END__[-1]; ctor >= __CTOR_LIST__; ctor--)
10010438:	00840074 	movhi	r2,4097
1001043c:	1084e704 	addi	r2,r2,5020
10010440:	e0bfff15 	stw	r2,-4(fp)
10010444:	00000606 	br	10010460 <_do_ctors+0x38>
        (*ctor) (); 
10010448:	e0bfff17 	ldw	r2,-4(fp)
1001044c:	10800017 	ldw	r2,0(r2)
10010450:	103ee83a 	callr	r2

void _do_ctors(void)
{
  constructor* ctor;

  for (ctor = &__CTOR_END__[-1]; ctor >= __CTOR_LIST__; ctor--)
10010454:	e0bfff17 	ldw	r2,-4(fp)
10010458:	10bfff04 	addi	r2,r2,-4
1001045c:	e0bfff15 	stw	r2,-4(fp)
10010460:	e0ffff17 	ldw	r3,-4(fp)
10010464:	00840074 	movhi	r2,4097
10010468:	1084e804 	addi	r2,r2,5024
1001046c:	18bff62e 	bgeu	r3,r2,10010448 <__alt_data_end+0xf8010448>
        (*ctor) (); 
}
10010470:	e037883a 	mov	sp,fp
10010474:	dfc00117 	ldw	ra,4(sp)
10010478:	df000017 	ldw	fp,0(sp)
1001047c:	dec00204 	addi	sp,sp,8
10010480:	f800283a 	ret

10010484 <_do_dtors>:
/*
 * Run the C++ static destructors.
 */

void _do_dtors(void)
{
10010484:	defffd04 	addi	sp,sp,-12
10010488:	dfc00215 	stw	ra,8(sp)
1001048c:	df000115 	stw	fp,4(sp)
10010490:	df000104 	addi	fp,sp,4
  destructor* dtor;

  for (dtor = &__DTOR_END__[-1]; dtor >= __DTOR_LIST__; dtor--)
10010494:	00840074 	movhi	r2,4097
10010498:	1084e704 	addi	r2,r2,5020
1001049c:	e0bfff15 	stw	r2,-4(fp)
100104a0:	00000606 	br	100104bc <_do_dtors+0x38>
        (*dtor) (); 
100104a4:	e0bfff17 	ldw	r2,-4(fp)
100104a8:	10800017 	ldw	r2,0(r2)
100104ac:	103ee83a 	callr	r2

void _do_dtors(void)
{
  destructor* dtor;

  for (dtor = &__DTOR_END__[-1]; dtor >= __DTOR_LIST__; dtor--)
100104b0:	e0bfff17 	ldw	r2,-4(fp)
100104b4:	10bfff04 	addi	r2,r2,-4
100104b8:	e0bfff15 	stw	r2,-4(fp)
100104bc:	e0ffff17 	ldw	r3,-4(fp)
100104c0:	00840074 	movhi	r2,4097
100104c4:	1084e804 	addi	r2,r2,5024
100104c8:	18bff62e 	bgeu	r3,r2,100104a4 <__alt_data_end+0xf80104a4>
        (*dtor) (); 
}
100104cc:	e037883a 	mov	sp,fp
100104d0:	dfc00117 	ldw	ra,4(sp)
100104d4:	df000017 	ldw	fp,0(sp)
100104d8:	dec00204 	addi	sp,sp,8
100104dc:	f800283a 	ret

100104e0 <alt_icache_flush_all>:
/*
 * alt_icache_flush_all() is called to flush the entire instruction cache.
 */

void alt_icache_flush_all (void)
{
100104e0:	deffff04 	addi	sp,sp,-4
100104e4:	df000015 	stw	fp,0(sp)
100104e8:	d839883a 	mov	fp,sp
#if NIOS2_ICACHE_SIZE > 0
  alt_icache_flush (0, NIOS2_ICACHE_SIZE);
#endif
}
100104ec:	e037883a 	mov	sp,fp
100104f0:	df000017 	ldw	fp,0(sp)
100104f4:	dec00104 	addi	sp,sp,4
100104f8:	f800283a 	ret

100104fc <alt_ic_isr_register>:
  * @param irq              IRQ number
  * @return                 0 if successful, else error (-1)
  */
int alt_ic_isr_register(alt_u32 ic_id, alt_u32 irq, alt_isr_func isr, 
  void *isr_context, void *flags)
{
100104fc:	defff904 	addi	sp,sp,-28
10010500:	dfc00615 	stw	ra,24(sp)
10010504:	df000515 	stw	fp,20(sp)
10010508:	df000504 	addi	fp,sp,20
1001050c:	e13ffc15 	stw	r4,-16(fp)
10010510:	e17ffd15 	stw	r5,-12(fp)
10010514:	e1bffe15 	stw	r6,-8(fp)
10010518:	e1ffff15 	stw	r7,-4(fp)
    return alt_iic_isr_register(ic_id, irq, isr, isr_context, flags);
1001051c:	e0800217 	ldw	r2,8(fp)
10010520:	d8800015 	stw	r2,0(sp)
10010524:	e13ffc17 	ldw	r4,-16(fp)
10010528:	e17ffd17 	ldw	r5,-12(fp)
1001052c:	e1bffe17 	ldw	r6,-8(fp)
10010530:	e1ffff17 	ldw	r7,-4(fp)
10010534:	00106dc0 	call	100106dc <alt_iic_isr_register>
}  
10010538:	e037883a 	mov	sp,fp
1001053c:	dfc00117 	ldw	ra,4(sp)
10010540:	df000017 	ldw	fp,0(sp)
10010544:	dec00204 	addi	sp,sp,8
10010548:	f800283a 	ret

1001054c <alt_ic_irq_enable>:
  * @param ic_id            Ignored.
  * @param irq              IRQ number
  * @return                 0 if successful, else error (-1)
  */
int alt_ic_irq_enable (alt_u32 ic_id, alt_u32 irq)
{
1001054c:	defff904 	addi	sp,sp,-28
10010550:	df000615 	stw	fp,24(sp)
10010554:	df000604 	addi	fp,sp,24
10010558:	e13ffe15 	stw	r4,-8(fp)
1001055c:	e17fff15 	stw	r5,-4(fp)
10010560:	e0bfff17 	ldw	r2,-4(fp)
10010564:	e0bffa15 	stw	r2,-24(fp)
static ALT_INLINE alt_irq_context ALT_ALWAYS_INLINE 
       alt_irq_disable_all (void)
{
  alt_irq_context context;

  NIOS2_READ_STATUS (context);
10010568:	0005303a 	rdctl	r2,status
1001056c:	e0bffb15 	stw	r2,-20(fp)

  NIOS2_WRITE_STATUS (context & ~NIOS2_STATUS_PIE_MSK);
10010570:	e0fffb17 	ldw	r3,-20(fp)
10010574:	00bfff84 	movi	r2,-2
10010578:	1884703a 	and	r2,r3,r2
1001057c:	1001703a 	wrctl	status,r2
  
  return context;
10010580:	e0bffb17 	ldw	r2,-20(fp)
static ALT_INLINE int ALT_ALWAYS_INLINE alt_irq_enable (alt_u32 id)
{
  alt_irq_context  status;
  extern volatile alt_u32 alt_irq_active;

  status = alt_irq_disable_all ();
10010584:	e0bffc15 	stw	r2,-16(fp)

  alt_irq_active |= (1 << id);
10010588:	e0bffa17 	ldw	r2,-24(fp)
1001058c:	00c00044 	movi	r3,1
10010590:	1884983a 	sll	r2,r3,r2
10010594:	1007883a 	mov	r3,r2
10010598:	00840074 	movhi	r2,4097
1001059c:	10950904 	addi	r2,r2,21540
100105a0:	10800017 	ldw	r2,0(r2)
100105a4:	1886b03a 	or	r3,r3,r2
100105a8:	00840074 	movhi	r2,4097
100105ac:	10950904 	addi	r2,r2,21540
100105b0:	10c00015 	stw	r3,0(r2)
  NIOS2_WRITE_IENABLE (alt_irq_active);
100105b4:	00840074 	movhi	r2,4097
100105b8:	10950904 	addi	r2,r2,21540
100105bc:	10800017 	ldw	r2,0(r2)
100105c0:	100170fa 	wrctl	ienable,r2
100105c4:	e0bffc17 	ldw	r2,-16(fp)
100105c8:	e0bffd15 	stw	r2,-12(fp)
  status &= ~NIOS2_STATUS_PIE_MSK;
  status |= (context & NIOS2_STATUS_PIE_MSK);
  
  NIOS2_WRITE_STATUS (status);
#else
  NIOS2_WRITE_STATUS (context);
100105cc:	e0bffd17 	ldw	r2,-12(fp)
100105d0:	1001703a 	wrctl	status,r2

  alt_irq_enable_all(status);

  return 0;
100105d4:	0005883a 	mov	r2,zero
    return alt_irq_enable(irq);
100105d8:	0001883a 	nop
}
100105dc:	e037883a 	mov	sp,fp
100105e0:	df000017 	ldw	fp,0(sp)
100105e4:	dec00104 	addi	sp,sp,4
100105e8:	f800283a 	ret

100105ec <alt_ic_irq_disable>:
  * @param ic_id            Ignored.
  * @param irq              IRQ number
  * @return                 0 if successful, else error (-1)
  */
int alt_ic_irq_disable(alt_u32 ic_id, alt_u32 irq)
{
100105ec:	defff904 	addi	sp,sp,-28
100105f0:	df000615 	stw	fp,24(sp)
100105f4:	df000604 	addi	fp,sp,24
100105f8:	e13ffe15 	stw	r4,-8(fp)
100105fc:	e17fff15 	stw	r5,-4(fp)
10010600:	e0bfff17 	ldw	r2,-4(fp)
10010604:	e0bffa15 	stw	r2,-24(fp)
static ALT_INLINE alt_irq_context ALT_ALWAYS_INLINE 
       alt_irq_disable_all (void)
{
  alt_irq_context context;

  NIOS2_READ_STATUS (context);
10010608:	0005303a 	rdctl	r2,status
1001060c:	e0bffb15 	stw	r2,-20(fp)

  NIOS2_WRITE_STATUS (context & ~NIOS2_STATUS_PIE_MSK);
10010610:	e0fffb17 	ldw	r3,-20(fp)
10010614:	00bfff84 	movi	r2,-2
10010618:	1884703a 	and	r2,r3,r2
1001061c:	1001703a 	wrctl	status,r2
  
  return context;
10010620:	e0bffb17 	ldw	r2,-20(fp)
static ALT_INLINE int ALT_ALWAYS_INLINE alt_irq_disable (alt_u32 id)
{
  alt_irq_context  status;
  extern volatile alt_u32 alt_irq_active;

  status = alt_irq_disable_all ();
10010624:	e0bffc15 	stw	r2,-16(fp)

  alt_irq_active &= ~(1 << id);
10010628:	e0bffa17 	ldw	r2,-24(fp)
1001062c:	00c00044 	movi	r3,1
10010630:	1884983a 	sll	r2,r3,r2
10010634:	0084303a 	nor	r2,zero,r2
10010638:	1007883a 	mov	r3,r2
1001063c:	00840074 	movhi	r2,4097
10010640:	10950904 	addi	r2,r2,21540
10010644:	10800017 	ldw	r2,0(r2)
10010648:	1886703a 	and	r3,r3,r2
1001064c:	00840074 	movhi	r2,4097
10010650:	10950904 	addi	r2,r2,21540
10010654:	10c00015 	stw	r3,0(r2)
  NIOS2_WRITE_IENABLE (alt_irq_active);
10010658:	00840074 	movhi	r2,4097
1001065c:	10950904 	addi	r2,r2,21540
10010660:	10800017 	ldw	r2,0(r2)
10010664:	100170fa 	wrctl	ienable,r2
10010668:	e0bffc17 	ldw	r2,-16(fp)
1001066c:	e0bffd15 	stw	r2,-12(fp)
  status &= ~NIOS2_STATUS_PIE_MSK;
  status |= (context & NIOS2_STATUS_PIE_MSK);
  
  NIOS2_WRITE_STATUS (status);
#else
  NIOS2_WRITE_STATUS (context);
10010670:	e0bffd17 	ldw	r2,-12(fp)
10010674:	1001703a 	wrctl	status,r2

  alt_irq_enable_all(status);

  return 0;
10010678:	0005883a 	mov	r2,zero
    return alt_irq_disable(irq);
1001067c:	0001883a 	nop
}
10010680:	e037883a 	mov	sp,fp
10010684:	df000017 	ldw	fp,0(sp)
10010688:	dec00104 	addi	sp,sp,4
1001068c:	f800283a 	ret

10010690 <alt_ic_irq_enabled>:
  * @param irq              IRQ number
  * @return                 Zero if corresponding interrupt is disabled and
  *                         non-zero otherwise.
  */
alt_u32 alt_ic_irq_enabled(alt_u32 ic_id, alt_u32 irq)
{
10010690:	defffc04 	addi	sp,sp,-16
10010694:	df000315 	stw	fp,12(sp)
10010698:	df000304 	addi	fp,sp,12
1001069c:	e13ffe15 	stw	r4,-8(fp)
100106a0:	e17fff15 	stw	r5,-4(fp)
    alt_u32 irq_enabled;

    NIOS2_READ_IENABLE(irq_enabled);
100106a4:	000530fa 	rdctl	r2,ienable
100106a8:	e0bffd15 	stw	r2,-12(fp)

    return (irq_enabled & (1 << irq)) ? 1: 0;
100106ac:	e0bfff17 	ldw	r2,-4(fp)
100106b0:	00c00044 	movi	r3,1
100106b4:	1884983a 	sll	r2,r3,r2
100106b8:	1007883a 	mov	r3,r2
100106bc:	e0bffd17 	ldw	r2,-12(fp)
100106c0:	1884703a 	and	r2,r3,r2
100106c4:	1004c03a 	cmpne	r2,r2,zero
100106c8:	10803fcc 	andi	r2,r2,255
}
100106cc:	e037883a 	mov	sp,fp
100106d0:	df000017 	ldw	fp,0(sp)
100106d4:	dec00104 	addi	sp,sp,4
100106d8:	f800283a 	ret

100106dc <alt_iic_isr_register>:
  * @param flags            
  * @return                 0 if successful, else error (-1)
  */
int alt_iic_isr_register(alt_u32 ic_id, alt_u32 irq, alt_isr_func isr, 
  void *isr_context, void *flags)
{
100106dc:	defff504 	addi	sp,sp,-44
100106e0:	dfc00a15 	stw	ra,40(sp)
100106e4:	df000915 	stw	fp,36(sp)
100106e8:	df000904 	addi	fp,sp,36
100106ec:	e13ffc15 	stw	r4,-16(fp)
100106f0:	e17ffd15 	stw	r5,-12(fp)
100106f4:	e1bffe15 	stw	r6,-8(fp)
100106f8:	e1ffff15 	stw	r7,-4(fp)
  int rc = -EINVAL;  
100106fc:	00bffa84 	movi	r2,-22
10010700:	e0bff715 	stw	r2,-36(fp)
  int id = irq;             /* IRQ interpreted as the interrupt ID. */
10010704:	e0bffd17 	ldw	r2,-12(fp)
10010708:	e0bff815 	stw	r2,-32(fp)
  alt_irq_context status;

  if (id < ALT_NIRQ)
1001070c:	e0bff817 	ldw	r2,-32(fp)
10010710:	10800808 	cmpgei	r2,r2,32
10010714:	1000271e 	bne	r2,zero,100107b4 <alt_iic_isr_register+0xd8>
static ALT_INLINE alt_irq_context ALT_ALWAYS_INLINE 
       alt_irq_disable_all (void)
{
  alt_irq_context context;

  NIOS2_READ_STATUS (context);
10010718:	0005303a 	rdctl	r2,status
1001071c:	e0bffa15 	stw	r2,-24(fp)

  NIOS2_WRITE_STATUS (context & ~NIOS2_STATUS_PIE_MSK);
10010720:	e0fffa17 	ldw	r3,-24(fp)
10010724:	00bfff84 	movi	r2,-2
10010728:	1884703a 	and	r2,r3,r2
1001072c:	1001703a 	wrctl	status,r2
  
  return context;
10010730:	e0bffa17 	ldw	r2,-24(fp)
     * interrupts are disabled while the handler tables are updated to ensure
     * that an interrupt doesn't occur while the tables are in an inconsistant
     * state.
     */

    status = alt_irq_disable_all();
10010734:	e0bff915 	stw	r2,-28(fp)

    alt_irq[id].handler = isr;
10010738:	00840074 	movhi	r2,4097
1001073c:	10951604 	addi	r2,r2,21592
10010740:	e0fff817 	ldw	r3,-32(fp)
10010744:	180690fa 	slli	r3,r3,3
10010748:	10c5883a 	add	r2,r2,r3
1001074c:	e0fffe17 	ldw	r3,-8(fp)
10010750:	10c00015 	stw	r3,0(r2)
    alt_irq[id].context = isr_context;
10010754:	00840074 	movhi	r2,4097
10010758:	10951604 	addi	r2,r2,21592
1001075c:	e0fff817 	ldw	r3,-32(fp)
10010760:	180690fa 	slli	r3,r3,3
10010764:	10c5883a 	add	r2,r2,r3
10010768:	10800104 	addi	r2,r2,4
1001076c:	e0ffff17 	ldw	r3,-4(fp)
10010770:	10c00015 	stw	r3,0(r2)

    rc = (isr) ? alt_ic_irq_enable(ic_id, id) : alt_ic_irq_disable(ic_id, id);
10010774:	e0bffe17 	ldw	r2,-8(fp)
10010778:	10000526 	beq	r2,zero,10010790 <alt_iic_isr_register+0xb4>
1001077c:	e0bff817 	ldw	r2,-32(fp)
10010780:	e13ffc17 	ldw	r4,-16(fp)
10010784:	100b883a 	mov	r5,r2
10010788:	001054c0 	call	1001054c <alt_ic_irq_enable>
1001078c:	00000406 	br	100107a0 <alt_iic_isr_register+0xc4>
10010790:	e0bff817 	ldw	r2,-32(fp)
10010794:	e13ffc17 	ldw	r4,-16(fp)
10010798:	100b883a 	mov	r5,r2
1001079c:	00105ec0 	call	100105ec <alt_ic_irq_disable>
100107a0:	e0bff715 	stw	r2,-36(fp)
100107a4:	e0bff917 	ldw	r2,-28(fp)
100107a8:	e0bffb15 	stw	r2,-20(fp)
  status &= ~NIOS2_STATUS_PIE_MSK;
  status |= (context & NIOS2_STATUS_PIE_MSK);
  
  NIOS2_WRITE_STATUS (status);
#else
  NIOS2_WRITE_STATUS (context);
100107ac:	e0bffb17 	ldw	r2,-20(fp)
100107b0:	1001703a 	wrctl	status,r2

    alt_irq_enable_all(status);
  }

  return rc; 
100107b4:	e0bff717 	ldw	r2,-36(fp)
}
100107b8:	e037883a 	mov	sp,fp
100107bc:	dfc00117 	ldw	ra,4(sp)
100107c0:	df000017 	ldw	fp,0(sp)
100107c4:	dec00204 	addi	sp,sp,8
100107c8:	f800283a 	ret

100107cc <alt_open_fd>:
 * If the device can not be succesfully opened, then the input file descriptor
 * remains unchanged.
 */

static void alt_open_fd(alt_fd* fd, const char* name, int flags, int mode)
{
100107cc:	defff804 	addi	sp,sp,-32
100107d0:	dfc00715 	stw	ra,28(sp)
100107d4:	df000615 	stw	fp,24(sp)
100107d8:	dc000515 	stw	r16,20(sp)
100107dc:	df000604 	addi	fp,sp,24
100107e0:	e13ffb15 	stw	r4,-20(fp)
100107e4:	e17ffc15 	stw	r5,-16(fp)
100107e8:	e1bffd15 	stw	r6,-12(fp)
100107ec:	e1fffe15 	stw	r7,-8(fp)
  int old;

  old = open (name, flags, mode);
100107f0:	e13ffc17 	ldw	r4,-16(fp)
100107f4:	e17ffd17 	ldw	r5,-12(fp)
100107f8:	e1bffe17 	ldw	r6,-8(fp)
100107fc:	0010a680 	call	10010a68 <open>
10010800:	e0bffa15 	stw	r2,-24(fp)

  if (old >= 0)
10010804:	e0bffa17 	ldw	r2,-24(fp)
10010808:	10002216 	blt	r2,zero,10010894 <alt_open_fd+0xc8>
  {
    fd->dev      = alt_fd_list[old].dev;
1001080c:	04040074 	movhi	r16,4097
10010810:	8409bb04 	addi	r16,r16,9964
10010814:	e0bffa17 	ldw	r2,-24(fp)
10010818:	1009883a 	mov	r4,r2
1001081c:	01400304 	movi	r5,12
10010820:	000c3380 	call	1000c338 <__mulsi3>
10010824:	8085883a 	add	r2,r16,r2
10010828:	10c00017 	ldw	r3,0(r2)
1001082c:	e0bffb17 	ldw	r2,-20(fp)
10010830:	10c00015 	stw	r3,0(r2)
    fd->priv     = alt_fd_list[old].priv;
10010834:	04040074 	movhi	r16,4097
10010838:	8409bb04 	addi	r16,r16,9964
1001083c:	e0bffa17 	ldw	r2,-24(fp)
10010840:	1009883a 	mov	r4,r2
10010844:	01400304 	movi	r5,12
10010848:	000c3380 	call	1000c338 <__mulsi3>
1001084c:	8085883a 	add	r2,r16,r2
10010850:	10800104 	addi	r2,r2,4
10010854:	10c00017 	ldw	r3,0(r2)
10010858:	e0bffb17 	ldw	r2,-20(fp)
1001085c:	10c00115 	stw	r3,4(r2)
    fd->fd_flags = alt_fd_list[old].fd_flags;
10010860:	04040074 	movhi	r16,4097
10010864:	8409bb04 	addi	r16,r16,9964
10010868:	e0bffa17 	ldw	r2,-24(fp)
1001086c:	1009883a 	mov	r4,r2
10010870:	01400304 	movi	r5,12
10010874:	000c3380 	call	1000c338 <__mulsi3>
10010878:	8085883a 	add	r2,r16,r2
1001087c:	10800204 	addi	r2,r2,8
10010880:	10c00017 	ldw	r3,0(r2)
10010884:	e0bffb17 	ldw	r2,-20(fp)
10010888:	10c00215 	stw	r3,8(r2)

    alt_release_fd (old);
1001088c:	e13ffa17 	ldw	r4,-24(fp)
10010890:	000f2d00 	call	1000f2d0 <alt_release_fd>
  }
} 
10010894:	e6ffff04 	addi	sp,fp,-4
10010898:	dfc00217 	ldw	ra,8(sp)
1001089c:	df000117 	ldw	fp,4(sp)
100108a0:	dc000017 	ldw	r16,0(sp)
100108a4:	dec00304 	addi	sp,sp,12
100108a8:	f800283a 	ret

100108ac <alt_io_redirect>:
 */
 
void alt_io_redirect(const char* stdout_dev, 
                     const char* stdin_dev, 
                     const char* stderr_dev)
{
100108ac:	defffb04 	addi	sp,sp,-20
100108b0:	dfc00415 	stw	ra,16(sp)
100108b4:	df000315 	stw	fp,12(sp)
100108b8:	df000304 	addi	fp,sp,12
100108bc:	e13ffd15 	stw	r4,-12(fp)
100108c0:	e17ffe15 	stw	r5,-8(fp)
100108c4:	e1bfff15 	stw	r6,-4(fp)
  /* Redirect the channels */

  alt_open_fd (&alt_fd_list[STDOUT_FILENO], stdout_dev, O_WRONLY, 0777);
100108c8:	01040074 	movhi	r4,4097
100108cc:	2109be04 	addi	r4,r4,9976
100108d0:	e17ffd17 	ldw	r5,-12(fp)
100108d4:	01800044 	movi	r6,1
100108d8:	01c07fc4 	movi	r7,511
100108dc:	00107cc0 	call	100107cc <alt_open_fd>
  alt_open_fd (&alt_fd_list[STDIN_FILENO], stdin_dev, O_RDONLY, 0777);
100108e0:	01040074 	movhi	r4,4097
100108e4:	2109bb04 	addi	r4,r4,9964
100108e8:	e17ffe17 	ldw	r5,-8(fp)
100108ec:	000d883a 	mov	r6,zero
100108f0:	01c07fc4 	movi	r7,511
100108f4:	00107cc0 	call	100107cc <alt_open_fd>
  alt_open_fd (&alt_fd_list[STDERR_FILENO], stderr_dev, O_WRONLY, 0777);
100108f8:	01040074 	movhi	r4,4097
100108fc:	2109c104 	addi	r4,r4,9988
10010900:	e17fff17 	ldw	r5,-4(fp)
10010904:	01800044 	movi	r6,1
10010908:	01c07fc4 	movi	r7,511
1001090c:	00107cc0 	call	100107cc <alt_open_fd>
}  
10010910:	e037883a 	mov	sp,fp
10010914:	dfc00117 	ldw	ra,4(sp)
10010918:	df000017 	ldw	fp,0(sp)
1001091c:	dec00204 	addi	sp,sp,8
10010920:	f800283a 	ret

10010924 <alt_get_errno>:
#undef errno

extern int errno;

static ALT_INLINE int* alt_get_errno(void)
{
10010924:	defffe04 	addi	sp,sp,-8
10010928:	dfc00115 	stw	ra,4(sp)
1001092c:	df000015 	stw	fp,0(sp)
10010930:	d839883a 	mov	fp,sp
  return ((alt_errno) ? alt_errno() : &errno);
10010934:	00840074 	movhi	r2,4097
10010938:	108e3e04 	addi	r2,r2,14584
1001093c:	10800017 	ldw	r2,0(r2)
10010940:	10000526 	beq	r2,zero,10010958 <alt_get_errno+0x34>
10010944:	00840074 	movhi	r2,4097
10010948:	108e3e04 	addi	r2,r2,14584
1001094c:	10800017 	ldw	r2,0(r2)
10010950:	103ee83a 	callr	r2
10010954:	00000206 	br	10010960 <alt_get_errno+0x3c>
10010958:	00840074 	movhi	r2,4097
1001095c:	10950504 	addi	r2,r2,21524
}
10010960:	e037883a 	mov	sp,fp
10010964:	dfc00117 	ldw	ra,4(sp)
10010968:	df000017 	ldw	fp,0(sp)
1001096c:	dec00204 	addi	sp,sp,8
10010970:	f800283a 	ret

10010974 <alt_file_locked>:
 * performed for devices. Filesystems are required to handle the ioctl() call
 * themselves, and report the error from the filesystems open() function. 
 */ 

static int alt_file_locked (alt_fd* fd)
{
10010974:	defffb04 	addi	sp,sp,-20
10010978:	dfc00415 	stw	ra,16(sp)
1001097c:	df000315 	stw	fp,12(sp)
10010980:	dc000215 	stw	r16,8(sp)
10010984:	df000304 	addi	fp,sp,12
10010988:	e13ffe15 	stw	r4,-8(fp)

  /*
   * Mark the file descriptor as belonging to a device.
   */

  fd->fd_flags |= ALT_FD_DEV;
1001098c:	e0bffe17 	ldw	r2,-8(fp)
10010990:	10800217 	ldw	r2,8(r2)
10010994:	10d00034 	orhi	r3,r2,16384
10010998:	e0bffe17 	ldw	r2,-8(fp)
1001099c:	10c00215 	stw	r3,8(r2)
  /*
   * Loop through all current file descriptors searching for one that's locked
   * for exclusive access. If a match is found, generate an error.
   */

  for (i = 0; i <= alt_max_fd; i++)
100109a0:	e03ffd15 	stw	zero,-12(fp)
100109a4:	00002306 	br	10010a34 <alt_file_locked+0xc0>
  {
    if ((alt_fd_list[i].dev == fd->dev) &&
100109a8:	04040074 	movhi	r16,4097
100109ac:	8409bb04 	addi	r16,r16,9964
100109b0:	e0bffd17 	ldw	r2,-12(fp)
100109b4:	1009883a 	mov	r4,r2
100109b8:	01400304 	movi	r5,12
100109bc:	000c3380 	call	1000c338 <__mulsi3>
100109c0:	8085883a 	add	r2,r16,r2
100109c4:	10c00017 	ldw	r3,0(r2)
100109c8:	e0bffe17 	ldw	r2,-8(fp)
100109cc:	10800017 	ldw	r2,0(r2)
100109d0:	1880151e 	bne	r3,r2,10010a28 <alt_file_locked+0xb4>
        (alt_fd_list[i].fd_flags & ALT_FD_EXCL) &&
100109d4:	04040074 	movhi	r16,4097
100109d8:	8409bb04 	addi	r16,r16,9964
100109dc:	e0bffd17 	ldw	r2,-12(fp)
100109e0:	1009883a 	mov	r4,r2
100109e4:	01400304 	movi	r5,12
100109e8:	000c3380 	call	1000c338 <__mulsi3>
100109ec:	8085883a 	add	r2,r16,r2
100109f0:	10800204 	addi	r2,r2,8
100109f4:	10800017 	ldw	r2,0(r2)
   * for exclusive access. If a match is found, generate an error.
   */

  for (i = 0; i <= alt_max_fd; i++)
  {
    if ((alt_fd_list[i].dev == fd->dev) &&
100109f8:	10000b0e 	bge	r2,zero,10010a28 <alt_file_locked+0xb4>
        (alt_fd_list[i].fd_flags & ALT_FD_EXCL) &&
        (&alt_fd_list[i] != fd))
100109fc:	e13ffd17 	ldw	r4,-12(fp)
10010a00:	01400304 	movi	r5,12
10010a04:	000c3380 	call	1000c338 <__mulsi3>
10010a08:	1007883a 	mov	r3,r2
10010a0c:	00840074 	movhi	r2,4097
10010a10:	1089bb04 	addi	r2,r2,9964
10010a14:	1887883a 	add	r3,r3,r2
   */

  for (i = 0; i <= alt_max_fd; i++)
  {
    if ((alt_fd_list[i].dev == fd->dev) &&
        (alt_fd_list[i].fd_flags & ALT_FD_EXCL) &&
10010a18:	e0bffe17 	ldw	r2,-8(fp)
10010a1c:	18800226 	beq	r3,r2,10010a28 <alt_file_locked+0xb4>
        (&alt_fd_list[i] != fd))
    {
      return -EACCES;
10010a20:	00bffcc4 	movi	r2,-13
10010a24:	00000a06 	br	10010a50 <alt_file_locked+0xdc>
  /*
   * Loop through all current file descriptors searching for one that's locked
   * for exclusive access. If a match is found, generate an error.
   */

  for (i = 0; i <= alt_max_fd; i++)
10010a28:	e0bffd17 	ldw	r2,-12(fp)
10010a2c:	10800044 	addi	r2,r2,1
10010a30:	e0bffd15 	stw	r2,-12(fp)
10010a34:	00840074 	movhi	r2,4097
10010a38:	108e3d04 	addi	r2,r2,14580
10010a3c:	10800017 	ldw	r2,0(r2)
10010a40:	1007883a 	mov	r3,r2
10010a44:	e0bffd17 	ldw	r2,-12(fp)
10010a48:	18bfd72e 	bgeu	r3,r2,100109a8 <__alt_data_end+0xf80109a8>
    }
  }
  
  /* The device is not locked */
 
  return 0;
10010a4c:	0005883a 	mov	r2,zero
}
10010a50:	e6ffff04 	addi	sp,fp,-4
10010a54:	dfc00217 	ldw	ra,8(sp)
10010a58:	df000117 	ldw	fp,4(sp)
10010a5c:	dc000017 	ldw	r16,0(sp)
10010a60:	dec00304 	addi	sp,sp,12
10010a64:	f800283a 	ret

10010a68 <open>:
 *
 * ALT_OPEN is mapped onto the open() system call in alt_syscall.h
 */
 
int ALT_OPEN (const char* file, int flags, int mode)
{ 
10010a68:	defff604 	addi	sp,sp,-40
10010a6c:	dfc00915 	stw	ra,36(sp)
10010a70:	df000815 	stw	fp,32(sp)
10010a74:	df000804 	addi	fp,sp,32
10010a78:	e13ffd15 	stw	r4,-12(fp)
10010a7c:	e17ffe15 	stw	r5,-8(fp)
10010a80:	e1bfff15 	stw	r6,-4(fp)
  alt_dev* dev;
  alt_fd*  fd;
  int index  = -1;
10010a84:	00bfffc4 	movi	r2,-1
10010a88:	e0bff915 	stw	r2,-28(fp)
  int status = -ENODEV;
10010a8c:	00bffb44 	movi	r2,-19
10010a90:	e0bffa15 	stw	r2,-24(fp)
  int isafs = 0;
10010a94:	e03ffb15 	stw	zero,-20(fp)
  /* 
   * Check the device list, to see if a device with a matching name is 
   * registered.
   */
  
  if (!(dev = alt_find_dev (file, &alt_dev_list)))
10010a98:	e13ffd17 	ldw	r4,-12(fp)
10010a9c:	01440074 	movhi	r5,4097
10010aa0:	294e3b04 	addi	r5,r5,14572
10010aa4:	0010d840 	call	10010d84 <alt_find_dev>
10010aa8:	e0bff815 	stw	r2,-32(fp)
10010aac:	e0bff817 	ldw	r2,-32(fp)
10010ab0:	1000051e 	bne	r2,zero,10010ac8 <open+0x60>
  {
    /* No matching device, so try the filesystem list */

    dev   = alt_find_file (file);
10010ab4:	e13ffd17 	ldw	r4,-12(fp)
10010ab8:	0010e140 	call	10010e14 <alt_find_file>
10010abc:	e0bff815 	stw	r2,-32(fp)
    isafs = 1;
10010ac0:	00800044 	movi	r2,1
10010ac4:	e0bffb15 	stw	r2,-20(fp)

  /* 
   * If a matching device or filesystem is found, allocate a file descriptor. 
   */

  if (dev)
10010ac8:	e0bff817 	ldw	r2,-32(fp)
10010acc:	10002b26 	beq	r2,zero,10010b7c <open+0x114>
  {
    if ((index = alt_get_fd (dev)) < 0)
10010ad0:	e13ff817 	ldw	r4,-32(fp)
10010ad4:	0010f280 	call	10010f28 <alt_get_fd>
10010ad8:	e0bff915 	stw	r2,-28(fp)
10010adc:	e0bff917 	ldw	r2,-28(fp)
10010ae0:	1000030e 	bge	r2,zero,10010af0 <open+0x88>
    {
      status = index;
10010ae4:	e0bff917 	ldw	r2,-28(fp)
10010ae8:	e0bffa15 	stw	r2,-24(fp)
10010aec:	00002506 	br	10010b84 <open+0x11c>
    }
    else
    {
      fd = &alt_fd_list[index];
10010af0:	e13ff917 	ldw	r4,-28(fp)
10010af4:	01400304 	movi	r5,12
10010af8:	000c3380 	call	1000c338 <__mulsi3>
10010afc:	1007883a 	mov	r3,r2
10010b00:	00840074 	movhi	r2,4097
10010b04:	1089bb04 	addi	r2,r2,9964
10010b08:	1885883a 	add	r2,r3,r2
10010b0c:	e0bffc15 	stw	r2,-16(fp)
      fd->fd_flags = (flags & ~ALT_FD_FLAGS_MASK);
10010b10:	e0fffe17 	ldw	r3,-8(fp)
10010b14:	00900034 	movhi	r2,16384
10010b18:	10bfffc4 	addi	r2,r2,-1
10010b1c:	1886703a 	and	r3,r3,r2
10010b20:	e0bffc17 	ldw	r2,-16(fp)
10010b24:	10c00215 	stw	r3,8(r2)
      
      /* If this is a device, ensure it isn't already locked */

      if (isafs || ((status = alt_file_locked (fd)) >= 0))
10010b28:	e0bffb17 	ldw	r2,-20(fp)
10010b2c:	1000051e 	bne	r2,zero,10010b44 <open+0xdc>
10010b30:	e13ffc17 	ldw	r4,-16(fp)
10010b34:	00109740 	call	10010974 <alt_file_locked>
10010b38:	e0bffa15 	stw	r2,-24(fp)
10010b3c:	e0bffa17 	ldw	r2,-24(fp)
10010b40:	10001016 	blt	r2,zero,10010b84 <open+0x11c>
        /* 
         * If the device or filesystem provides an open() callback function,
         * call it now to perform any device/filesystem specific operations.
         */
    
        status = (dev->open) ? dev->open(fd, file, flags, mode): 0;
10010b44:	e0bff817 	ldw	r2,-32(fp)
10010b48:	10800317 	ldw	r2,12(r2)
10010b4c:	10000826 	beq	r2,zero,10010b70 <open+0x108>
10010b50:	e0bff817 	ldw	r2,-32(fp)
10010b54:	10800317 	ldw	r2,12(r2)
10010b58:	e13ffc17 	ldw	r4,-16(fp)
10010b5c:	e17ffd17 	ldw	r5,-12(fp)
10010b60:	e1bffe17 	ldw	r6,-8(fp)
10010b64:	e1ffff17 	ldw	r7,-4(fp)
10010b68:	103ee83a 	callr	r2
10010b6c:	00000106 	br	10010b74 <open+0x10c>
10010b70:	0005883a 	mov	r2,zero
10010b74:	e0bffa15 	stw	r2,-24(fp)
10010b78:	00000206 	br	10010b84 <open+0x11c>
      }
    }
  }
  else
  {
    status = -ENODEV;
10010b7c:	00bffb44 	movi	r2,-19
10010b80:	e0bffa15 	stw	r2,-24(fp)
  }

  /* Allocation failed, so clean up and return an error */ 

  if (status < 0)
10010b84:	e0bffa17 	ldw	r2,-24(fp)
10010b88:	1000090e 	bge	r2,zero,10010bb0 <open+0x148>
  {
    alt_release_fd (index);  
10010b8c:	e13ff917 	ldw	r4,-28(fp)
10010b90:	000f2d00 	call	1000f2d0 <alt_release_fd>
    ALT_ERRNO = -status;
10010b94:	00109240 	call	10010924 <alt_get_errno>
10010b98:	1007883a 	mov	r3,r2
10010b9c:	e0bffa17 	ldw	r2,-24(fp)
10010ba0:	0085c83a 	sub	r2,zero,r2
10010ba4:	18800015 	stw	r2,0(r3)
    return -1;
10010ba8:	00bfffc4 	movi	r2,-1
10010bac:	00000106 	br	10010bb4 <open+0x14c>
  }
  
  /* return the reference upon success */

  return index;
10010bb0:	e0bff917 	ldw	r2,-28(fp)
}
10010bb4:	e037883a 	mov	sp,fp
10010bb8:	dfc00117 	ldw	ra,4(sp)
10010bbc:	df000017 	ldw	fp,0(sp)
10010bc0:	dec00204 	addi	sp,sp,8
10010bc4:	f800283a 	ret

10010bc8 <alt_alarm_stop>:
 * alarms. Alternatively an alarm can unregister itself by returning zero when 
 * the alarm executes.
 */

void alt_alarm_stop (alt_alarm* alarm)
{
10010bc8:	defffa04 	addi	sp,sp,-24
10010bcc:	df000515 	stw	fp,20(sp)
10010bd0:	df000504 	addi	fp,sp,20
10010bd4:	e13fff15 	stw	r4,-4(fp)
static ALT_INLINE alt_irq_context ALT_ALWAYS_INLINE 
       alt_irq_disable_all (void)
{
  alt_irq_context context;

  NIOS2_READ_STATUS (context);
10010bd8:	0005303a 	rdctl	r2,status
10010bdc:	e0bffc15 	stw	r2,-16(fp)

  NIOS2_WRITE_STATUS (context & ~NIOS2_STATUS_PIE_MSK);
10010be0:	e0fffc17 	ldw	r3,-16(fp)
10010be4:	00bfff84 	movi	r2,-2
10010be8:	1884703a 	and	r2,r3,r2
10010bec:	1001703a 	wrctl	status,r2
  
  return context;
10010bf0:	e0bffc17 	ldw	r2,-16(fp)
  alt_irq_context irq_context;

  irq_context = alt_irq_disable_all();
10010bf4:	e0bffb15 	stw	r2,-20(fp)
  alt_llist_remove (&alarm->llist);
10010bf8:	e0bfff17 	ldw	r2,-4(fp)
10010bfc:	e0bffd15 	stw	r2,-12(fp)
 * input argument is the element to remove.
 */
     
static ALT_INLINE void ALT_ALWAYS_INLINE alt_llist_remove(alt_llist* entry)
{
  entry->next->previous = entry->previous;
10010c00:	e0bffd17 	ldw	r2,-12(fp)
10010c04:	10800017 	ldw	r2,0(r2)
10010c08:	e0fffd17 	ldw	r3,-12(fp)
10010c0c:	18c00117 	ldw	r3,4(r3)
10010c10:	10c00115 	stw	r3,4(r2)
  entry->previous->next = entry->next;
10010c14:	e0bffd17 	ldw	r2,-12(fp)
10010c18:	10800117 	ldw	r2,4(r2)
10010c1c:	e0fffd17 	ldw	r3,-12(fp)
10010c20:	18c00017 	ldw	r3,0(r3)
10010c24:	10c00015 	stw	r3,0(r2)
  /* 
   * Set the entry to point to itself, so that any further calls to
   * alt_llist_remove() are harmless.
   */

  entry->previous = entry;
10010c28:	e0bffd17 	ldw	r2,-12(fp)
10010c2c:	e0fffd17 	ldw	r3,-12(fp)
10010c30:	10c00115 	stw	r3,4(r2)
  entry->next     = entry;
10010c34:	e0bffd17 	ldw	r2,-12(fp)
10010c38:	e0fffd17 	ldw	r3,-12(fp)
10010c3c:	10c00015 	stw	r3,0(r2)
10010c40:	e0bffb17 	ldw	r2,-20(fp)
10010c44:	e0bffe15 	stw	r2,-8(fp)
  status &= ~NIOS2_STATUS_PIE_MSK;
  status |= (context & NIOS2_STATUS_PIE_MSK);
  
  NIOS2_WRITE_STATUS (status);
#else
  NIOS2_WRITE_STATUS (context);
10010c48:	e0bffe17 	ldw	r2,-8(fp)
10010c4c:	1001703a 	wrctl	status,r2
  alt_irq_enable_all (irq_context);
}
10010c50:	e037883a 	mov	sp,fp
10010c54:	df000017 	ldw	fp,0(sp)
10010c58:	dec00104 	addi	sp,sp,4
10010c5c:	f800283a 	ret

10010c60 <alt_tick>:
 * 
 * alt_tick() is expected to run at interrupt level.
 */

void alt_tick (void)
{
10010c60:	defffb04 	addi	sp,sp,-20
10010c64:	dfc00415 	stw	ra,16(sp)
10010c68:	df000315 	stw	fp,12(sp)
10010c6c:	df000304 	addi	fp,sp,12
  alt_alarm* next;
  alt_alarm* alarm = (alt_alarm*) alt_alarm_list.next;
10010c70:	d0a00e17 	ldw	r2,-32712(gp)
10010c74:	e0bffd15 	stw	r2,-12(fp)

  alt_u32    next_callback;

  /* update the tick counter */

  _alt_nticks++;
10010c78:	d0a6d817 	ldw	r2,-25760(gp)
10010c7c:	10800044 	addi	r2,r2,1
10010c80:	d0a6d815 	stw	r2,-25760(gp)

  /* process the registered callbacks */

  while (alarm != (alt_alarm*) &alt_alarm_list)
10010c84:	00002e06 	br	10010d40 <alt_tick+0xe0>
  {
    next = (alt_alarm*) alarm->llist.next;
10010c88:	e0bffd17 	ldw	r2,-12(fp)
10010c8c:	10800017 	ldw	r2,0(r2)
10010c90:	e0bffe15 	stw	r2,-8(fp)
    /* 
     * Upon the tick-counter rolling over it is safe to clear the 
     * roll-over flag; once the flag is cleared this (or subsequnt)
     * tick events are enabled to generate an alarm event. 
     */
    if ((alarm->rollover) && (_alt_nticks == 0))
10010c94:	e0bffd17 	ldw	r2,-12(fp)
10010c98:	10800403 	ldbu	r2,16(r2)
10010c9c:	10803fcc 	andi	r2,r2,255
10010ca0:	10000426 	beq	r2,zero,10010cb4 <alt_tick+0x54>
10010ca4:	d0a6d817 	ldw	r2,-25760(gp)
10010ca8:	1000021e 	bne	r2,zero,10010cb4 <alt_tick+0x54>
    {
      alarm->rollover = 0;
10010cac:	e0bffd17 	ldw	r2,-12(fp)
10010cb0:	10000405 	stb	zero,16(r2)
    }
    
    /* if the alarm period has expired, make the callback */    
    if ((alarm->time <= _alt_nticks) && (alarm->rollover == 0))
10010cb4:	e0bffd17 	ldw	r2,-12(fp)
10010cb8:	10800217 	ldw	r2,8(r2)
10010cbc:	d0e6d817 	ldw	r3,-25760(gp)
10010cc0:	18801d36 	bltu	r3,r2,10010d38 <alt_tick+0xd8>
10010cc4:	e0bffd17 	ldw	r2,-12(fp)
10010cc8:	10800403 	ldbu	r2,16(r2)
10010ccc:	10803fcc 	andi	r2,r2,255
10010cd0:	1000191e 	bne	r2,zero,10010d38 <alt_tick+0xd8>
    {
      next_callback = alarm->callback (alarm->context);
10010cd4:	e0bffd17 	ldw	r2,-12(fp)
10010cd8:	10800317 	ldw	r2,12(r2)
10010cdc:	e0fffd17 	ldw	r3,-12(fp)
10010ce0:	18c00517 	ldw	r3,20(r3)
10010ce4:	1809883a 	mov	r4,r3
10010ce8:	103ee83a 	callr	r2
10010cec:	e0bfff15 	stw	r2,-4(fp)

      /* deactivate the alarm if the return value is zero */

      if (next_callback == 0)
10010cf0:	e0bfff17 	ldw	r2,-4(fp)
10010cf4:	1000031e 	bne	r2,zero,10010d04 <alt_tick+0xa4>
      {
        alt_alarm_stop (alarm);
10010cf8:	e13ffd17 	ldw	r4,-12(fp)
10010cfc:	0010bc80 	call	10010bc8 <alt_alarm_stop>
10010d00:	00000d06 	br	10010d38 <alt_tick+0xd8>
      }
      else
      {
        alarm->time += next_callback;
10010d04:	e0bffd17 	ldw	r2,-12(fp)
10010d08:	10c00217 	ldw	r3,8(r2)
10010d0c:	e0bfff17 	ldw	r2,-4(fp)
10010d10:	1887883a 	add	r3,r3,r2
10010d14:	e0bffd17 	ldw	r2,-12(fp)
10010d18:	10c00215 	stw	r3,8(r2)
        /* 
         * If the desired alarm time causes a roll-over, set the rollover
         * flag. This will prevent the subsequent tick event from causing
         * an alarm too early.
         */
        if(alarm->time < _alt_nticks)
10010d1c:	e0bffd17 	ldw	r2,-12(fp)
10010d20:	10c00217 	ldw	r3,8(r2)
10010d24:	d0a6d817 	ldw	r2,-25760(gp)
10010d28:	1880032e 	bgeu	r3,r2,10010d38 <alt_tick+0xd8>
        {
          alarm->rollover = 1;
10010d2c:	e0bffd17 	ldw	r2,-12(fp)
10010d30:	00c00044 	movi	r3,1
10010d34:	10c00405 	stb	r3,16(r2)
        }
      }
    }
    alarm = next;
10010d38:	e0bffe17 	ldw	r2,-8(fp)
10010d3c:	e0bffd15 	stw	r2,-12(fp)

  _alt_nticks++;

  /* process the registered callbacks */

  while (alarm != (alt_alarm*) &alt_alarm_list)
10010d40:	e0fffd17 	ldw	r3,-12(fp)
10010d44:	d0a00e04 	addi	r2,gp,-32712
10010d48:	18bfcf1e 	bne	r3,r2,10010c88 <__alt_data_end+0xf8010c88>

  /* 
   * Update the operating system specific timer facilities.
   */

  ALT_OS_TIME_TICK();
10010d4c:	0001883a 	nop
}
10010d50:	e037883a 	mov	sp,fp
10010d54:	dfc00117 	ldw	ra,4(sp)
10010d58:	df000017 	ldw	fp,0(sp)
10010d5c:	dec00204 	addi	sp,sp,8
10010d60:	f800283a 	ret

10010d64 <altera_nios2_qsys_irq_init>:
/*
 * To initialize the internal interrupt controller, just clear the IENABLE
 * register so that all possible IRQs are disabled.
 */
void altera_nios2_qsys_irq_init(void) 
{
10010d64:	deffff04 	addi	sp,sp,-4
10010d68:	df000015 	stw	fp,0(sp)
10010d6c:	d839883a 	mov	fp,sp
    NIOS2_WRITE_IENABLE(0);
10010d70:	000170fa 	wrctl	ienable,zero
}
10010d74:	e037883a 	mov	sp,fp
10010d78:	df000017 	ldw	fp,0(sp)
10010d7c:	dec00104 	addi	sp,sp,4
10010d80:	f800283a 	ret

10010d84 <alt_find_dev>:
 * "name" must be an exact match for the devices registered name for a match to
 * be found.
 */
 
alt_dev* alt_find_dev(const char* name, alt_llist* llist)
{
10010d84:	defffa04 	addi	sp,sp,-24
10010d88:	dfc00515 	stw	ra,20(sp)
10010d8c:	df000415 	stw	fp,16(sp)
10010d90:	df000404 	addi	fp,sp,16
10010d94:	e13ffe15 	stw	r4,-8(fp)
10010d98:	e17fff15 	stw	r5,-4(fp)
  alt_dev* next = (alt_dev*) llist->next;
10010d9c:	e0bfff17 	ldw	r2,-4(fp)
10010da0:	10800017 	ldw	r2,0(r2)
10010da4:	e0bffc15 	stw	r2,-16(fp)
  alt_32 len;

  len  = strlen(name) + 1;
10010da8:	e13ffe17 	ldw	r4,-8(fp)
10010dac:	000232c0 	call	1000232c <strlen>
10010db0:	10800044 	addi	r2,r2,1
10010db4:	e0bffd15 	stw	r2,-12(fp)
  /*
   * Check each list entry in turn, until a match is found, or we reach the
   * end of the list (i.e. next winds up pointing back to the list head).
   */ 

  while (next != (alt_dev*) llist)
10010db8:	00000d06 	br	10010df0 <alt_find_dev+0x6c>
    /* 
     * memcmp() is used here rather than strcmp() in order to reduce the size
     * of the executable.
     */

    if (!memcmp (next->name, name, len))
10010dbc:	e0bffc17 	ldw	r2,-16(fp)
10010dc0:	10c00217 	ldw	r3,8(r2)
10010dc4:	e0bffd17 	ldw	r2,-12(fp)
10010dc8:	1809883a 	mov	r4,r3
10010dcc:	e17ffe17 	ldw	r5,-8(fp)
10010dd0:	100d883a 	mov	r6,r2
10010dd4:	00110480 	call	10011048 <memcmp>
10010dd8:	1000021e 	bne	r2,zero,10010de4 <alt_find_dev+0x60>
    {
      /* match found */

      return next;
10010ddc:	e0bffc17 	ldw	r2,-16(fp)
10010de0:	00000706 	br	10010e00 <alt_find_dev+0x7c>
    }
    next = (alt_dev*) next->llist.next;
10010de4:	e0bffc17 	ldw	r2,-16(fp)
10010de8:	10800017 	ldw	r2,0(r2)
10010dec:	e0bffc15 	stw	r2,-16(fp)
  /*
   * Check each list entry in turn, until a match is found, or we reach the
   * end of the list (i.e. next winds up pointing back to the list head).
   */ 

  while (next != (alt_dev*) llist)
10010df0:	e0fffc17 	ldw	r3,-16(fp)
10010df4:	e0bfff17 	ldw	r2,-4(fp)
10010df8:	18bff01e 	bne	r3,r2,10010dbc <__alt_data_end+0xf8010dbc>
    next = (alt_dev*) next->llist.next;
  }
  
  /* No match found */
  
  return NULL;
10010dfc:	0005883a 	mov	r2,zero
}
10010e00:	e037883a 	mov	sp,fp
10010e04:	dfc00117 	ldw	ra,4(sp)
10010e08:	df000017 	ldw	fp,0(sp)
10010e0c:	dec00204 	addi	sp,sp,8
10010e10:	f800283a 	ret

10010e14 <alt_find_file>:
 * either '/' or '\0' is the prefix of the filename. For example the filename:
 * "/myfilesystem/junk.txt" would match: "/myfilesystem", but not: "/myfile". 
 */
 
alt_dev* alt_find_file (const char* name)
{
10010e14:	defffb04 	addi	sp,sp,-20
10010e18:	dfc00415 	stw	ra,16(sp)
10010e1c:	df000315 	stw	fp,12(sp)
10010e20:	df000304 	addi	fp,sp,12
10010e24:	e13fff15 	stw	r4,-4(fp)
  alt_dev* next = (alt_dev*) alt_fs_list.next;   
10010e28:	00840074 	movhi	r2,4097
10010e2c:	108e3904 	addi	r2,r2,14564
10010e30:	10800017 	ldw	r2,0(r2)
10010e34:	e0bffd15 	stw	r2,-12(fp)
  /*
   * Check each list entry in turn, until a match is found, or we reach the
   * end of the list (i.e. next winds up pointing back to the list head).
   */ 
 
  while (next != (alt_dev*) &alt_fs_list)
10010e38:	00003106 	br	10010f00 <alt_find_file+0xec>
  {
    len = strlen(next->name);
10010e3c:	e0bffd17 	ldw	r2,-12(fp)
10010e40:	10800217 	ldw	r2,8(r2)
10010e44:	1009883a 	mov	r4,r2
10010e48:	000232c0 	call	1000232c <strlen>
10010e4c:	e0bffe15 	stw	r2,-8(fp)
    
    if (next->name[len-1] == '/')
10010e50:	e0bffd17 	ldw	r2,-12(fp)
10010e54:	10c00217 	ldw	r3,8(r2)
10010e58:	e0bffe17 	ldw	r2,-8(fp)
10010e5c:	10bfffc4 	addi	r2,r2,-1
10010e60:	1885883a 	add	r2,r3,r2
10010e64:	10800003 	ldbu	r2,0(r2)
10010e68:	10803fcc 	andi	r2,r2,255
10010e6c:	1080201c 	xori	r2,r2,128
10010e70:	10bfe004 	addi	r2,r2,-128
10010e74:	10800bd8 	cmpnei	r2,r2,47
10010e78:	1000031e 	bne	r2,zero,10010e88 <alt_find_file+0x74>
    {
      len -= 1;
10010e7c:	e0bffe17 	ldw	r2,-8(fp)
10010e80:	10bfffc4 	addi	r2,r2,-1
10010e84:	e0bffe15 	stw	r2,-8(fp)
    }

    if (((name[len] == '/') || (name[len] == '\0')) && 
10010e88:	e0bffe17 	ldw	r2,-8(fp)
10010e8c:	e0ffff17 	ldw	r3,-4(fp)
10010e90:	1885883a 	add	r2,r3,r2
10010e94:	10800003 	ldbu	r2,0(r2)
10010e98:	10803fcc 	andi	r2,r2,255
10010e9c:	1080201c 	xori	r2,r2,128
10010ea0:	10bfe004 	addi	r2,r2,-128
10010ea4:	10800be0 	cmpeqi	r2,r2,47
10010ea8:	1000081e 	bne	r2,zero,10010ecc <alt_find_file+0xb8>
10010eac:	e0bffe17 	ldw	r2,-8(fp)
10010eb0:	e0ffff17 	ldw	r3,-4(fp)
10010eb4:	1885883a 	add	r2,r3,r2
10010eb8:	10800003 	ldbu	r2,0(r2)
10010ebc:	10803fcc 	andi	r2,r2,255
10010ec0:	1080201c 	xori	r2,r2,128
10010ec4:	10bfe004 	addi	r2,r2,-128
10010ec8:	10000a1e 	bne	r2,zero,10010ef4 <alt_find_file+0xe0>
        !memcmp (next->name, name, len))
10010ecc:	e0bffd17 	ldw	r2,-12(fp)
10010ed0:	10c00217 	ldw	r3,8(r2)
10010ed4:	e0bffe17 	ldw	r2,-8(fp)
10010ed8:	1809883a 	mov	r4,r3
10010edc:	e17fff17 	ldw	r5,-4(fp)
10010ee0:	100d883a 	mov	r6,r2
10010ee4:	00110480 	call	10011048 <memcmp>
    if (next->name[len-1] == '/')
    {
      len -= 1;
    }

    if (((name[len] == '/') || (name[len] == '\0')) && 
10010ee8:	1000021e 	bne	r2,zero,10010ef4 <alt_find_file+0xe0>
        !memcmp (next->name, name, len))
    {
      /* match found */

      return next;
10010eec:	e0bffd17 	ldw	r2,-12(fp)
10010ef0:	00000806 	br	10010f14 <alt_find_file+0x100>
    }
    next = (alt_dev*) next->llist.next;
10010ef4:	e0bffd17 	ldw	r2,-12(fp)
10010ef8:	10800017 	ldw	r2,0(r2)
10010efc:	e0bffd15 	stw	r2,-12(fp)
  /*
   * Check each list entry in turn, until a match is found, or we reach the
   * end of the list (i.e. next winds up pointing back to the list head).
   */ 
 
  while (next != (alt_dev*) &alt_fs_list)
10010f00:	e0fffd17 	ldw	r3,-12(fp)
10010f04:	00840074 	movhi	r2,4097
10010f08:	108e3904 	addi	r2,r2,14564
10010f0c:	18bfcb1e 	bne	r3,r2,10010e3c <__alt_data_end+0xf8010e3c>
    next = (alt_dev*) next->llist.next;
  }
  
  /* No match found */
  
  return NULL;     
10010f10:	0005883a 	mov	r2,zero
}
10010f14:	e037883a 	mov	sp,fp
10010f18:	dfc00117 	ldw	ra,4(sp)
10010f1c:	df000017 	ldw	fp,0(sp)
10010f20:	dec00204 	addi	sp,sp,8
10010f24:	f800283a 	ret

10010f28 <alt_get_fd>:
 * the offset of the file descriptor within the file descriptor array). A
 * negative value indicates failure.
 */

int alt_get_fd (alt_dev* dev)
{
10010f28:	defffa04 	addi	sp,sp,-24
10010f2c:	dfc00515 	stw	ra,20(sp)
10010f30:	df000415 	stw	fp,16(sp)
10010f34:	dc000315 	stw	r16,12(sp)
10010f38:	df000404 	addi	fp,sp,16
10010f3c:	e13ffe15 	stw	r4,-8(fp)
  alt_32 i;
  int rc = -EMFILE;
10010f40:	00bffa04 	movi	r2,-24
10010f44:	e0bffd15 	stw	r2,-12(fp)
   * indicates the highest file descriptor ever allocated. This is used to
   * improve efficency when searching the file descriptor list, and 
   * therefore reduce contention on the alt_fd_list_lock semaphore. 
   */

  for (i = 0; i < ALT_MAX_FD; i++)
10010f48:	e03ffc15 	stw	zero,-16(fp)
10010f4c:	00002106 	br	10010fd4 <alt_get_fd+0xac>
  {
    if (!alt_fd_list[i].dev)
10010f50:	04040074 	movhi	r16,4097
10010f54:	8409bb04 	addi	r16,r16,9964
10010f58:	e0bffc17 	ldw	r2,-16(fp)
10010f5c:	1009883a 	mov	r4,r2
10010f60:	01400304 	movi	r5,12
10010f64:	000c3380 	call	1000c338 <__mulsi3>
10010f68:	8085883a 	add	r2,r16,r2
10010f6c:	10800017 	ldw	r2,0(r2)
10010f70:	1000151e 	bne	r2,zero,10010fc8 <alt_get_fd+0xa0>
    {
      alt_fd_list[i].dev = dev;
10010f74:	04040074 	movhi	r16,4097
10010f78:	8409bb04 	addi	r16,r16,9964
10010f7c:	e0bffc17 	ldw	r2,-16(fp)
10010f80:	1009883a 	mov	r4,r2
10010f84:	01400304 	movi	r5,12
10010f88:	000c3380 	call	1000c338 <__mulsi3>
10010f8c:	8085883a 	add	r2,r16,r2
10010f90:	e0fffe17 	ldw	r3,-8(fp)
10010f94:	10c00015 	stw	r3,0(r2)
      if (i > alt_max_fd)
10010f98:	00840074 	movhi	r2,4097
10010f9c:	108e3d04 	addi	r2,r2,14580
10010fa0:	10c00017 	ldw	r3,0(r2)
10010fa4:	e0bffc17 	ldw	r2,-16(fp)
10010fa8:	1880040e 	bge	r3,r2,10010fbc <alt_get_fd+0x94>
      {
        alt_max_fd = i;
10010fac:	00840074 	movhi	r2,4097
10010fb0:	108e3d04 	addi	r2,r2,14580
10010fb4:	e0fffc17 	ldw	r3,-16(fp)
10010fb8:	10c00015 	stw	r3,0(r2)
      }
      rc = i;
10010fbc:	e0bffc17 	ldw	r2,-16(fp)
10010fc0:	e0bffd15 	stw	r2,-12(fp)
      goto alt_get_fd_exit;
10010fc4:	00000606 	br	10010fe0 <alt_get_fd+0xb8>
   * indicates the highest file descriptor ever allocated. This is used to
   * improve efficency when searching the file descriptor list, and 
   * therefore reduce contention on the alt_fd_list_lock semaphore. 
   */

  for (i = 0; i < ALT_MAX_FD; i++)
10010fc8:	e0bffc17 	ldw	r2,-16(fp)
10010fcc:	10800044 	addi	r2,r2,1
10010fd0:	e0bffc15 	stw	r2,-16(fp)
10010fd4:	e0bffc17 	ldw	r2,-16(fp)
10010fd8:	10800810 	cmplti	r2,r2,32
10010fdc:	103fdc1e 	bne	r2,zero,10010f50 <__alt_data_end+0xf8010f50>
   * file descriptor pool.
   */

  ALT_SEM_POST(alt_fd_list_lock);

  return rc;
10010fe0:	e0bffd17 	ldw	r2,-12(fp)
}
10010fe4:	e6ffff04 	addi	sp,fp,-4
10010fe8:	dfc00217 	ldw	ra,8(sp)
10010fec:	df000117 	ldw	fp,4(sp)
10010ff0:	dc000017 	ldw	r16,0(sp)
10010ff4:	dec00304 	addi	sp,sp,12
10010ff8:	f800283a 	ret

10010ffc <atexit>:
10010ffc:	200b883a 	mov	r5,r4
10011000:	000d883a 	mov	r6,zero
10011004:	0009883a 	mov	r4,zero
10011008:	000f883a 	mov	r7,zero
1001100c:	00110c41 	jmpi	100110c4 <__register_exitproc>

10011010 <exit>:
10011010:	defffe04 	addi	sp,sp,-8
10011014:	000b883a 	mov	r5,zero
10011018:	dc000015 	stw	r16,0(sp)
1001101c:	dfc00115 	stw	ra,4(sp)
10011020:	2021883a 	mov	r16,r4
10011024:	00111d80 	call	100111d8 <__call_exitprocs>
10011028:	00840074 	movhi	r2,4097
1001102c:	108e3304 	addi	r2,r2,14540
10011030:	11000017 	ldw	r4,0(r2)
10011034:	20800f17 	ldw	r2,60(r4)
10011038:	10000126 	beq	r2,zero,10011040 <exit+0x30>
1001103c:	103ee83a 	callr	r2
10011040:	8009883a 	mov	r4,r16
10011044:	001136c0 	call	1001136c <_exit>

10011048 <memcmp>:
10011048:	01c000c4 	movi	r7,3
1001104c:	3980192e 	bgeu	r7,r6,100110b4 <memcmp+0x6c>
10011050:	2144b03a 	or	r2,r4,r5
10011054:	11c4703a 	and	r2,r2,r7
10011058:	10000f26 	beq	r2,zero,10011098 <memcmp+0x50>
1001105c:	20800003 	ldbu	r2,0(r4)
10011060:	28c00003 	ldbu	r3,0(r5)
10011064:	10c0151e 	bne	r2,r3,100110bc <memcmp+0x74>
10011068:	31bfff84 	addi	r6,r6,-2
1001106c:	01ffffc4 	movi	r7,-1
10011070:	00000406 	br	10011084 <memcmp+0x3c>
10011074:	20800003 	ldbu	r2,0(r4)
10011078:	28c00003 	ldbu	r3,0(r5)
1001107c:	31bfffc4 	addi	r6,r6,-1
10011080:	10c00e1e 	bne	r2,r3,100110bc <memcmp+0x74>
10011084:	21000044 	addi	r4,r4,1
10011088:	29400044 	addi	r5,r5,1
1001108c:	31fff91e 	bne	r6,r7,10011074 <__alt_data_end+0xf8011074>
10011090:	0005883a 	mov	r2,zero
10011094:	f800283a 	ret
10011098:	20c00017 	ldw	r3,0(r4)
1001109c:	28800017 	ldw	r2,0(r5)
100110a0:	1880041e 	bne	r3,r2,100110b4 <memcmp+0x6c>
100110a4:	31bfff04 	addi	r6,r6,-4
100110a8:	21000104 	addi	r4,r4,4
100110ac:	29400104 	addi	r5,r5,4
100110b0:	39bff936 	bltu	r7,r6,10011098 <__alt_data_end+0xf8011098>
100110b4:	303fe91e 	bne	r6,zero,1001105c <__alt_data_end+0xf801105c>
100110b8:	003ff506 	br	10011090 <__alt_data_end+0xf8011090>
100110bc:	10c5c83a 	sub	r2,r2,r3
100110c0:	f800283a 	ret

100110c4 <__register_exitproc>:
100110c4:	00840074 	movhi	r2,4097
100110c8:	defffa04 	addi	sp,sp,-24
100110cc:	108e3304 	addi	r2,r2,14540
100110d0:	dc000315 	stw	r16,12(sp)
100110d4:	14000017 	ldw	r16,0(r2)
100110d8:	dc400415 	stw	r17,16(sp)
100110dc:	dfc00515 	stw	ra,20(sp)
100110e0:	80805217 	ldw	r2,328(r16)
100110e4:	2023883a 	mov	r17,r4
100110e8:	10003626 	beq	r2,zero,100111c4 <__register_exitproc+0x100>
100110ec:	10c00117 	ldw	r3,4(r2)
100110f0:	010007c4 	movi	r4,31
100110f4:	20c00e16 	blt	r4,r3,10011130 <__register_exitproc+0x6c>
100110f8:	1a400044 	addi	r9,r3,1
100110fc:	8800211e 	bne	r17,zero,10011184 <__register_exitproc+0xc0>
10011100:	18c00084 	addi	r3,r3,2
10011104:	18c7883a 	add	r3,r3,r3
10011108:	18c7883a 	add	r3,r3,r3
1001110c:	12400115 	stw	r9,4(r2)
10011110:	10c7883a 	add	r3,r2,r3
10011114:	19400015 	stw	r5,0(r3)
10011118:	0005883a 	mov	r2,zero
1001111c:	dfc00517 	ldw	ra,20(sp)
10011120:	dc400417 	ldw	r17,16(sp)
10011124:	dc000317 	ldw	r16,12(sp)
10011128:	dec00604 	addi	sp,sp,24
1001112c:	f800283a 	ret
10011130:	00800034 	movhi	r2,0
10011134:	10800004 	addi	r2,r2,0
10011138:	10002526 	beq	r2,zero,100111d0 <__register_exitproc+0x10c>
1001113c:	01006404 	movi	r4,400
10011140:	d9400015 	stw	r5,0(sp)
10011144:	d9800115 	stw	r6,4(sp)
10011148:	d9c00215 	stw	r7,8(sp)
1001114c:	00000000 	call	10000000 <__reset>
10011150:	d9400017 	ldw	r5,0(sp)
10011154:	d9800117 	ldw	r6,4(sp)
10011158:	d9c00217 	ldw	r7,8(sp)
1001115c:	10001c26 	beq	r2,zero,100111d0 <__register_exitproc+0x10c>
10011160:	80c05217 	ldw	r3,328(r16)
10011164:	10000115 	stw	zero,4(r2)
10011168:	02400044 	movi	r9,1
1001116c:	10c00015 	stw	r3,0(r2)
10011170:	80805215 	stw	r2,328(r16)
10011174:	10006215 	stw	zero,392(r2)
10011178:	10006315 	stw	zero,396(r2)
1001117c:	0007883a 	mov	r3,zero
10011180:	883fdf26 	beq	r17,zero,10011100 <__alt_data_end+0xf8011100>
10011184:	18d1883a 	add	r8,r3,r3
10011188:	4211883a 	add	r8,r8,r8
1001118c:	1211883a 	add	r8,r2,r8
10011190:	41802215 	stw	r6,136(r8)
10011194:	01000044 	movi	r4,1
10011198:	11806217 	ldw	r6,392(r2)
1001119c:	20c8983a 	sll	r4,r4,r3
100111a0:	310cb03a 	or	r6,r6,r4
100111a4:	11806215 	stw	r6,392(r2)
100111a8:	41c04215 	stw	r7,264(r8)
100111ac:	01800084 	movi	r6,2
100111b0:	89bfd31e 	bne	r17,r6,10011100 <__alt_data_end+0xf8011100>
100111b4:	11806317 	ldw	r6,396(r2)
100111b8:	3108b03a 	or	r4,r6,r4
100111bc:	11006315 	stw	r4,396(r2)
100111c0:	003fcf06 	br	10011100 <__alt_data_end+0xf8011100>
100111c4:	80805304 	addi	r2,r16,332
100111c8:	80805215 	stw	r2,328(r16)
100111cc:	003fc706 	br	100110ec <__alt_data_end+0xf80110ec>
100111d0:	00bfffc4 	movi	r2,-1
100111d4:	003fd106 	br	1001111c <__alt_data_end+0xf801111c>

100111d8 <__call_exitprocs>:
100111d8:	00840074 	movhi	r2,4097
100111dc:	108e3304 	addi	r2,r2,14540
100111e0:	10800017 	ldw	r2,0(r2)
100111e4:	defff404 	addi	sp,sp,-48
100111e8:	dd800815 	stw	r22,32(sp)
100111ec:	d8800015 	stw	r2,0(sp)
100111f0:	10805204 	addi	r2,r2,328
100111f4:	dd000615 	stw	r20,24(sp)
100111f8:	dc800415 	stw	r18,16(sp)
100111fc:	dfc00b15 	stw	ra,44(sp)
10011200:	df000a15 	stw	fp,40(sp)
10011204:	ddc00915 	stw	r23,36(sp)
10011208:	dd400715 	stw	r21,28(sp)
1001120c:	dcc00515 	stw	r19,20(sp)
10011210:	dc400315 	stw	r17,12(sp)
10011214:	dc000215 	stw	r16,8(sp)
10011218:	2025883a 	mov	r18,r4
1001121c:	2829883a 	mov	r20,r5
10011220:	d8800115 	stw	r2,4(sp)
10011224:	05bfffc4 	movi	r22,-1
10011228:	d8800017 	ldw	r2,0(sp)
1001122c:	14c05217 	ldw	r19,328(r2)
10011230:	98001d26 	beq	r19,zero,100112a8 <__call_exitprocs+0xd0>
10011234:	dd400117 	ldw	r21,4(sp)
10011238:	98800117 	ldw	r2,4(r19)
1001123c:	173fffc4 	addi	fp,r2,-1
10011240:	e0000d16 	blt	fp,zero,10011278 <__call_exitprocs+0xa0>
10011244:	14000044 	addi	r16,r2,1
10011248:	8421883a 	add	r16,r16,r16
1001124c:	8421883a 	add	r16,r16,r16
10011250:	84402004 	addi	r17,r16,128
10011254:	9c63883a 	add	r17,r19,r17
10011258:	9c21883a 	add	r16,r19,r16
1001125c:	a0001e26 	beq	r20,zero,100112d8 <__call_exitprocs+0x100>
10011260:	80804017 	ldw	r2,256(r16)
10011264:	15001c26 	beq	r2,r20,100112d8 <__call_exitprocs+0x100>
10011268:	e73fffc4 	addi	fp,fp,-1
1001126c:	843fff04 	addi	r16,r16,-4
10011270:	8c7fff04 	addi	r17,r17,-4
10011274:	e5bff91e 	bne	fp,r22,1001125c <__alt_data_end+0xf801125c>
10011278:	00800034 	movhi	r2,0
1001127c:	10800004 	addi	r2,r2,0
10011280:	10000926 	beq	r2,zero,100112a8 <__call_exitprocs+0xd0>
10011284:	98800117 	ldw	r2,4(r19)
10011288:	1000311e 	bne	r2,zero,10011350 <__call_exitprocs+0x178>
1001128c:	98800017 	ldw	r2,0(r19)
10011290:	10003426 	beq	r2,zero,10011364 <__call_exitprocs+0x18c>
10011294:	9809883a 	mov	r4,r19
10011298:	a8800015 	stw	r2,0(r21)
1001129c:	00000000 	call	10000000 <__reset>
100112a0:	acc00017 	ldw	r19,0(r21)
100112a4:	983fe41e 	bne	r19,zero,10011238 <__alt_data_end+0xf8011238>
100112a8:	dfc00b17 	ldw	ra,44(sp)
100112ac:	df000a17 	ldw	fp,40(sp)
100112b0:	ddc00917 	ldw	r23,36(sp)
100112b4:	dd800817 	ldw	r22,32(sp)
100112b8:	dd400717 	ldw	r21,28(sp)
100112bc:	dd000617 	ldw	r20,24(sp)
100112c0:	dcc00517 	ldw	r19,20(sp)
100112c4:	dc800417 	ldw	r18,16(sp)
100112c8:	dc400317 	ldw	r17,12(sp)
100112cc:	dc000217 	ldw	r16,8(sp)
100112d0:	dec00c04 	addi	sp,sp,48
100112d4:	f800283a 	ret
100112d8:	98800117 	ldw	r2,4(r19)
100112dc:	80c00017 	ldw	r3,0(r16)
100112e0:	10bfffc4 	addi	r2,r2,-1
100112e4:	17001526 	beq	r2,fp,1001133c <__call_exitprocs+0x164>
100112e8:	80000015 	stw	zero,0(r16)
100112ec:	183fde26 	beq	r3,zero,10011268 <__alt_data_end+0xf8011268>
100112f0:	00800044 	movi	r2,1
100112f4:	1708983a 	sll	r4,r2,fp
100112f8:	98806217 	ldw	r2,392(r19)
100112fc:	9dc00117 	ldw	r23,4(r19)
10011300:	2084703a 	and	r2,r4,r2
10011304:	1000061e 	bne	r2,zero,10011320 <__call_exitprocs+0x148>
10011308:	183ee83a 	callr	r3
1001130c:	98800117 	ldw	r2,4(r19)
10011310:	15ffc51e 	bne	r2,r23,10011228 <__alt_data_end+0xf8011228>
10011314:	a8800017 	ldw	r2,0(r21)
10011318:	14ffd326 	beq	r2,r19,10011268 <__alt_data_end+0xf8011268>
1001131c:	003fc206 	br	10011228 <__alt_data_end+0xf8011228>
10011320:	98806317 	ldw	r2,396(r19)
10011324:	2084703a 	and	r2,r4,r2
10011328:	1000061e 	bne	r2,zero,10011344 <__call_exitprocs+0x16c>
1001132c:	89400017 	ldw	r5,0(r17)
10011330:	9009883a 	mov	r4,r18
10011334:	183ee83a 	callr	r3
10011338:	003ff406 	br	1001130c <__alt_data_end+0xf801130c>
1001133c:	9f000115 	stw	fp,4(r19)
10011340:	003fea06 	br	100112ec <__alt_data_end+0xf80112ec>
10011344:	89000017 	ldw	r4,0(r17)
10011348:	183ee83a 	callr	r3
1001134c:	003fef06 	br	1001130c <__alt_data_end+0xf801130c>
10011350:	98800017 	ldw	r2,0(r19)
10011354:	982b883a 	mov	r21,r19
10011358:	1027883a 	mov	r19,r2
1001135c:	983fb61e 	bne	r19,zero,10011238 <__alt_data_end+0xf8011238>
10011360:	003fd106 	br	100112a8 <__alt_data_end+0xf80112a8>
10011364:	0005883a 	mov	r2,zero
10011368:	003ffa06 	br	10011354 <__alt_data_end+0xf8011354>

1001136c <_exit>:
 *
 * ALT_EXIT is mapped onto the _exit() system call in alt_syscall.h
 */

void ALT_EXIT (int exit_code)
{
1001136c:	defffd04 	addi	sp,sp,-12
10011370:	df000215 	stw	fp,8(sp)
10011374:	df000204 	addi	fp,sp,8
10011378:	e13fff15 	stw	r4,-4(fp)
  ALT_LOG_PRINT_BOOT("[alt_exit.c] Entering _exit() function.\r\n");
  ALT_LOG_PRINT_BOOT("[alt_exit.c] Exit code from main was %d.\r\n",exit_code);
  /* Stop all other threads */

  ALT_LOG_PRINT_BOOT("[alt_exit.c] Calling ALT_OS_STOP().\r\n");
  ALT_OS_STOP();
1001137c:	0001883a 	nop
10011380:	e0bfff17 	ldw	r2,-4(fp)
10011384:	e0bffe15 	stw	r2,-8(fp)
/*
 * Routine called on exit.
 */
static ALT_INLINE ALT_ALWAYS_INLINE void alt_sim_halt(int exit_code)
{
  register int r2 asm ("r2") = exit_code;
10011388:	e0bffe17 	ldw	r2,-8(fp)
  __asm__ volatile ("\n0:\n\taddi %0,%0, -1\n\tbgt %0,zero,0b" : : "r" (ALT_CPU_FREQ/100) ); /* Delay for >30ms */

  __asm__ volatile ("break 2" : : "r"(r2), "r"(r3) ALT_GMON_DATA );

#else /* !DEBUG_STUB */
  if (r2) {
1001138c:	10000226 	beq	r2,zero,10011398 <_exit+0x2c>
    ALT_SIM_FAIL();
10011390:	002af070 	cmpltui	zero,zero,43969
10011394:	00000106 	br	1001139c <_exit+0x30>
  } else {
    ALT_SIM_PASS();
10011398:	002af0b0 	cmpltui	zero,zero,43970
  ALT_SIM_HALT(exit_code);

  /* spin forever, since there's no where to go back to */

  ALT_LOG_PRINT_BOOT("[alt_exit.c] Spinning forever.\r\n");
  while (1);
1001139c:	003fff06 	br	1001139c <__alt_data_end+0xf801139c>
